
Optional file libmchp_peripheral.a not found

Optional file libmchp_peripheral_32MX795F512L.a not found
Archive member included because of file (symbol)

c:/program files/microchip/xc32/v2.50/bin/bin/../../lib/gcc/pic32mx/4.8.3\libgcc.a(_udivdi3.o)
                              build/default/production/_ext/1033058136/tcp.o (__udivdi3)
c:/program files/microchip/xc32/v2.50/bin/bin/../../lib/gcc/pic32mx/4.8.3/../../../../pic32mx/lib\libpic32.a(memcmp.o)
                              build/default/production/_ext/732082881/drv_ethmac.o (memcmp)
c:/program files/microchip/xc32/v2.50/bin/bin/../../lib/gcc/pic32mx/4.8.3/../../../../pic32mx/lib\libpic32.a(memcpy.o)
                              build/default/production/_ext/1033058136/tcp.o (memcpy)
c:/program files/microchip/xc32/v2.50/bin/bin/../../lib/gcc/pic32mx/4.8.3/../../../../pic32mx/lib\libpic32.a(memset.o)
                              build/default/production/_ext/732082881/drv_ethmac.o (memset)
c:/program files/microchip/xc32/v2.50/bin/bin/../../lib/gcc/pic32mx/4.8.3/../../../../pic32mx/lib\libpic32.a(strcmp.o)
                              build/default/production/_ext/1033058136/dhcps.o (strcmp)
c:/program files/microchip/xc32/v2.50/bin/bin/../../lib/gcc/pic32mx/4.8.3/../../../../pic32mx/lib\libpic32.a(strcpy.o)
                              build/default/production/_ext/1033058136/tcpip_helpers.o (strcpy)
c:/program files/microchip/xc32/v2.50/bin/bin/../../lib/gcc/pic32mx/4.8.3/../../../../pic32mx/lib\libpic32.a(strlen.o)
                              build/default/production/_ext/1033058136/tcp.o (strlen)
c:/program files/microchip/xc32/v2.50/bin/bin/../../lib/gcc/pic32mx/4.8.3/../../../../pic32mx/lib\libpic32.a(default-on-reset.o)
                              C:\Users\user\AppData\Local\Temp\ccWnVuPa.o (_on_reset)
c:/program files/microchip/xc32/v2.50/bin/bin/../../lib/gcc/pic32mx/4.8.3/../../../../pic32mx/lib\libpic32.a(default-on-bootstrap.o)
                              C:\Users\user\AppData\Local\Temp\ccWnVuPa.o (_on_bootstrap)
c:/program files/microchip/xc32/v2.50/bin/bin/../../lib/gcc/pic32mx/4.8.3/../../../../pic32mx/lib\libpic32.a(default-nmi-handler.o)
                              C:\Users\user\AppData\Local\Temp\ccWnVuPa.o (_nmi_handler)
c:/program files/microchip/xc32/v2.50/bin/bin/../../lib/gcc/pic32mx/4.8.3/../../../../pic32mx/lib\libpic32.a(pic32_data_init.o)
                              C:\Users\user\AppData\Local\Temp\ccWnVuPa.o (__pic32_data_init)
c:/program files/microchip/xc32/v2.50/bin/bin/../../lib/gcc/pic32mx/4.8.3/../../../../pic32mx/lib\libpic32.a(general-exception.o)
                              C:\Users\user\AppData\Local\Temp\ccWnVuPa.o (_general_exception_context)
c:/program files/microchip/xc32/v2.50/bin/bin/../../lib/gcc/pic32mx/4.8.3/../../../../pic32mx/lib\libpic32.a(vector2.o)
                              C:\Users\user\AppData\Local\Temp\ccQYy8Ku.o (__vector_dispatch_2)
c:/program files/microchip/xc32/v2.50/bin/bin/../../lib/gcc/pic32mx/4.8.3/../../../../pic32mx/lib\libpic32.a(vector3.o)
                              C:\Users\user\AppData\Local\Temp\ccQYy8Ku.o (__vector_dispatch_3)
c:/program files/microchip/xc32/v2.50/bin/bin/../../lib/gcc/pic32mx/4.8.3/../../../../pic32mx/lib\libpic32.a(vector5.o)
                              C:\Users\user\AppData\Local\Temp\ccQYy8Ku.o (__vector_dispatch_5)
c:/program files/microchip/xc32/v2.50/bin/bin/../../lib/gcc/pic32mx/4.8.3/../../../../pic32mx/lib\libpic32.a(vector6.o)
                              C:\Users\user\AppData\Local\Temp\ccQYy8Ku.o (__vector_dispatch_6)
c:/program files/microchip/xc32/v2.50/bin/bin/../../lib/gcc/pic32mx/4.8.3/../../../../pic32mx/lib\libpic32.a(vector7.o)
                              C:\Users\user\AppData\Local\Temp\ccQYy8Ku.o (__vector_dispatch_7)
c:/program files/microchip/xc32/v2.50/bin/bin/../../lib/gcc/pic32mx/4.8.3/../../../../pic32mx/lib\libpic32.a(vector9.o)
                              C:\Users\user\AppData\Local\Temp\ccQYy8Ku.o (__vector_dispatch_9)
c:/program files/microchip/xc32/v2.50/bin/bin/../../lib/gcc/pic32mx/4.8.3/../../../../pic32mx/lib\libpic32.a(vector10.o)
                              C:\Users\user\AppData\Local\Temp\ccQYy8Ku.o (__vector_dispatch_10)
c:/program files/microchip/xc32/v2.50/bin/bin/../../lib/gcc/pic32mx/4.8.3/../../../../pic32mx/lib\libpic32.a(vector11.o)
                              C:\Users\user\AppData\Local\Temp\ccQYy8Ku.o (__vector_dispatch_11)
c:/program files/microchip/xc32/v2.50/bin/bin/../../lib/gcc/pic32mx/4.8.3/../../../../pic32mx/lib\libpic32.a(vector12.o)
                              C:\Users\user\AppData\Local\Temp\ccQYy8Ku.o (__vector_dispatch_12)
c:/program files/microchip/xc32/v2.50/bin/bin/../../lib/gcc/pic32mx/4.8.3/../../../../pic32mx/lib\libpic32.a(vector13.o)
                              C:\Users\user\AppData\Local\Temp\ccQYy8Ku.o (__vector_dispatch_13)
c:/program files/microchip/xc32/v2.50/bin/bin/../../lib/gcc/pic32mx/4.8.3/../../../../pic32mx/lib\libpic32.a(vector14.o)
                              C:\Users\user\AppData\Local\Temp\ccQYy8Ku.o (__vector_dispatch_14)
c:/program files/microchip/xc32/v2.50/bin/bin/../../lib/gcc/pic32mx/4.8.3/../../../../pic32mx/lib\libpic32.a(vector15.o)
                              C:\Users\user\AppData\Local\Temp\ccQYy8Ku.o (__vector_dispatch_15)
c:/program files/microchip/xc32/v2.50/bin/bin/../../lib/gcc/pic32mx/4.8.3/../../../../pic32mx/lib\libpic32.a(vector16.o)
                              C:\Users\user\AppData\Local\Temp\ccQYy8Ku.o (__vector_dispatch_16)
c:/program files/microchip/xc32/v2.50/bin/bin/../../lib/gcc/pic32mx/4.8.3/../../../../pic32mx/lib\libpic32.a(vector17.o)
                              C:\Users\user\AppData\Local\Temp\ccQYy8Ku.o (__vector_dispatch_17)
c:/program files/microchip/xc32/v2.50/bin/bin/../../lib/gcc/pic32mx/4.8.3/../../../../pic32mx/lib\libpic32.a(vector18.o)
                              C:\Users\user\AppData\Local\Temp\ccQYy8Ku.o (__vector_dispatch_18)
c:/program files/microchip/xc32/v2.50/bin/bin/../../lib/gcc/pic32mx/4.8.3/../../../../pic32mx/lib\libpic32.a(vector19.o)
                              C:\Users\user\AppData\Local\Temp\ccQYy8Ku.o (__vector_dispatch_19)
c:/program files/microchip/xc32/v2.50/bin/bin/../../lib/gcc/pic32mx/4.8.3/../../../../pic32mx/lib\libpic32.a(vector20.o)
                              C:\Users\user\AppData\Local\Temp\ccQYy8Ku.o (__vector_dispatch_20)
c:/program files/microchip/xc32/v2.50/bin/bin/../../lib/gcc/pic32mx/4.8.3/../../../../pic32mx/lib\libpic32.a(vector21.o)
                              C:\Users\user\AppData\Local\Temp\ccQYy8Ku.o (__vector_dispatch_21)
c:/program files/microchip/xc32/v2.50/bin/bin/../../lib/gcc/pic32mx/4.8.3/../../../../pic32mx/lib\libpic32.a(vector22.o)
                              C:\Users\user\AppData\Local\Temp\ccQYy8Ku.o (__vector_dispatch_22)
c:/program files/microchip/xc32/v2.50/bin/bin/../../lib/gcc/pic32mx/4.8.3/../../../../pic32mx/lib\libpic32.a(vector24.o)
                              C:\Users\user\AppData\Local\Temp\ccQYy8Ku.o (__vector_dispatch_24)
c:/program files/microchip/xc32/v2.50/bin/bin/../../lib/gcc/pic32mx/4.8.3/../../../../pic32mx/lib\libpic32.a(vector25.o)
                              C:\Users\user\AppData\Local\Temp\ccQYy8Ku.o (__vector_dispatch_25)
c:/program files/microchip/xc32/v2.50/bin/bin/../../lib/gcc/pic32mx/4.8.3/../../../../pic32mx/lib\libpic32.a(vector26.o)
                              C:\Users\user\AppData\Local\Temp\ccQYy8Ku.o (__vector_dispatch_26)
c:/program files/microchip/xc32/v2.50/bin/bin/../../lib/gcc/pic32mx/4.8.3/../../../../pic32mx/lib\libpic32.a(vector27.o)
                              C:\Users\user\AppData\Local\Temp\ccQYy8Ku.o (__vector_dispatch_27)
c:/program files/microchip/xc32/v2.50/bin/bin/../../lib/gcc/pic32mx/4.8.3/../../../../pic32mx/lib\libpic32.a(vector28.o)
                              C:\Users\user\AppData\Local\Temp\ccQYy8Ku.o (__vector_dispatch_28)
c:/program files/microchip/xc32/v2.50/bin/bin/../../lib/gcc/pic32mx/4.8.3/../../../../pic32mx/lib\libpic32.a(vector29.o)
                              C:\Users\user\AppData\Local\Temp\ccQYy8Ku.o (__vector_dispatch_29)
c:/program files/microchip/xc32/v2.50/bin/bin/../../lib/gcc/pic32mx/4.8.3/../../../../pic32mx/lib\libpic32.a(vector30.o)
                              C:\Users\user\AppData\Local\Temp\ccQYy8Ku.o (__vector_dispatch_30)
c:/program files/microchip/xc32/v2.50/bin/bin/../../lib/gcc/pic32mx/4.8.3/../../../../pic32mx/lib\libpic32.a(vector31.o)
                              C:\Users\user\AppData\Local\Temp\ccQYy8Ku.o (__vector_dispatch_31)
c:/program files/microchip/xc32/v2.50/bin/bin/../../lib/gcc/pic32mx/4.8.3/../../../../pic32mx/lib\libpic32.a(vector33.o)
                              C:\Users\user\AppData\Local\Temp\ccQYy8Ku.o (__vector_dispatch_33)
c:/program files/microchip/xc32/v2.50/bin/bin/../../lib/gcc/pic32mx/4.8.3/../../../../pic32mx/lib\libpic32.a(vector34.o)
                              C:\Users\user\AppData\Local\Temp\ccQYy8Ku.o (__vector_dispatch_34)
c:/program files/microchip/xc32/v2.50/bin/bin/../../lib/gcc/pic32mx/4.8.3/../../../../pic32mx/lib\libpic32.a(vector35.o)
                              C:\Users\user\AppData\Local\Temp\ccQYy8Ku.o (__vector_dispatch_35)
c:/program files/microchip/xc32/v2.50/bin/bin/../../lib/gcc/pic32mx/4.8.3/../../../../pic32mx/lib\libpic32.a(vector36.o)
                              C:\Users\user\AppData\Local\Temp\ccQYy8Ku.o (__vector_dispatch_36)
c:/program files/microchip/xc32/v2.50/bin/bin/../../lib/gcc/pic32mx/4.8.3/../../../../pic32mx/lib\libpic32.a(vector37.o)
                              C:\Users\user\AppData\Local\Temp\ccQYy8Ku.o (__vector_dispatch_37)
c:/program files/microchip/xc32/v2.50/bin/bin/../../lib/gcc/pic32mx/4.8.3/../../../../pic32mx/lib\libpic32.a(vector38.o)
                              C:\Users\user\AppData\Local\Temp\ccQYy8Ku.o (__vector_dispatch_38)
c:/program files/microchip/xc32/v2.50/bin/bin/../../lib/gcc/pic32mx/4.8.3/../../../../pic32mx/lib\libpic32.a(vector39.o)
                              C:\Users\user\AppData\Local\Temp\ccQYy8Ku.o (__vector_dispatch_39)
c:/program files/microchip/xc32/v2.50/bin/bin/../../lib/gcc/pic32mx/4.8.3/../../../../pic32mx/lib\libpic32.a(vector40.o)
                              C:\Users\user\AppData\Local\Temp\ccQYy8Ku.o (__vector_dispatch_40)
c:/program files/microchip/xc32/v2.50/bin/bin/../../lib/gcc/pic32mx/4.8.3/../../../../pic32mx/lib\libpic32.a(vector41.o)
                              C:\Users\user\AppData\Local\Temp\ccQYy8Ku.o (__vector_dispatch_41)
c:/program files/microchip/xc32/v2.50/bin/bin/../../lib/gcc/pic32mx/4.8.3/../../../../pic32mx/lib\libpic32.a(vector42.o)
                              C:\Users\user\AppData\Local\Temp\ccQYy8Ku.o (__vector_dispatch_42)
c:/program files/microchip/xc32/v2.50/bin/bin/../../lib/gcc/pic32mx/4.8.3/../../../../pic32mx/lib\libpic32.a(vector43.o)
                              C:\Users\user\AppData\Local\Temp\ccQYy8Ku.o (__vector_dispatch_43)
c:/program files/microchip/xc32/v2.50/bin/bin/../../lib/gcc/pic32mx/4.8.3/../../../../pic32mx/lib\libpic32.a(vector44.o)
                              C:\Users\user\AppData\Local\Temp\ccQYy8Ku.o (__vector_dispatch_44)
c:/program files/microchip/xc32/v2.50/bin/bin/../../lib/gcc/pic32mx/4.8.3/../../../../pic32mx/lib\libpic32.a(vector45.o)
                              C:\Users\user\AppData\Local\Temp\ccQYy8Ku.o (__vector_dispatch_45)
c:/program files/microchip/xc32/v2.50/bin/bin/../../lib/gcc/pic32mx/4.8.3/../../../../pic32mx/lib\libpic32.a(vector46.o)
                              C:\Users\user\AppData\Local\Temp\ccQYy8Ku.o (__vector_dispatch_46)
c:/program files/microchip/xc32/v2.50/bin/bin/../../lib/gcc/pic32mx/4.8.3/../../../../pic32mx/lib\libpic32.a(vector47.o)
                              C:\Users\user\AppData\Local\Temp\ccQYy8Ku.o (__vector_dispatch_47)
c:/program files/microchip/xc32/v2.50/bin/bin/../../lib/gcc/pic32mx/4.8.3/../../../../pic32mx/lib\libpic32.a(vector49.o)
                              C:\Users\user\AppData\Local\Temp\ccQYy8Ku.o (__vector_dispatch_49)
c:/program files/microchip/xc32/v2.50/bin/bin/../../lib/gcc/pic32mx/4.8.3/../../../../pic32mx/lib\libpic32.a(vector50.o)
                              C:\Users\user\AppData\Local\Temp\ccQYy8Ku.o (__vector_dispatch_50)
c:/program files/microchip/xc32/v2.50/bin/bin/../../lib/gcc/pic32mx/4.8.3/../../../../pic32mx/lib\libpic32.a(vector51.o)
                              C:\Users\user\AppData\Local\Temp\ccQYy8Ku.o (__vector_dispatch_51)
c:/program files/microchip/xc32/v2.50/bin/bin/../../lib/gcc/pic32mx/4.8.3/../../../../pic32mx/lib\libpic32.a(defaultinterrupt.o)
                              c:/program files/microchip/xc32/v2.50/bin/bin/../../lib/gcc/pic32mx/4.8.3/../../../../pic32mx/lib\libpic32.a(vector2.o) (_DefaultInterrupt)
c:/program files/microchip/xc32/v2.50/bin/bin/../../lib/gcc/pic32mx/4.8.3/../../../../pic32mx/lib\libc.a(calloc.o)
                              build/default/production/_ext/1171490990/initialization.o (calloc)
c:/program files/microchip/xc32/v2.50/bin/bin/../../lib/gcc/pic32mx/4.8.3/../../../../pic32mx/lib\libc.a(ctime.o)
                              build/default/production/_ext/1664057780/asn.o (gmtime)
c:/program files/microchip/xc32/v2.50/bin/bin/../../lib/gcc/pic32mx/4.8.3/../../../../pic32mx/lib\libc.a(ctype.o)
                              build/default/production/_ext/1033058136/tcpip_helpers.o (_ctype)
c:/program files/microchip/xc32/v2.50/bin/bin/../../lib/gcc/pic32mx/4.8.3/../../../../pic32mx/lib\libc.a(ctypef.o)
                              build/default/production/_ext/1033058136/helpers.o (tolower)
c:/program files/microchip/xc32/v2.50/bin/bin/../../lib/gcc/pic32mx/4.8.3/../../../../pic32mx/lib\libc.a(malloc.o)
                              build/default/production/_ext/1171490990/initialization.o (malloc)
c:/program files/microchip/xc32/v2.50/bin/bin/../../lib/gcc/pic32mx/4.8.3/../../../../pic32mx/lib\libc.a(memmove.o)
                              build/default/production/_ext/1664057780/asn.o (memmove)
c:/program files/microchip/xc32/v2.50/bin/bin/../../lib/gcc/pic32mx/4.8.3/../../../../pic32mx/lib\libc.a(rand.o)
                              build/default/production/_ext/1664057780/random.o (srand)
c:/program files/microchip/xc32/v2.50/bin/bin/../../lib/gcc/pic32mx/4.8.3/../../../../pic32mx/lib\libc.a(strncmp.o)
                              build/default/production/_ext/1664057780/ecc.o (strncmp)
c:/program files/microchip/xc32/v2.50/bin/bin/../../lib/gcc/pic32mx/4.8.3/../../../../pic32mx/lib\libc.a(strncpy.o)
                              build/default/production/_ext/732082881/drv_ethmac.o (strncpy)
c:/program files/microchip/xc32/v2.50/bin/bin/../../lib/gcc/pic32mx/4.8.3/../../../../pic32mx/lib\libc.a(strtol.o)
                              build/default/production/_ext/1033058136/tcpip_helpers.o (strtol)
c:/program files/microchip/xc32/v2.50/bin/bin/../../lib/gcc/pic32mx/4.8.3/../../../../pic32mx/lib\libc.a(time.o)
                              build/default/production/_ext/1664057780/asn.o (time)
c:/program files/microchip/xc32/v2.50/bin/bin/../../lib/gcc/pic32mx/4.8.3/../../../../pic32mx/lib\libc.a(snprintf_cdnopsuxX.eo)
                              build/default/production/_ext/1033058136/tcpip_manager.o (_snprintf_cdnopsuxX)
c:/program files/microchip/xc32/v2.50/bin/bin/../../lib/gcc/pic32mx/4.8.3/../../../../pic32mx/lib\libc.a(sprintf_cdnopuxX.eo)
                              build/default/production/_ext/1033058136/tcpip_helpers.o (_sprintf_cdnopuxX)
c:/program files/microchip/xc32/v2.50/bin/bin/../../lib/gcc/pic32mx/4.8.3/../../../../pic32mx/lib\libc.a(vsnprintf_cdnopsuxX.eo)
                              c:/program files/microchip/xc32/v2.50/bin/bin/../../lib/gcc/pic32mx/4.8.3/../../../../pic32mx/lib\libc.a(snprintf_cdnopsuxX.eo) (_vsnprintf_cdnopsuxX)
c:/program files/microchip/xc32/v2.50/bin/bin/../../lib/gcc/pic32mx/4.8.3/../../../../pic32mx/lib\libc.a(errno.o)
                              c:/program files/microchip/xc32/v2.50/bin/bin/../../lib/gcc/pic32mx/4.8.3/../../../../pic32mx/lib\libc.a(strtol.o) (errno)
c:/program files/microchip/xc32/v2.50/bin/bin/../../lib/gcc/pic32mx/4.8.3/../../../../pic32mx/lib\libc.a(doprnt_cdnopsuxX.eo)
                              c:/program files/microchip/xc32/v2.50/bin/bin/../../lib/gcc/pic32mx/4.8.3/../../../../pic32mx/lib\libc.a(vsnprintf_cdnopsuxX.eo) (_vfprintf_cdnopsuxX)
c:/program files/microchip/xc32/v2.50/bin/bin/../../lib/gcc/pic32mx/4.8.3/../../../../pic32mx/lib\libc.a(doprnt_cdnopuxX.eo)
                              c:/program files/microchip/xc32/v2.50/bin/bin/../../lib/gcc/pic32mx/4.8.3/../../../../pic32mx/lib\libc.a(sprintf_cdnopuxX.eo) (_vfprintf_cdnopuxX)
c:/program files/microchip/xc32/v2.50/bin/bin/../../lib/gcc/pic32mx/4.8.3/../../../../pic32mx/lib\libc.a(_fputc_simple.o)
                              c:/program files/microchip/xc32/v2.50/bin/bin/../../lib/gcc/pic32mx/4.8.3/../../../../pic32mx/lib\libc.a(doprnt_cdnopsuxX.eo) (fputc)
c:/program files/microchip/xc32/v2.50/bin/bin/../../lib/gcc/pic32mx/4.8.3/../../../../pic32mx/lib\libc.a(_iob.o)
                              c:/program files/microchip/xc32/v2.50/bin/bin/../../lib/gcc/pic32mx/4.8.3/../../../../pic32mx/lib\libc.a(_fputc_simple.o) (_outdone)
c:/program files/microchip/xc32/v2.50/bin/bin/../../lib/gcc/pic32mx/4.8.3/../../../../pic32mx/lib\libc.a(_flsbuf_simple.o)
                              c:/program files/microchip/xc32/v2.50/bin/bin/../../lib/gcc/pic32mx/4.8.3/../../../../pic32mx/lib\libc.a(_fputc_simple.o) (_flsbuf)
c:/program files/microchip/xc32/v2.50/bin/bin/../../lib/gcc/pic32mx/4.8.3\libgcc.a(_umoddi3.o)
                              c:/program files/microchip/xc32/v2.50/bin/bin/../../lib/gcc/pic32mx/4.8.3/../../../../pic32mx/lib\libc.a(doprnt_cdnopsuxX.eo) (__umoddi3)
c:/program files/microchip/xc32/v2.50/bin/bin/../../lib/gcc/pic32mx/4.8.3/../../../../pic32mx/lib\libpic32.a(sbrk.o)
                              c:/program files/microchip/xc32/v2.50/bin/bin/../../lib/gcc/pic32mx/4.8.3/../../../../pic32mx/lib\libc.a(malloc.o) (sbrk)
c:/program files/microchip/xc32/v2.50/bin/bin/../../lib/gcc/pic32mx/4.8.3/../../../../pic32mx/lib\libpic32.a(write.o)
                              c:/program files/microchip/xc32/v2.50/bin/bin/../../lib/gcc/pic32mx/4.8.3/../../../../pic32mx/lib\libc.a(_fputc_simple.o) (write)

Allocating common symbols
Common symbol       size              file

w2                  0x2               build/default/production/_ext/1360937237/app.o
ipAddr              0x4               build/default/production/_ext/1360937237/app.o
appData             0x8               build/default/production/_ext/1360937237/app.o
xAPP_Tasks          0x4               build/default/production/_ext/1171490990/tasks.o
i                   0x4               build/default/production/_ext/1360937237/app.o
w                   0x2               build/default/production/_ext/1360937237/app.o
sysObj              0xc               build/default/production/_ext/1171490990/initialization.o
PUKCLParam          0x30              build/default/production/_ext/172253694/crypt_pukcl_functions.o
spi4Obj             0x28              build/default/production/_ext/298189674/plib_spi4_master.o
wCurrentChunk       0x2               build/default/production/_ext/1360937237/app.o
netH                0x4               build/default/production/_ext/1360937237/app.o
netName             0x4               build/default/production/_ext/1360937237/app.o
pvPUKCLParam        0x4               build/default/production/_ext/172253694/crypt_pukcl_functions.o
coreTmr             0x8               build/default/production/_ext/1249264884/plib_coretimer.o
spi1Obj             0x28              build/default/production/_ext/298189674/plib_spi1_master.o
AppBuffer           0x21              build/default/production/_ext/1360937237/app.o
nNets               0x4               build/default/production/_ext/1360937237/app.o
wMaxPut             0x2               build/default/production/_ext/1360937237/app.o
initTime            0x4               build/default/production/_ext/1033058136/dhcps.o
wMaxGet             0x2               build/default/production/_ext/1360937237/app.o
netBiosName         0x4               build/default/production/_ext/1360937237/app.o

Microchip PIC32 Memory-Usage Report

kseg0 Program-Memory Usage
section                    address  length [bytes]      (dec)  Description
-------                 ----------  -------------------------  -----------
.text.TCPIP_TCP_Task    0x9d000000         0x150c        5388   
.text._DHCPS_ProcessGet 0x9d00150c          0xf6c        3948   
.text._vfprintf_cdnopsu 0x9d002478          0xc8c        3212   
.text.Transform         0x9d003104          0xa90        2704   
.text._TcpSend          0x9d003b94          0x910        2320   
.text.TCPIP_STACK_Task  0x9d0044a4          0x820        2080   
.text.Hash_DRBG_Generat 0x9d004cc4          0x53c        1340   
.text.DRV_ETHMAC_PIC32M 0x9d005200          0x500        1280   
.text.SPI_4_InterruptHa 0x9d005700          0x4d8        1240   
.text.SPI_1_InterruptHa 0x9d005bd8          0x4d8        1240   
.text.TCPIP_DHCPS_Initi 0x9d0060b0          0x4b0        1200   
.text.TCPIP_ARP_Task    0x9d006560          0x4a0        1184   
.text._TCPIP_DoInitiali 0x9d006a00          0x4a0        1184   
.text.Transform_Sha256  0x9d006ea0          0x470        1136   
.text                   0x9d007310          0x8bc        2236  App's exec code 
.text                   0x9d007bcc          0x454        1108  App's exec code 
.text._TCP_Open         0x9d008020          0x3dc         988   
.text.TCPIP_UDP_Task    0x9d0083fc          0x3bc         956   
.dinit                  0x9d0087b8          0x3a0         928   
.text.TCPIP_IPV4_Task   0x9d008b58          0x380         896   
.text.TCPIP_ARP_Initial 0x9d008ed8          0x37c         892   
.text.TCPIP_ANNOUNCE_Ta 0x9d009254          0x37c         892   
.text._DRV_ETHPHY_Defau 0x9d0095d0          0x344         836   
.text.wc_Sha256Final    0x9d009914          0x340         832   
.text.TCPIP_UDP_Flush   0x9d009c54          0x334         820   
.text.APP_Tasks         0x9d009f88          0x330         816   
.text.TCPIP_UDP_Options 0x9d00a2b8          0x2f0         752   
.text.TCPIP_STACK_Bring 0x9d00a5a8          0x2ec         748   
.text._InitRng          0x9d00a894          0x2d4         724   
.text.xTaskCreate       0x9d00ab68          0x2cc         716   
.text.TCPIP_IPV4_Packet 0x9d00ae34          0x2bc         700   
.text.DRV_MIIM_Tasks    0x9d00b0f0          0x2bc         700   
.text.SPI4_WriteRead    0x9d00b3ac          0x2a0         672   
.text.TCPIP_TCP_ArrayPu 0x9d00b64c          0x2a0         672   
.text.malloc            0x9d00b8ec          0x28c         652   
.text.wc_Sha256Update   0x9d00bb78          0x274         628   
.text._TcpCloseSocket   0x9d00bdec          0x264         612   
.text.TCPIP_IPV4_Packet 0x9d00c050          0x264         612   
.text                   0x9d00c2b4          0x25c         604  App's exec code 
.text.Hash_df           0x9d00c510          0x25c         604   
.text.DRV_ETHMAC_PIC32M 0x9d00c76c          0x24c         588   
.text.xQueueSemaphoreTa 0x9d00c9b8          0x22c         556   
.text.DRV_ETHMAC_LibRxB 0x9d00cbe4          0x218         536   
.text.xQueueGenericSend 0x9d00cdfc          0x20c         524   
.text._UDPOpen          0x9d00d008          0x200         512   
.text.TCPIP_Helper_Stri 0x9d00d208          0x1f8         504   
.text._LoadNetworkConfi 0x9d00d400          0x1f8         504   
.text._TCPIP_HEAP_Free  0x9d00d5f8          0x1f4         500   
.text._UDPv4TxAckFnc    0x9d00d7ec          0x1ec         492   
.text.TCPIP_UDP_Bind    0x9d00d9d8          0x1ec         492   
.text.SYS_TIME_PLIBCall 0x9d00dbc4          0x1e4         484   
.text.TCPIP_UDP_Options 0x9d00dda8          0x1e4         484   
.text.wc_RNG_GenerateBl 0x9d00df8c          0x1e4         484   
.text.wc_Md5Update      0x9d00e170          0x1e0         480   
.text.TCPIP_UDP_Deiniti 0x9d00e350          0x1d8         472   
.text.DRV_ETHMAC_PIC32M 0x9d00e528          0x1cc         460   
.text._Tcpv4TxAckFnc    0x9d00e6f4          0x1cc         460   
.text._EthAckPacket     0x9d00e8c0          0x1bc         444   
.text.TCPIP_ANNOUNCE_In 0x9d00ea7c          0x1bc         444   
.text.TCPIP_DHCPS_Task  0x9d00ec38          0x1b8         440   
.CORE_TIMER_Handler_vec 0x9d00edf0          0x1b4         436   
.TIMER_2_Handler_vector 0x9d00efa4          0x1b4         436   
.SPI_1_Handler_vector_t 0x9d00f158          0x1b4         436   
.SPI_4_Handler_vector_t 0x9d00f30c          0x1b4         436   
.ETH_Handler_vector_tex 0x9d00f4c0          0x1b4         436   
.text.TCPIP_UDP_ArrayGe 0x9d00f674          0x1ac         428   
.rodata                 0x9d00f820          0x1a8         424  Read-only const 
.text._ARPProbeAddress  0x9d00f9c8          0x1a4         420   
.text.wc_Md5Final       0x9d00fb6c          0x1a4         420   
.text                   0x9d00fd10          0x1a0         416  App's exec code 
.text._EthAppendBusyLis 0x9d00feb0          0x19c         412   
.text.TCPIP_TCP_Initial 0x9d01004c          0x198         408   
.text.DRV_EXTPHY_MDIXCo 0x9d0101e4          0x198         408   
.text.xTaskIncrementTic 0x9d01037c          0x198         408   
.text._DRV_ETHMAC_AddRx 0x9d010514          0x194         404   
.text.DRV_ETHMAC_LibRxG 0x9d0106a8          0x194         404   
.text.DRV_MIIM_Setup    0x9d01083c          0x194         404   
.text._sbrk_init        0x9d0109d0          0x194         404   
.text.TCPIP_TCP_ArrayGe 0x9d010b64          0x18c         396   
.text.TCPIP_IPV4_Initia 0x9d010cf0          0x18c         396   
.text.DRV_ETHMAC_LibRxA 0x9d010e7c          0x184         388   
.text.SYS_TIME_HwTimerC 0x9d011000          0x180         384   
.rodata                 0x9d011180          0x180         384  Read-only const 
.text.TCPIP_Helper_Stri 0x9d011300          0x17c         380   
.text._DRV_MIIM_ClientD 0x9d01147c          0x17c         380   
.text.TCPIP_TCP_Deiniti 0x9d0115f8          0x174         372   
.text._DRV_ETHPHY_NegRe 0x9d01176c          0x174         372   
.text.TCPIP_HEAP_Create 0x9d0118e0          0x170         368   
.text.TCPIP_IPV4_ArpHan 0x9d011a50          0x16c         364   
.text._DRV_MIIM_StartOp 0x9d011bbc          0x16c         364   
.text._DRV_ETHPHY_Setup 0x9d011d28          0x168         360   
.text                   0x9d011e90          0x2d0         720  App's exec code 
.text.DRV_ETHMAC_PIC32M 0x9d012160          0x158         344   
.text.DRV_ETHMAC_LibTxS 0x9d0122b8          0x158         344   
.text._ARPSendIfPkt     0x9d012410          0x154         340   
.text.SYS_TIME_Initiali 0x9d012564          0x154         340   
.text.TCPIP_UDP_OpenSer 0x9d0126b8          0x154         340   
.text._DRV_ETHPHY_Setup 0x9d01280c          0x154         340   
.text.Hash_DRBG_Reseed  0x9d012960          0x154         340   
.text._TcpDisconnect    0x9d012ab4          0x150         336   
.text._TCPIP_HEAP_Mallo 0x9d012c04          0x150         336   
.text._TCP_SktSetSequen 0x9d012d54          0x14c         332   
.text.TCPIP_IPV4_DeInit 0x9d012ea0          0x14c         332   
.text.DRV_ETHPHY_Setup  0x9d012fec          0x148         328   
.text.xTaskResumeAll    0x9d013134          0x148         328   
.text.fputc             0x9d01327c          0x144         324   
.text.TCPIP_UDP_Initial 0x9d0133c0          0x140         320   
.text._DHCPS_StartOpera 0x9d013500          0x13c         316   
.text.DRV_MIIM_Operatio 0x9d01363c          0x138         312   
.text.DRV_ETHMAC_PIC32M 0x9d013774          0x134         308   
.text.DRV_ETHMAC_PIC32M 0x9d0138a8          0x130         304   
.text.DRV_ETHMAC_LibDes 0x9d0139d8          0x130         304   
.text._GetMaxSegSizeOpt 0x9d013b08          0x130         304   
.text._ARPDeleteResourc 0x9d013c38          0x130         304   
.text.SYS_TIME_TimerObj 0x9d013d68          0x130         304   
.text._DRV_PHY_SMITrans 0x9d013e98          0x130         304   
.text._flsbuf           0x9d013fc8          0x12c         300   
.text.xTaskPriorityInhe 0x9d0140f4          0x128         296   
.text._OAHashFindBkt    0x9d01421c          0x124         292   
.rodata                 0x9d014340          0x120         288  Read-only const 
.text.TCPIP_ARP_IsResol 0x9d014460          0x120         288   
.text.TCPIP_Helper_Pack 0x9d014580          0x120         288   
.text                   0x9d0146a0          0x120         288  App's exec code 
.text.DRV_ETHMAC_PIC32M 0x9d0147c0          0x11c         284   
.text.TCPIP_UDP_RemoteB 0x9d0148dc          0x11c         284   
.text._MACDeinit        0x9d0149f8          0x118         280   
.text.TCPIP_Helper_Pack 0x9d014b10          0x118         280   
.text.DRV_MIIM_Initiali 0x9d014c28          0x118         280   
.text._MacRxPacketAck   0x9d014d40          0x114         276   
.text.TCPIP_TCP_ServerO 0x9d014e54          0x114         276   
.text.SYS_TIME_AddToLis 0x9d014f68          0x114         276   
.text.TCPIP_STACK_KillS 0x9d01507c          0x114         276   
.text.DRV_MIIM_Open     0x9d015190          0x114         276   
.text._TCPIPStackModule 0x9d0152a4          0x110         272   
.text._UDPv4AllocateSkt 0x9d0153b4          0x108         264   
.text._UDPsetPacketInfo 0x9d0154bc          0x104         260   
.rodata                 0x9d0155c0          0x104         260  Read-only const 
.text.DRV_ETHMAC_Tasks_ 0x9d0156c4          0x100         256   
.text.wc_RNG_HealthTest 0x9d0157c4          0x100         256   
.rodata                 0x9d0158c4          0x100         256  Read-only const 
.text.prvUnlockQueue    0x9d0159c4          0x100         256   
.text.SYS_Initialize    0x9d015ac4           0xf8         248   
.text.DRV_ETHMAC_LibIni 0x9d015bbc           0xf8         248   
.text.DRV_ETHMAC_LibMAC 0x9d015cb4           0xf8         248   
.text.TCPIP_UDP_Disconn 0x9d015dac           0xf8         248   
.text._DRV_ETHPHY_NegCo 0x9d015ea4           0xf8         248   
.text._DRV_ETHPHY_Setup 0x9d015f9c           0xf8         248   
.rodata                 0x9d016094           0xf8         248  Read-only const 
.text.xTaskPriorityDisi 0x9d01618c           0xf8         248   
.text._TCPIP_PKT_Packet 0x9d016284           0xf4         244   
.text._DRV_ETHPHY_Reset 0x9d016378           0xf4         244   
.text.prvCopyDataToQueu 0x9d01646c           0xf4         244   
.text.vTaskPriorityDisi 0x9d016560           0xf4         244   
.text.DRV_ETHMAC_PIC32M 0x9d016654           0xec         236   
.text._DHCPSAddComplete 0x9d016740           0xe8         232   
.text._TCPIP_StackSyncF 0x9d016828           0xe8         232   
.text.Hash_DRBG_Instant 0x9d016910           0xe4         228   
.text.prvAddCurrentTask 0x9d0169f4           0xe4         228   
.text._TcpAbort         0x9d016ad8           0xe0         224   
.text.TCPIP_OAHASH_Entr 0x9d016bb8           0xe0         224   
.text.TCPIP_STACK_Bring 0x9d016c98           0xe0         224   
.text.vTaskSwitchContex 0x9d016d78           0xe0         224   
.text.general_exception 0x9d016e58           0xdc         220   
.text._ARPUpdateEntry   0x9d016f34           0xd8         216   
.text._DRV_ETHPHY_NegRe 0x9d01700c           0xd8         216   
.text._DRV_ETHPHY_Setup 0x9d0170e4           0xd8         216   
.text.wc_CryptoCb_Sha25 0x9d0171bc           0xd8         216   
.text._MacTxPendingPack 0x9d017294           0xd4         212   
.text._DRV_ETHMAC_LinkS 0x9d017368           0xd0         208   
.text.DRV_ETHPHY_Open   0x9d017438           0xd0         208   
.text.wc_GenerateSeed   0x9d017508           0xd0         208   
.rodata                 0x9d0175d8           0xd0         208  Read-only const 
.text.TCPIP_OAHASH_Entr 0x9d0176a8           0xc8         200   
.text._sbrk             0x9d017770           0xc8         200   
.text.TCPIP_UDP_SocketI 0x9d017838           0xc4         196   
.text.wc_CryptoCb_Rando 0x9d0178fc           0xc0         192   
.text.xQueueGenericRese 0x9d0179bc           0xc0         192   
.text.TCPIP_DHCPS_HashD 0x9d017a7c           0xbc         188   
.text.TCPIP_UDP_ArrayPu 0x9d017b38           0xbc         188   
.text.xTaskRemoveFromEv 0x9d017bf4           0xbc         188   
.text.TCPIP_PKT_DataSeg 0x9d017cb0           0xb8         184   
.text._DRV_ETHPHY_NegCo 0x9d017d68           0xb8         184   
.text.wc_InitSha256_ex  0x9d017e20           0xb8         184   
.text.DRV_ETHMAC_PIC32M 0x9d017ed8           0xb4         180   
.text._EthTxSchedBuffer 0x9d017f8c           0xb4         180   
.text._ARPNotifyClients 0x9d018040           0xb4         180   
.text.SYS_TIME_TimerSta 0x9d0180f4           0xb4         180   
.text._DHCPSrvClose     0x9d0181a8           0xb4         180   
.text._TCPIPStackInsert 0x9d01825c           0xb4         180   
.text.OSAL_SEM_Create   0x9d018310           0xb4         180   
.text.TCPIP_UDP_BcastIP 0x9d0183c4           0xb4         180   
.text.DRV_MIIM_Operatio 0x9d018478           0xb4         180   
.text.DRV_ETHPHY_Vendor 0x9d01852c           0xb4         180   
.text._DRV_ETHMAC_LinkS 0x9d0185e0           0xb0         176   
.text.DRV_ETHMAC_LibTxA 0x9d018690           0xb0         176   
.text.SYS_TIME_Callback 0x9d018740           0xb0         176   
.text.TCPIP_IPV4_Select 0x9d0187f0           0xb0         176   
.text.TCPIP_STACK_Initi 0x9d0188a0           0xb0         176   
.text.DRV_ETHPHY_Vendor 0x9d018950           0xb0         176   
.text.pvPortMalloc      0x9d018a00           0xb0         176   
.text.TCPIP_IPV4_Select 0x9d018ab0           0xac         172   
.text.DRV_ETHMAC_PIC32M 0x9d018b5c           0xa8         168   
.text.TCPIP_PKT_PacketM 0x9d018c04           0xa8         168   
.text                   0x9d018cac           0xa8         168  App's exec code 
.text._TCPIPStackModule 0x9d018d54           0xa4         164   
.text.DRV_ETHPHY_Vendor 0x9d018df8           0xa4         164   
.text.DRV_ETHPHY_Initia 0x9d018e9c           0xa4         164   
.text._DRV_ETHPHY_LinkS 0x9d018f40           0xa4         164   
.text.xTaskCheckForTime 0x9d018fe4           0xa4         164   
.text._TcpClientSocketC 0x9d019088           0xa0         160   
.text._TCPSendWinIncUpd 0x9d019128           0xa0         160   
.text.TCPIP_Helper_Sing 0x9d0191c8           0xa0         160   
.text.TCPIP_UDP_SignalH 0x9d019268           0xa0         160   
.text._DRV_ETHPHY_Reset 0x9d019308           0xa0         160   
.text.prvIdleTask       0x9d0193a8           0xa0         160   
.text._DRV_ETHMAC_LinkS 0x9d019448           0x9c         156   
.text.DHCPSLocateReques 0x9d0194e4           0x9c         156   
.text._TCPIPStackModule 0x9d019580           0x9c         156   
.text.Helper_SingleList 0x9d01961c           0x9c         156   
.text.wc_CryptoCb_FindD 0x9d0196b8           0x9c         156   
.text.wc_RNG_TestSeed   0x9d019754           0x9c         156   
.text.write             0x9d0197f0           0x9c         156   
.text.DRV_ETHMAC_LibDes 0x9d01988c           0x98         152   
.text._TcpCleanup       0x9d019924           0x98         152   
.text.TCPIP_Helper_Form 0x9d0199bc           0x98         152   
.text.SYS_Tasks         0x9d019a54           0x98         152   
.text._UDPSetNewRxPacke 0x9d019aec           0x98         152   
.text.TCPIP_UDP_Destina 0x9d019b84           0x98         152   
.text._DRV_MIIM_GetClie 0x9d019c1c           0x98         152   
.text                   0x9d019cb4           0x98         152  App's exec code 
.text._DRV_ETHMAC_LinkS 0x9d019d4c           0x94         148   
.text._EthTxSchedList   0x9d019de0           0x94         148   
.text.TCPIP_ARP_Deiniti 0x9d019e74           0x94         148   
.text.TCPIP_ARP_EntryGe 0x9d019f08           0x94         148   
.text.SYS_TIME_RemoveFr 0x9d019f9c           0x94         148   
.text._TCPIPStackIpAddF 0x9d01a030           0x94         148   
.text.DRV_ETHMAC_LibClo 0x9d01a0c4           0x90         144   
.rodata                 0x9d01a154           0x90         144  Read-only const 
.text._DRV_MIIM_Release 0x9d01a1e4           0x90         144   
.text.SPI4_Initialize   0x9d01a274           0x8c         140   
.text.SPI1_Initialize   0x9d01a300           0x8c         140   
.text._TCPIPStackSetCon 0x9d01a38c           0x8c         140   
.text.TCPIP_UDP_TxOffse 0x9d01a418           0x8c         140   
.text.TCPIP_UDP_PutIsRe 0x9d01a4a4           0x8c         140   
.text._DRV_ETHPHY_NegCo 0x9d01a530           0x8c         140   
.text._DRV_ETHPHY_Setup 0x9d01a5bc           0x8c         140   
.text.rand              0x9d01a648           0x8c         140   
.text.SYS_TIME_TimerAdd 0x9d01a6d4           0x88         136   
.text.hexatob           0x9d01a75c           0x88         136   
.text._TCPIP_SelectDefa 0x9d01a7e4           0x88         136   
.text.TCPIP_UDP_SourceI 0x9d01a86c           0x88         136   
.text._DRV_PHY_SMITrans 0x9d01a8f4           0x88         136   
.text._TcpSwapHeader    0x9d01a97c           0x84         132   
.text.TCPIP_IPV4_Cleanu 0x9d01aa00           0x84         132   
.text.TCPIP_DHCPS_Enabl 0x9d01aa84           0x84         132   
.text._TCPIP_HEAP_MaxSi 0x9d01ab08           0x84         132   
.text._FieldSetMacName  0x9d01ab8c           0x84         132   
.text                   0x9d01ac10           0x84         132  App's exec code 
.text._vsnprintf_cdnops 0x9d01ac94           0x84         132   
.text._TcpSocketKill    0x9d01ad18           0x80         128   
.text.SYS_TIME_TimerDes 0x9d01ad98           0x80         128   
.text._DHCPServerCleanu 0x9d01ae18           0x80         128   
.text.TCPIP_DHCPS_CopyD 0x9d01ae98           0x80         128   
.text._TCPIP_HEAP_Delet 0x9d01af18           0x80         128   
.text.TCPIP_STACK_Addre 0x9d01af98           0x80         128   
.text._FieldSetHostName 0x9d01b018           0x80         128   
.text.DRV_MIIM_Register 0x9d01b098           0x80         128   
.text._DRV_ETHPHY_Setup 0x9d01b118           0x80         128   
.text._TCP_EphemeralPor 0x9d01b198           0x7c         124   
.text.TCPIP_DHCPS_GetAr 0x9d01b214           0x7c         124   
.text.TCPIP_Helper_Stri 0x9d01b290           0x7c         124   
.text._TCPIP_MacEventCB 0x9d01b30c           0x7c         124   
.text._TCPIPStackModule 0x9d01b388           0x7c         124   
.text.TCPIP_Notificatio 0x9d01b404           0x7c         124   
.text._UDPAllocateEphem 0x9d01b480           0x7c         124   
.text._DRV_ETHPHY_Setup 0x9d01b4fc           0x7c         124   
.text._DRV_ETHPHY_NegRe 0x9d01b578           0x7c         124   
.text.TCPIP_TCP_Close   0x9d01b5f4           0x78         120   
.text.SYS_TIME_Counter6 0x9d01b66c           0x78         120   
.text._TCPIP_PKT_Packet 0x9d01b6e4           0x78         120   
.text.TCPIP_ANNOUNCE_De 0x9d01b75c           0x78         120   
.text._TxSktGetLockedV4 0x9d01b7d4           0x78         120   
.text._DRV_ETHPHY_Setup 0x9d01b84c           0x78         120   
.text._DRV_ETHPHY_NegCo 0x9d01b8c4           0x78         120   
.text._DRV_ETHPHY_Setup 0x9d01b93c           0x78         120   
.text._DRV_ETHPHY_Setup 0x9d01b9b4           0x78         120   
.text.vTaskStartSchedul 0x9d01ba2c           0x78         120   
.text.DRV_ETHMAC_PIC32M 0x9d01baa4           0x74         116   
.text.SYS_TIME_UpdateTi 0x9d01bb18           0x74         116   
.text._TCPIPStackAnyNet 0x9d01bb8c           0x74         116   
.text._TCPIPStackSignal 0x9d01bc00           0x74         116   
.text._DRV_PHY_SMIReadS 0x9d01bc74           0x74         116   
.text._DRV_PHY_SMIWrite 0x9d01bce8           0x74         116   
.text.xQueueGenericCrea 0x9d01bd5c           0x74         116   
.text.strncpy           0x9d01bdd0           0x74         116   
.text._MacRxFreeCallbac 0x9d01be44           0x70         112   
.text._EnetPoolFreeDcpt 0x9d01beb4           0x70         112   
.text._TcpSocketSetSour 0x9d01bf24           0x70         112   
.text._ARPSetEntry      0x9d01bf94           0x70         112   
.text.TCPIP_Helper_Prot 0x9d01c004           0x70         112   
.text.TCPIP_STACK_IsBca 0x9d01c074           0x70         112   
.text._UDPClose         0x9d01c0e4           0x70         112   
.text.TCPIP_STACK_Match 0x9d01c154           0x6c         108   
.text._TCPIP_PKT_Socket 0x9d01c1c0           0x6c         108   
.text._TCPIP_AnnounceCl 0x9d01c22c           0x6c         108   
.text.TCPIP_UDP_SocketN 0x9d01c298           0x6c         108   
.text.DRV_MIIM_Deinitia 0x9d01c304           0x6c         108   
.text._DRV_ETHPHY_LinkS 0x9d01c370           0x6c         108   
.text.vApplicationSetup 0x9d01c3dc           0x6c         108   
.text._MacTxFreeCallbac 0x9d01c448           0x68         104   
.text.DRV_ETHMAC_PIC32M 0x9d01c4b0           0x68         104   
.text.TCPIP_ARP_HashEnt 0x9d01c518           0x68         104   
.text.SYS_TIME_GetTimer 0x9d01c580           0x68         104   
.text.TCPIP_Helper_Prot 0x9d01c5e8           0x68         104   
.text._TCPIPSignalEntry 0x9d01c650           0x68         104   
.text.SYS_RANDOM_Crypto 0x9d01c6b8           0x68         104   
.text.TCPIP_ARP_Handler 0x9d01c720           0x64         100   
.text.CORETIMER_Start   0x9d01c784           0x64         100   
.text._TCPIPStackModule 0x9d01c7e8           0x64         100   
.text.wc_CryptoCb_Regis 0x9d01c84c           0x64         100   
.text.TCPIP_DHCPS_Deini 0x9d01c8b0           0x60          96   
.text.TCPIP_OAHASH_Entr 0x9d01c910           0x60          96   
.rodata                 0x9d01c970           0x60          96  Read-only const 
.text.TCPIP_Helper_Prot 0x9d01c9d0           0x60          96   
.text.TCPIP_Helper_Prot 0x9d01ca30           0x60          96   
.text._UDPUpdatePacketL 0x9d01ca90           0x60          96   
.text.TCPIP_UDP_GetIsRe 0x9d01caf0           0x60          96   
.text._DRV_MIIM_GetObje 0x9d01cb50           0x60          96   
.text._DRV_ETHPHY_Clien 0x9d01cbb0           0x60          96   
.text._DRV_ETHPHY_Clien 0x9d01cc10           0x60          96   
.text._DRV_ETHPHY_Clien 0x9d01cc70           0x60          96   
.text._DRV_ETHPHY_Clien 0x9d01ccd0           0x60          96   
.text._DRV_ETHPHY_Clien 0x9d01cd30           0x60          96   
.text._DRV_ETHPHY_Setup 0x9d01cd90           0x60          96   
.text.wc_CryptoCb_FindD 0x9d01cdf0           0x60          96   
.text.vListInsert       0x9d01ce50           0x60          96   
.text.vTaskExitCritical 0x9d01ceb0           0x60          96   
.text._MacTxDiscardQueu 0x9d01cf10           0x5c          92   
.text._TCPSocketTxFreeS 0x9d01cf6c           0x5c          92   
.text.SYS_TIME_Resource 0x9d01cfc8           0x5c          92   
.text.fnv_32_hash       0x9d01d024           0x5c          92   
.text.TCPIP_STACK_NetBy 0x9d01d080           0x5c          92   
.text._FieldSetMacAddr  0x9d01d0dc           0x5c          92   
.text.DRV_ETHPHY_LinkSt 0x9d01d138           0x5c          92   
.text.DRV_ETHPHY_Negoti 0x9d01d194           0x5c          92   
.text._DRV_ETHPHY_Clien 0x9d01d1f0           0x5c          92   
.text.wc_InitMd5_ex     0x9d01d24c           0x5c          92   
.text.xPortStartSchedul 0x9d01d2a8           0x5c          92   
.text.DRV_ETHMAC_PIC32M 0x9d01d304           0x58          88   
.text._DRV_ETHMAC_LinkS 0x9d01d35c           0x58          88   
.text._TCP_PortIsAvaila 0x9d01d3b4           0x58          88   
.text.TCPIP_IPV4_CheckP 0x9d01d40c           0x58          88   
.text.TCPIP_Helper_Prot 0x9d01d464           0x58          88   
.text.TCPIP_Notificatio 0x9d01d4bc           0x58          88   
.text.SYS_INT_SourceDis 0x9d01d514           0x58          88   
.text.xQueueCreateMutex 0x9d01d56c           0x58          88   
.text.vTaskDelay        0x9d01d5c4           0x58          88   
.text.DRV_ETHMAC_PIC32M 0x9d01d61c           0x54          84   
.text._EnetDescriptorsC 0x9d01d670           0x54          84   
.text._TCPSetSourceAddr 0x9d01d6c4           0x54          84   
.text.TCPIP_PKT_Initial 0x9d01d718           0x54          84   
.text._TCPIP_PKT_Packet 0x9d01d76c           0x54          84   
.text._UDPFreeTxResourc 0x9d01d7c0           0x54          84   
.text.DRV_MIIM_Deregist 0x9d01d814           0x54          84   
.text._DRV_PHY_SMITrans 0x9d01d868           0x54          84   
.text._DRV_ETHPHY_NegRe 0x9d01d8bc           0x54          84   
.text._DRV_ETHPHY_NegRe 0x9d01d910           0x54          84   
.text.wc_RNG_HealthTest 0x9d01d964           0x54          84   
.text.pxPortInitialiseS 0x9d01d9b8           0x54          84   
.text.vPortIncrementTic 0x9d01da0c           0x54          84   
.text.main_entry        0x9d01da60           0x54          84   
.text._MACTxPacketAckCa 0x9d01dab4           0x50          80   
.text._XtlEventsTcp2Eth 0x9d01db04           0x50          80   
.text._TCPSetHalfFlushF 0x9d01db54           0x50          80   
.text._TcpFlush         0x9d01dba4           0x50          80   
.text.TCPIP_UDP_Close   0x9d01dbf4           0x50          80   
.rodata                 0x9d01dc44           0x50          80  Read-only const 
.text.sbrk              0x9d01dc94           0x50          80   
.text.TCPIP_STACK_Init  0x9d01dce4           0x4c          76   
.text._ARPRemoveCacheEn 0x9d01dd30           0x4c          76   
.text._TCPIP_HEAP_Callo 0x9d01dd7c           0x4c          76   
.text.TCPIP_Helper_Prot 0x9d01ddc8           0x4c          76   
.text.TCPIP_STACK_Index 0x9d01de14           0x4c          76   
.text.TCPIP_STACK_IPAdd 0x9d01de60           0x4c          76   
.text.TCPIP_STACK_MACId 0x9d01deac           0x4c          76   
.text._TCPIPStackSignal 0x9d01def8           0x4c          76   
.text.TCPIP_Notificatio 0x9d01df44           0x4c          76   
.text.TCPIP_UDP_Discard 0x9d01df90           0x4c          76   
.text.DRV_ETHPHY_Close  0x9d01dfdc           0x4c          76   
.text.DRV_ETHPHY_Reset  0x9d01e028           0x4c          76   
.text.DRV_ETHPHY_Negoti 0x9d01e074           0x4c          76   
.text._DRV_PHY_NegCompl 0x9d01e0c0           0x4c          76   
.text.uxListRemove      0x9d01e10c           0x4c          76   
.text.calloc            0x9d01e158           0x4c          76   
.text.TCPIP_ARP_Handler 0x9d01e1a4           0x48          72   
.text._DHCPS_ValidatePk 0x9d01e1ec           0x48          72   
.text.TCPIP_HEAP_Create 0x9d01e234           0x48          72   
.text.TCPIP_Helper_Sing 0x9d01e27c           0x48          72   
.text._TCPIP_STACK_Tick 0x9d01e2c4           0x48          72   
.text.TCPIP_STACK_NetIs 0x9d01e30c           0x48          72   
.text.SYS_TMR_TickCount 0x9d01e354           0x48          72   
.text.OSAL_CRIT_Enter   0x9d01e39c           0x48          72   
.text._UDPIsAvailablePo 0x9d01e3e4           0x48          72   
.text.DRV_ETHPHY_Tasks  0x9d01e42c           0x48          72   
.text.DRV_ETHPHY_Reinit 0x9d01e474           0x48          72   
.text.DRV_ETHPHY_Restar 0x9d01e4bc           0x48          72   
.text.vTaskEnterCritica 0x9d01e504           0x48          72   
.vector_default         0x9d01e54c           0x48          72   
.text.EVIC_Initialize   0x9d01e594           0x44          68   
.text.GPIO_Initialize   0x9d01e5d8           0x44          68   
.text.TCPIP_TCP_IsConne 0x9d01e61c           0x44          68   
.text._SwapARPPacket    0x9d01e660           0x44          68   
.text.SYS_TIME_Resource 0x9d01e6a4           0x44          68   
.text.SYS_TMR_TickCount 0x9d01e6e8           0x44          68   
.text.OSAL_CRIT_Leave   0x9d01e72c           0x44          68   
.text.TCPIP_UDP_TxPoint 0x9d01e770           0x44          68   
.text                   0x9d01e7b4           0x44          68  App's exec code 
.text.TIMER_2_Interrupt 0x9d01e7f8           0x40          64   
.text.TCPIP_TCP_PutIsRe 0x9d01e838           0x40          64   
.text.CORE_TIMER_Interr 0x9d01e878           0x40          64   
.text._TCPIPSignalEntry 0x9d01e8b8           0x40          64   
.text._UDPFreeRxQueue   0x9d01e8f8           0x40          64   
.text._DRV_ETHPHY_Reset 0x9d01e938           0x40          64   
.text._DRV_ETHPHY_Setup 0x9d01e978           0x40          64   
.text.Hash_DRBG_Uninsta 0x9d01e9b8           0x40          64   
.text.CRYPT_MD5_DataAdd 0x9d01e9f8           0x40          64   
.text.CRYPT_MD5_Finaliz 0x9d01ea38           0x40          64   
.text.CRYPT_RNG_BlockGe 0x9d01ea78           0x40          64   
.text.TMR2_Initialize   0x9d01eab8           0x3c          60   
.text._DRV_ETHMAC_LinkS 0x9d01eaf4           0x3c          60   
.text.DRV_ETHMAC_Single 0x9d01eb30           0x3c          60   
.text._TCPIsGetReady    0x9d01eb6c           0x3c          60   
.text._ARPTxAckFnc      0x9d01eba8           0x3c          60   
.text.TCPIP_ARP_HashKey 0x9d01ebe4           0x3c          60   
.text._DHCPSUpdateEntry 0x9d01ec20           0x3c          60   
.text.TCPIP_DHCPS_MACHa 0x9d01ec5c           0x3c          60   
.text.TCPIP_OAHASH_Init 0x9d01ec98           0x3c          60   
.text.TCPIP_Helper_Sing 0x9d01ecd4           0x3c          60   
.text._TCPIPStackPacket 0x9d01ed10           0x3c          60   
.text.SYS_RANDOM_Crypto 0x9d01ed4c           0x3c          60   
.text.SYS_RANDOM_Crypto 0x9d01ed88           0x3c          60   
.text.OSAL_MUTEX_Create 0x9d01edc4           0x3c          60   
.text._UDPTxPktValid    0x9d01ee00           0x3c          60   
.text.DRV_MIIM_Status   0x9d01ee3c           0x3c          60   
.text.Helper_SingleList 0x9d01ee78           0x3c          60   
.text.DRV_MIIM_Close    0x9d01eeb4           0x3c          60   
.text._DRV_ETHPHY_NegCo 0x9d01eef0           0x3c          60   
.text._DRV_ETHPHY_LinkS 0x9d01ef2c           0x3c          60   
.text._DRV_ETHPHY_NegRe 0x9d01ef68           0x3c          60   
.text._DRV_ETHPHY_NegCo 0x9d01efa4           0x3c          60   
.text._DRV_ETHPHY_NegRe 0x9d01efe0           0x3c          60   
.text.uxPortSetInterrup 0x9d01f01c           0x3c          60   
.text.DRV_ETHMAC_LibDes 0x9d01f058           0x38          56   
.text.DRV_ETHMAC_LibRxP 0x9d01f090           0x38          56   
.text.DRV_ETHMAC_LibRxS 0x9d01f0c8           0x38          56   
.text.DRV_ETHMAC_LibTxP 0x9d01f100           0x38          56   
.text._TcpSocketChk     0x9d01f138           0x38          56   
.text._ARPAllocateTxPac 0x9d01f170           0x38          56   
.text.SYS_TIME_GetElaps 0x9d01f1a8           0x38          56   
.text.TCPIP_PKT_Payload 0x9d01f1e0           0x38          56   
.text._FieldSetIpv4Addr 0x9d01f218           0x38          56   
.text._UDPSocketDcpt    0x9d01f250           0x38          56   
.text.prvResetNextTaskU 0x9d01f288           0x38          56   
.text.vTaskPlaceOnEvent 0x9d01f2c0           0x38          56   
.text.DRV_ETH_MACSetAdd 0x9d01f2f8           0x34          52   
.text.DRV_ETH_MACGetAdd 0x9d01f32c           0x34          52   
.text.TCPIP_TCP_GetIsRe 0x9d01f360           0x34          52   
.text.SYS_TIME_Counter6 0x9d01f394           0x34          52   
.text.SYS_TIME_MSToCoun 0x9d01f3c8           0x34          52   
.text.CORETIMER_Stop    0x9d01f3fc           0x34          52   
.text.TCPIP_DHCPS_GetDa 0x9d01f430           0x34          52   
.text.TCPIP_Helper_Prot 0x9d01f464           0x34          52   
.text.TCPIP_Helper_Prot 0x9d01f498           0x34          52   
.text.TCPIP_STACK_NetAd 0x9d01f4cc           0x34          52   
.text.TCPIP_STACK_Addre 0x9d01f500           0x34          52   
.text.TCPIP_STACK_NetAd 0x9d01f534           0x34          52   
.text._TCPIPStackHandle 0x9d01f568           0x34          52   
.text.TCPIP_STACK_NetIs 0x9d01f59c           0x34          52   
.text.DRV_ETHPHY_PhyAdd 0x9d01f5d0           0x34          52   
.text.DRV_ETHPHY_Client 0x9d01f604           0x34          52   
.text.CRYPT_MD5_Initial 0x9d01f638           0x34          52   
.text.vListInsertEnd    0x9d01f66c           0x34          52   
.text.prvIsQueueEmpty   0x9d01f6a0           0x34          52   
.text.xQueueCreateCount 0x9d01f6d4           0x34          52   
.text._MacCallocCallbac 0x9d01f708           0x30          48   
.text.DRV_ETHMAC_PIC32M 0x9d01f738           0x30          48   
.text.DRV_ETHMAC_Single 0x9d01f768           0x30          48   
.text.DRV_ETH_RxSetBuff 0x9d01f798           0x30          48   
.text.TCPIP_DHCPSSocket 0x9d01f7c8           0x30          48   
.text._TCPIP_HEAP_FreeS 0x9d01f7f8           0x30          48   
.text.TCPIP_OAHASH_Entr 0x9d01f828           0x30          48   
.text.TCPIP_Helper_Sing 0x9d01f858           0x30          48   
.text.TCPIP_STACK_NetAd 0x9d01f888           0x30          48   
.text.TCPIP_STACK_Netwo 0x9d01f8b8           0x30          48   
.text.SYS_TMR_CallbackP 0x9d01f8e8           0x30          48   
.text.OSAL_SEM_Delete   0x9d01f918           0x30          48   
.text.OSAL_SEM_Pend     0x9d01f948           0x30          48   
.text.OSAL_SEM_Post     0x9d01f978           0x30          48   
.text.OSAL_MUTEX_Lock   0x9d01f9a8           0x30          48   
.text.OSAL_MUTEX_Unlock 0x9d01f9d8           0x30          48   
.rodata                 0x9d01fa08           0x30          48  Read-only const 
.text._TCPIP_AnnounceSo 0x9d01fa38           0x30          48   
.text.Helper_SingleList 0x9d01fa68           0x30          48   
.text.DRV_MIIM_Read     0x9d01fa98           0x30          48   
.text.DRV_MIIM_Write    0x9d01fac8           0x30          48   
.text.DRV_MIIM_Scan     0x9d01faf8           0x30          48   
.text.DRV_ETHPHY_HWConf 0x9d01fb28           0x30          48   
.text.DRV_ETHPHY_Vendor 0x9d01fb58           0x30          48   
.text.wc_InitMd5        0x9d01fb88           0x30          48   
.text.CRYPT_RNG_Initial 0x9d01fbb8           0x30          48   
.text.free              0x9d01fbe8           0x30          48   
.text.TCPIP_TCP_WasDisc 0x9d01fc18           0x2c          44   
.text.CORETIMER_Initial 0x9d01fc44           0x2c          44   
.text.TCPIP_IPV4_MaxDat 0x9d01fc70           0x2c          44   
.text._DHCPSRemoveCache 0x9d01fc9c           0x2c          44   
.text.TCPIP_OAHASH_Entr 0x9d01fcc8           0x2c          44   
.text.TCPIP_STACK_NetNa 0x9d01fcf4           0x2c          44   
.text.TCPIP_Notificatio 0x9d01fd20           0x2c          44   
.text._SYS_RANDOM_Crypt 0x9d01fd4c           0x2c          44   
.text._TCPIP_STACK_Task 0x9d01fd78           0x2c          44   
.text._DRV_MIIM_Task    0x9d01fda4           0x2c          44   
.text.wc_InitRng        0x9d01fdd0           0x2c          44   
.text._stub_sbd_memlayo 0x9d01fdfc           0x2c          44   
.text.EVIC_SourceEnable 0x9d01fe28           0x28          40   
.text.EVIC_SourceDisabl 0x9d01fe50           0x28          40   
.text.EVIC_SourceStatus 0x9d01fe78           0x28          40   
.text.TCPIP_DHCPS_HashM 0x9d01fea0           0x28          40   
.text._TCPIP_HEAP_Size  0x9d01fec8           0x28          40   
.text._TCPIP_HEAP_HighW 0x9d01fef0           0x28          40   
.text._TCPIP_HEAP_LastE 0x9d01ff18           0x28          40   
.text.TCPIP_STACK_NetUp 0x9d01ff40           0x28          40   
.text._TCPIPStackSignal 0x9d01ff68           0x28          40   
.text.SYS_INT_SourceRes 0x9d01ff90           0x28          40   
.text._FieldSetTruncate 0x9d01ffb8           0x28          40   
.text.TCPIP_UDP_SocketN 0x9d01ffe0           0x28          40   
.text.DRV_MIIM_ClientSt 0x9d020008           0x28          40   
.text.CRYPT_WCCB_Initia 0x9d020030           0x28          40   
.text.pvTaskIncrementMu 0x9d020058           0x28          40   
.text._snprintf_cdnopsu 0x9d020080           0x28          40   
.text.EVIC_SourceIsEnab 0x9d0200a8           0x24          36   
.text.EVIC_INT_Restore  0x9d0200cc           0x24          36   
.text._general_exceptio 0x9d0200f0           0x24          36   
.text._bootstrap_except 0x9d020114           0x24          36   
.text.DRV_ETHMAC_PIC32M 0x9d020138           0x24          36   
.text._TCP_TxPktValid   0x9d02015c           0x24          36   
.text.TCPIP_DHCPS_DataC 0x9d020180           0x24          36   
.text.TCPIP_DHCPS_HashM 0x9d0201a4           0x24          36   
.text.TCPIP_DHCPS_IsEna 0x9d0201c8           0x24          36   
.rodata                 0x9d0201ec           0x24          36  Read-only const 
.text.vApplicationStack 0x9d020210           0x24          36   
.text.vApplicationMallo 0x9d020234           0x24          36   
.text.vListInitialise   0x9d020258           0x24          36   
.text.prvTaskExitError  0x9d02027c           0x24          36   
.text.toupper           0x9d0202a0           0x24          36   
.text.EVIC_INT_Disable  0x9d0202c4           0x20          32   
.text.SPI4_Write        0x9d0202e4           0x20          32   
.text.main              0x9d020304           0x20          32   
.text.DRV_ETHMAC_PIC32M 0x9d020324           0x20          32   
.text.TCPIP_HEAP_Malloc 0x9d020344           0x20          32   
.text.TCPIP_HEAP_Calloc 0x9d020364           0x20          32   
.text.TCPIP_HEAP_FreeOu 0x9d020384           0x20          32   
.text.TCPIP_STACK_Addre 0x9d0203a4           0x20          32   
.text.sy_time_h2_adapte 0x9d0203c4           0x20          32   
.text.CLK_Initialize    0x9d0203e4           0x1c          28   
.text.CORE_TIMER_Handle 0x9d020400           0x1c          28   
.text.TIMER_2_Handler   0x9d02041c           0x1c          28   
.text.SPI_1_Handler     0x9d020438           0x1c          28   
.text.SPI_4_Handler     0x9d020454           0x1c          28   
.text.ETH_Handler       0x9d020470           0x1c          28   
.text._DRV_ETHMAC_GetMC 0x9d02048c           0x1c          28   
.text._DRV_ETHMAC_GetSC 0x9d0204a8           0x1c          28   
.text._DRV_ETHMAC_GetAl 0x9d0204c4           0x1c          28   
.text._DRV_ETHMAC_GetFr 0x9d0204e0           0x1c          28   
.text._DRV_ETHMAC_GetFr 0x9d0204fc           0x1c          28   
.text._DRV_ETHMAC_GetFr 0x9d020518           0x1c          28   
.text._DRV_ETHMAC_GetFr 0x9d020534           0x1c          28   
.text._DRV_ETHMAC_GetFr 0x9d020550           0x1c          28   
.text.ETHERNET_Interrup 0x9d02056c           0x1c          28   
.text.DRV_ETH_NonBackTo 0x9d020588           0x1c          28   
.text.DRV_ETH_MIIMReadS 0x9d0205a4           0x1c          28   
.text.SYS_TIME_CounterG 0x9d0205c0           0x1c          28   
.text.CORETIMER_Compare 0x9d0205dc           0x1c          28   
.text.TCPIP_Helper_Chec 0x9d0205f8           0x1c          28   
.text.TCPIP_STACK_Gatew 0x9d020614           0x1c          28   
.text.TCPIP_Notificatio 0x9d020630           0x1c          28   
.text.SYS_INT_Disable   0x9d02064c           0x1c          28   
.text.SYS_INT_Restore   0x9d020668           0x1c          28   
.rodata                 0x9d020684           0x1c          28  Read-only const 
.text.TCPIP_UDP_ServerO 0x9d0206a0           0x1c          28   
.text.TCPIP_UDP_TxPutIs 0x9d0206bc           0x1c          28   
.text.TCPIP_UDP_Get     0x9d0206d8           0x1c          28   
.text.DRV_ETHPHY_Deinit 0x9d0206f4           0x1c          28   
.text.DRV_ETHPHY_Vendor 0x9d020710           0x1c          28   
.text._DRV_ETHPHY_NegRe 0x9d02072c           0x1c          28   
.text.vQueueDelete      0x9d020748           0x1c          28   
.text.srand             0x9d020764           0x1c          28   
.text.DRV_ETH_BackToBac 0x9d020780           0x18          24   
.text.DRV_ETH_NonBackTo 0x9d020798           0x18          24   
.text.TCPIP_ARP_HashKey 0x9d0207b0           0x18          24   
.text.CORETIMER_Counter 0x9d0207c8           0x18          24   
.text.TCPIP_STACK_NetIn 0x9d0207e0           0x18          24   
.text.TCPIP_STACK_NetIx 0x9d0207f8           0x18          24   
.text._APP_Tasks        0x9d020810           0x18          24   
.text.DRV_ETHPHY_Status 0x9d020828           0x18          24   
.text.DRV_ETHPHY_Client 0x9d020840           0x18          24   
.text.DRV_ETHPHY_Client 0x9d020858           0x18          24   
.text                   0x9d020870           0x18          24  App's exec code 
.text.DRV_ETH_TxPacketD 0x9d020888           0x14          20   
.text.DRV_ETH_RxPacketD 0x9d02089c           0x14          20   
.rodata                 0x9d0208b0           0x14          20  Read-only const 
.text.vTaskSuspendAll   0x9d0208c4           0x14          20   
.text.vTaskInternalSetT 0x9d0208d8           0x14          20   
.text.DRV_ETH_RxBufferC 0x9d0208ec           0x10          16   
.text.DRV_ETH_MIIResetE 0x9d0208fc           0x10          16   
.text.DRV_ETH_MIIResetD 0x9d02090c           0x10          16   
.text.DRV_ETH_Disable   0x9d02091c           0x10          16   
.text.DRV_ETH_Enable    0x9d02092c           0x10          16   
.text.DRV_ETH_TxRTSDisa 0x9d02093c           0x10          16   
.text.DRV_ETH_TxRTSEnab 0x9d02094c           0x10          16   
.text.DRV_ETH_RxDisable 0x9d02095c           0x10          16   
.text.DRV_ETH_RxEnable  0x9d02096c           0x10          16   
.text.DRV_ETH_Collision 0x9d02097c           0x10          16   
.text.DRV_ETH_ReTxMaxSe 0x9d02098c           0x10          16   
.text.DRV_ETH_RMIIReset 0x9d02099c           0x10          16   
.text.DRV_ETH_RMIIReset 0x9d0209ac           0x10          16   
.text.DRV_ETH_RMIISpeed 0x9d0209bc           0x10          16   
.text.DRV_ETH_RxFilters 0x9d0209cc           0x10          16   
.text.DRV_ETH_RxFilters 0x9d0209dc           0x10          16   
.text.DRV_ETH_PauseTime 0x9d0209ec           0x10          16   
.text.DRV_ETH_TxPauseEn 0x9d0209fc           0x10          16   
.text.DRV_ETH_RxPauseEn 0x9d020a0c           0x10          16   
.text.DRV_ETH_AutoFlowC 0x9d020a1c           0x10          16   
.text.DRV_ETH_RxFilters 0x9d020a2c           0x10          16   
.text.DRV_ETH_MIIMNoPre 0x9d020a3c           0x10          16   
.text.DRV_ETH_MIIMNoPre 0x9d020a4c           0x10          16   
.text.DRV_ETH_MIIMScanI 0x9d020a5c           0x10          16   
.text.DRV_ETH_MIIMScanI 0x9d020a6c           0x10          16   
.text.DRV_ETH_PHYAddres 0x9d020a7c           0x10          16   
.text.DRV_ETH_RegisterA 0x9d020a8c           0x10          16   
.text.DRV_ETH_ClearData 0x9d020a9c           0x10          16   
.text.DRV_ETH_MIIMScanM 0x9d020aac           0x10          16   
.text.DRV_ETH_MIIMScanM 0x9d020abc           0x10          16   
.text.DRV_ETH_MIIMWrite 0x9d020acc           0x10          16   
.text.DRV_ETH_MIIMWrite 0x9d020adc           0x10          16   
.text.DRV_ETH_MIIMReset 0x9d020aec           0x10          16   
.text.DRV_ETH_MIIMReset 0x9d020afc           0x10          16   
.text.DRV_ETH_MIIMClock 0x9d020b0c           0x10          16   
.text.TCPIP_ARP_HashKey 0x9d020b1c           0x10          16   
.text.TCPIP_Helper_Sing 0x9d020b2c           0x10          16   
.text._FieldSetUserStar 0x9d020b3c           0x10          16   
.text.DRV_EXTPHY_MIICon 0x9d020b4c           0x10          16   
.text.vTaskMissedYield  0x9d020b5c           0x10          16   
.text.DRV_ETHMAC_PIC32M 0x9d020b6c            0xc          12   
.text.DRV_ETH_EthernetI 0x9d020b78            0xc          12   
.text.DRV_ETH_TransmitI 0x9d020b84            0xc          12   
.text.DRV_ETH_ReceiveIs 0x9d020b90            0xc          12   
.text.DRV_ETH_EventsClr 0x9d020b9c            0xc          12   
.text.DRV_ETH_EventsEna 0x9d020ba8            0xc          12   
.text.DRV_ETH_EventsEna 0x9d020bb4            0xc          12   
.text.DRV_ETH_EventsCle 0x9d020bc0            0xc          12   
.text.DRV_ETH_IsEnabled 0x9d020bcc            0xc          12   
.text.DRV_ETH_MIIMIsBus 0x9d020bd8            0xc          12   
.text.DRV_ETH_DataNotVa 0x9d020be4            0xc          12   
.text.SYS_TIME_Frequenc 0x9d020bf0            0xc          12   
.text.CORETIMER_Callbac 0x9d020bfc            0xc          12   
.text.CORETIMER_Frequen 0x9d020c08            0xc          12   
.text.TCPIP_STACK_Numbe 0x9d020c14            0xc          12   
.text.TCPIP_STACK_NetBI 0x9d020c20            0xc          12   
.text.DRV_EXTPHY_SMIClo 0x9d020c2c            0xc          12   
.text._mon_putc         0x9d020c38            0x8           8   
.text.DRV_ETHMAC_PIC32M 0x9d020c40            0x8           8   
.text.DRV_ETHMAC_PIC32M 0x9d020c48            0x8           8   
.text.DRV_ETH_MaxFrameL 0x9d020c50            0x8           8   
.text.DRV_ETH_RxPacketC 0x9d020c58            0x8           8   
.text.DRV_ETH_TxPacketD 0x9d020c60            0x8           8   
.text.DRV_ETH_RxPacketD 0x9d020c68            0x8           8   
.text.DRV_ETH_RxFullWma 0x9d020c70            0x8           8   
.text.DRV_ETH_RxEmptyWm 0x9d020c78            0x8           8   
.text.DRV_ETH_FramesTxd 0x9d020c80            0x8           8   
.text.DRV_ETH_FramesRxd 0x9d020c88            0x8           8   
.text.DRV_ETH_RxOverflo 0x9d020c90            0x8           8   
.text.DRV_ETH_FCSErrorC 0x9d020c98            0x8           8   
.text.DRV_ETH_AlignErro 0x9d020ca0            0x8           8   
.text.DRV_ETH_SingleCol 0x9d020ca8            0x8           8   
.text.DRV_ETH_MultipleC 0x9d020cb0            0x8           8   
.text.DRV_ETH_EventsGet 0x9d020cb8            0x8           8   
.text.DRV_ETH_MIIMReadD 0x9d020cc0            0x8           8   
.text.TCPIP_IPV4_IsFrag 0x9d020cc8            0x8           8   
.rodata                 0x9d020cd0            0x8           8  Read-only const 
.text._TCPIP_HEAP_Buffe 0x9d020cd8            0x8           8   
.text.TCPIP_STACK_NetDe 0x9d020ce0            0x8           8   
.text.TCPIP_PKT_Deiniti 0x9d020ce8            0x8           8   
.text.TCPIP_PKT_SegLoad 0x9d020cf0            0x8           8   
.text.APP_Initialize    0x9d020cf8            0x8           8   
.text._FieldSetNone     0x9d020d00            0x8           8   
.text.DRV_MIIM_Reinitia 0x9d020d08            0x8           8   
.text._DRV_ETHPHY_Clien 0x9d020d10            0x8           8   
.text.CRYPT_WCCB_Callba 0x9d020d18            0x8           8   
.text.wc_Sha256Free     0x9d020d20            0x8           8   
.text.vListInitialiseIt 0x9d020d28            0x8           8   
.rodata                 0x9d020d30            0x8           8  Read-only const 
.text.vPortFree         0x9d020d38            0x8           8   
.text._on_reset         0x9d020d40            0x8           8   
.text._on_bootstrap     0x9d020d48            0x8           8   
.rodata                 0x9d020d50            0x4           4  Read-only const 
      Total kseg0_program_mem used  :     0x20d54      134484  25.7% of 0x80000

kseg0 Boot-Memory Usage
section                    address  length [bytes]      (dec)  Description
-------                 ----------  -------------------------  -----------
         Total kseg0_boot_mem used  :           0           0  <1% of 0x970

Exception-Memory Usage 
section                    address  length [bytes]      (dec)  Description
-------                 ----------  -------------------------  -----------
.app_excpt              0x9fc01180           0x10          16  General-Exception 
.vector_0               0x9fc01200           0x10          16  Interrupt Vector 0 
.vector_1               0x9fc01220            0x8           8  Interrupt Vector 1 
.vector_2               0x9fc01240            0x8           8  Interrupt Vector 2 
.vector_3               0x9fc01260            0x8           8  Interrupt Vector 3 
.vector_4               0x9fc01280            0x8           8  Interrupt Vector 4 
.vector_5               0x9fc012a0            0x8           8  Interrupt Vector 5 
.vector_6               0x9fc012c0            0x8           8  Interrupt Vector 6 
.vector_7               0x9fc012e0            0x8           8  Interrupt Vector 7 
.vector_8               0x9fc01300           0x10          16  Interrupt Vector 8 
.vector_9               0x9fc01320            0x8           8  Interrupt Vector 9 
.vector_10              0x9fc01340            0x8           8  Interrupt Vector 10 
.vector_11              0x9fc01360            0x8           8  Interrupt Vector 11 
.vector_12              0x9fc01380            0x8           8  Interrupt Vector 12 
.vector_13              0x9fc013a0            0x8           8  Interrupt Vector 13 
.vector_14              0x9fc013c0            0x8           8  Interrupt Vector 14 
.vector_15              0x9fc013e0            0x8           8  Interrupt Vector 15 
.vector_16              0x9fc01400            0x8           8  Interrupt Vector 16 
.vector_17              0x9fc01420            0x8           8  Interrupt Vector 17 
.vector_18              0x9fc01440            0x8           8  Interrupt Vector 18 
.vector_19              0x9fc01460            0x8           8  Interrupt Vector 19 
.vector_20              0x9fc01480            0x8           8  Interrupt Vector 20 
.vector_21              0x9fc014a0            0x8           8  Interrupt Vector 21 
.vector_22              0x9fc014c0            0x8           8  Interrupt Vector 22 
.vector_23              0x9fc014e0           0x10          16  Interrupt Vector 23 
.vector_24              0x9fc01500            0x8           8  Interrupt Vector 24 
.vector_25              0x9fc01520            0x8           8  Interrupt Vector 25 
.vector_26              0x9fc01540            0x8           8  Interrupt Vector 26 
.vector_27              0x9fc01560            0x8           8  Interrupt Vector 27 
.vector_28              0x9fc01580            0x8           8  Interrupt Vector 28 
.vector_29              0x9fc015a0            0x8           8  Interrupt Vector 29 
.vector_30              0x9fc015c0            0x8           8  Interrupt Vector 30 
.vector_31              0x9fc015e0            0x8           8  Interrupt Vector 31 
.vector_32              0x9fc01600           0x10          16  Interrupt Vector 32 
.vector_33              0x9fc01620            0x8           8  Interrupt Vector 33 
.vector_34              0x9fc01640            0x8           8  Interrupt Vector 34 
.vector_35              0x9fc01660            0x8           8  Interrupt Vector 35 
.vector_36              0x9fc01680            0x8           8  Interrupt Vector 36 
.vector_37              0x9fc016a0            0x8           8  Interrupt Vector 37 
.vector_38              0x9fc016c0            0x8           8  Interrupt Vector 38 
.vector_39              0x9fc016e0            0x8           8  Interrupt Vector 39 
.vector_40              0x9fc01700            0x8           8  Interrupt Vector 40 
.vector_41              0x9fc01720            0x8           8  Interrupt Vector 41 
.vector_42              0x9fc01740            0x8           8  Interrupt Vector 42 
.vector_43              0x9fc01760            0x8           8  Interrupt Vector 43 
.vector_44              0x9fc01780            0x8           8  Interrupt Vector 44 
.vector_45              0x9fc017a0            0x8           8  Interrupt Vector 45 
.vector_46              0x9fc017c0            0x8           8  Interrupt Vector 46 
.vector_47              0x9fc017e0            0x8           8  Interrupt Vector 47 
.vector_48              0x9fc01800           0x10          16  Interrupt Vector 48 
.vector_49              0x9fc01820            0x8           8  Interrupt Vector 49 
.vector_50              0x9fc01840            0x8           8  Interrupt Vector 50 
.vector_51              0x9fc01860            0x8           8  Interrupt Vector 51 
          Total exception_mem used  :       0x1d8         472  11.5% of 0x1000

kseg1 Boot-Memory Usage
section                    address  length [bytes]      (dec)  Description
-------                 ----------  -------------------------  -----------
.reset                  0xbfc00000          0x19c         412  Reset handler 
.bev_excpt              0xbfc00380           0x10          16  BEV-Exception 
         Total kseg1_boot_mem used  :       0x1ac         428  36.6% of 0x490
        --------------------------------------------------------------------------
         Total Program Memory used  :     0x210d8      135384  25.4% of 0x81e00
        --------------------------------------------------------------------------


kseg1 Data-Memory Usage
section                    address  length [bytes]      (dec)  Description
-------                 ----------  -------------------------  -----------
.sdata                  0xa0000000           0x20          32  Small init data 
.sbss                   0xa0000020          0x150         336  Small uninit data 
.bss                    0xa0000170           0x80         128  Uninitialized data 
.bss                    0xa00001f0         0x7560       30048  Uninitialized data 
.bss                    0xa0007750          0x354         852  Uninitialized data 
.data                   0xa0007aa4          0x108         264  Initialized data 
.bss                    0xa0007bac          0x1f4         500  Uninitialized data 
.bss                    0xa0007da0          0x160         352  Uninitialized data 
.bss                    0xa0007f00           0xd4         212  Uninitialized data 
.bss                    0xa0007fd4           0x90         144  Uninitialized data 
.data                   0xa0008064           0x38          56  Initialized data 
.bss                    0xa000809c           0x58          88  Uninitialized data 
.bss                    0xa00080f4           0x3c          60  Uninitialized data 
.bss                    0xa0008130           0x14          20  Uninitialized data 
.bss.errno              0xa0008144            0x4           4   
.bss                    0xa0008148           0x10          16  Uninitialized data 
         Total kseg1_data_mem used  :      0x8158       33112  25.3% of 0x20000
        --------------------------------------------------------------------------
            Total Data Memory used  :      0x8158       33112  25.3% of 0x20000
        --------------------------------------------------------------------------


Dynamic Data-Memory Reservation
section                    address  length [bytes]      (dec)  Description
-------                 ----------  -------------------------  -----------
heap                    0xa0008160          0x200         512  Reserved for heap 
stack                   0xa0008378        0x17c80       97408  Reserved for stack 

        --------------------------------------------------------------------------

Discarded input sections

 .text          0x00000000        0x0 c:/program files/microchip/xc32/v2.50/bin/bin/../../lib/gcc/pic32mx/4.8.3/../../../../pic32mx/lib\debug-exception-return.o
 .data          0x00000000        0x0 c:/program files/microchip/xc32/v2.50/bin/bin/../../lib/gcc/pic32mx/4.8.3/../../../../pic32mx/lib\debug-exception-return.o
 .bss           0x00000000        0x0 c:/program files/microchip/xc32/v2.50/bin/bin/../../lib/gcc/pic32mx/4.8.3/../../../../pic32mx/lib\debug-exception-return.o
 .text          0x00000000        0x0 build/default/production/_ext/60165520/plib_clk.o
 .data          0x00000000        0x0 build/default/production/_ext/60165520/plib_clk.o
 .bss           0x00000000        0x0 build/default/production/_ext/60165520/plib_clk.o
 .reginfo       0x00000000       0x18 build/default/production/_ext/60165520/plib_clk.o
 .text          0x00000000        0x0 build/default/production/_ext/1865200349/plib_evic.o
 .data          0x00000000        0x0 build/default/production/_ext/1865200349/plib_evic.o
 .bss           0x00000000        0x0 build/default/production/_ext/1865200349/plib_evic.o
 .reginfo       0x00000000       0x18 build/default/production/_ext/1865200349/plib_evic.o
 .text.EVIC_SourceStatusGet
                0x00000000       0x24 build/default/production/_ext/1865200349/plib_evic.o
 .text.EVIC_SourceStatusSet
                0x00000000       0x28 build/default/production/_ext/1865200349/plib_evic.o
 .text.EVIC_INT_Enable
                0x00000000       0x18 build/default/production/_ext/1865200349/plib_evic.o
 .text          0x00000000        0x0 build/default/production/_ext/1865254177/plib_gpio.o
 .data          0x00000000        0x0 build/default/production/_ext/1865254177/plib_gpio.o
 .bss           0x00000000        0x0 build/default/production/_ext/1865254177/plib_gpio.o
 .reginfo       0x00000000       0x18 build/default/production/_ext/1865254177/plib_gpio.o
 .text.GPIO_PortRead
                0x00000000       0x1c build/default/production/_ext/1865254177/plib_gpio.o
 .text.GPIO_PortWrite
                0x00000000       0x30 build/default/production/_ext/1865254177/plib_gpio.o
 .text.GPIO_PortLatchRead
                0x00000000       0x1c build/default/production/_ext/1865254177/plib_gpio.o
 .text.GPIO_PortSet
                0x00000000       0x1c build/default/production/_ext/1865254177/plib_gpio.o
 .text.GPIO_PortClear
                0x00000000       0x1c build/default/production/_ext/1865254177/plib_gpio.o
 .text.GPIO_PortToggle
                0x00000000       0x1c build/default/production/_ext/1865254177/plib_gpio.o
 .text.GPIO_PortInputEnable
                0x00000000       0x1c build/default/production/_ext/1865254177/plib_gpio.o
 .text.GPIO_PortOutputEnable
                0x00000000       0x1c build/default/production/_ext/1865254177/plib_gpio.o
 .text          0x00000000        0x0 build/default/production/_ext/298189674/plib_spi4_master.o
 .data          0x00000000        0x0 build/default/production/_ext/298189674/plib_spi4_master.o
 .bss           0x00000000        0x0 build/default/production/_ext/298189674/plib_spi4_master.o
 .reginfo       0x00000000       0x18 build/default/production/_ext/298189674/plib_spi4_master.o
 .text.SPI4_TransferSetup
                0x00000000       0xb8 build/default/production/_ext/298189674/plib_spi4_master.o
 .text.SPI4_Read
                0x00000000       0x28 build/default/production/_ext/298189674/plib_spi4_master.o
 .text.SPI4_IsBusy
                0x00000000       0x28 build/default/production/_ext/298189674/plib_spi4_master.o
 .text.SPI4_CallbackRegister
                0x00000000       0x14 build/default/production/_ext/298189674/plib_spi4_master.o
 .text          0x00000000        0x0 build/default/production/_ext/163028504/xc32_monitor.o
 .data          0x00000000        0x0 build/default/production/_ext/163028504/xc32_monitor.o
 .bss           0x00000000        0x0 build/default/production/_ext/163028504/xc32_monitor.o
 .reginfo       0x00000000       0x18 build/default/production/_ext/163028504/xc32_monitor.o
 .text._mon_getc
                0x00000000        0x8 build/default/production/_ext/163028504/xc32_monitor.o
 .text          0x00000000        0x0 build/default/production/_ext/1171490990/initialization.o
 .bss           0x00000000        0x0 build/default/production/_ext/1171490990/initialization.o
 .reginfo       0x00000000       0x18 build/default/production/_ext/1171490990/initialization.o
 .text          0x00000000        0x0 build/default/production/_ext/1171490990/interrupts.o
 .data          0x00000000        0x0 build/default/production/_ext/1171490990/interrupts.o
 .bss           0x00000000        0x0 build/default/production/_ext/1171490990/interrupts.o
 .reginfo       0x00000000       0x18 build/default/production/_ext/1171490990/interrupts.o
 .text          0x00000000        0x0 build/default/production/_ext/1171490990/exceptions.o
 .data          0x00000000        0x0 build/default/production/_ext/1171490990/exceptions.o
 .bss           0x00000000        0x0 build/default/production/_ext/1171490990/exceptions.o
 .reginfo       0x00000000       0x18 build/default/production/_ext/1171490990/exceptions.o
 .text          0x00000000        0x0 build/default/production/_ext/1360937237/main.o
 .data          0x00000000        0x0 build/default/production/_ext/1360937237/main.o
 .bss           0x00000000        0x0 build/default/production/_ext/1360937237/main.o
 .reginfo       0x00000000       0x18 build/default/production/_ext/1360937237/main.o
 .text          0x00000000        0x0 build/default/production/_ext/60181895/plib_tmr2.o
 .data          0x00000000        0x0 build/default/production/_ext/60181895/plib_tmr2.o
 .bss           0x00000000        0x0 build/default/production/_ext/60181895/plib_tmr2.o
 .reginfo       0x00000000       0x18 build/default/production/_ext/60181895/plib_tmr2.o
 .text.TMR2_Start
                0x00000000       0x14 build/default/production/_ext/60181895/plib_tmr2.o
 .text.TMR2_Stop
                0x00000000       0x14 build/default/production/_ext/60181895/plib_tmr2.o
 .text.TMR2_PeriodSet
                0x00000000       0x10 build/default/production/_ext/60181895/plib_tmr2.o
 .text.TMR2_PeriodGet
                0x00000000       0x10 build/default/production/_ext/60181895/plib_tmr2.o
 .text.TMR2_CounterGet
                0x00000000       0x10 build/default/production/_ext/60181895/plib_tmr2.o
 .text.TMR2_FrequencyGet
                0x00000000        0xc build/default/production/_ext/60181895/plib_tmr2.o
 .text.TMR2_InterruptEnable
                0x00000000       0x14 build/default/production/_ext/60181895/plib_tmr2.o
 .text.TMR2_InterruptDisable
                0x00000000       0x14 build/default/production/_ext/60181895/plib_tmr2.o
 .text.TMR2_CallbackRegister
                0x00000000        0xc build/default/production/_ext/60181895/plib_tmr2.o
 .text          0x00000000        0x0 build/default/production/_ext/732082881/drv_ethmac.o
 .bss           0x00000000        0x0 build/default/production/_ext/732082881/drv_ethmac.o
 .reginfo       0x00000000       0x18 build/default/production/_ext/732082881/drv_ethmac.o
 .text          0x00000000        0x0 build/default/production/_ext/732082881/drv_ethmac_lib.o
 .data          0x00000000        0x0 build/default/production/_ext/732082881/drv_ethmac_lib.o
 .bss           0x00000000        0x0 build/default/production/_ext/732082881/drv_ethmac_lib.o
 .reginfo       0x00000000       0x18 build/default/production/_ext/732082881/drv_ethmac_lib.o
 .text.DRV_ETHMAC_LibDescriptorsPoolRemove
                0x00000000       0xc4 build/default/production/_ext/732082881/drv_ethmac_lib.o
 .text.DRV_ETHMAC_LibTxSendBuffer
                0x00000000       0xc4 build/default/production/_ext/732082881/drv_ethmac_lib.o
 .text.DRV_ETHMAC_LibTxGetBufferStatus
                0x00000000       0x84 build/default/production/_ext/732082881/drv_ethmac_lib.o
 .text.DRV_ETHMAC_LibRxGetBuffer
                0x00000000       0x3c build/default/production/_ext/732082881/drv_ethmac_lib.o
 .text          0x00000000        0x0 build/default/production/_ext/732082881/drv_eth_pic32_lib.o
 .data          0x00000000        0x0 build/default/production/_ext/732082881/drv_eth_pic32_lib.o
 .bss           0x00000000        0x0 build/default/production/_ext/732082881/drv_eth_pic32_lib.o
 .reginfo       0x00000000       0x18 build/default/production/_ext/732082881/drv_eth_pic32_lib.o
 .text          0x00000000        0x0 build/default/production/_ext/1033058136/tcp.o
 .data          0x00000000        0x0 build/default/production/_ext/1033058136/tcp.o
 .bss           0x00000000        0x0 build/default/production/_ext/1033058136/tcp.o
 .reginfo       0x00000000       0x18 build/default/production/_ext/1033058136/tcp.o
 .text._TCP_SktFlagsGet
                0x00000000       0x50 build/default/production/_ext/1033058136/tcp.o
 .text.TCPIP_TCP_SocketTraceSet
                0x00000000        0x8 build/default/production/_ext/1033058136/tcp.o
 .text.TCPIP_TCP_ClientOpen
                0x00000000       0x40 build/default/production/_ext/1033058136/tcp.o
 .text.TCPIP_TCP_WasReset
                0x00000000       0x48 build/default/production/_ext/1033058136/tcp.o
 .text.TCPIP_TCP_Disconnect
                0x00000000       0x3c build/default/production/_ext/1033058136/tcp.o
 .text.TCPIP_TCP_Abort
                0x00000000       0x38 build/default/production/_ext/1033058136/tcp.o
 .text.TCPIP_TCP_Connect
                0x00000000       0x60 build/default/production/_ext/1033058136/tcp.o
 .text.TCPIP_TCP_SocketFlagsGet
                0x00000000       0x34 build/default/production/_ext/1033058136/tcp.o
 .text.TCPIP_TCP_SocketsNumberGet
                0x00000000        0x8 build/default/production/_ext/1033058136/tcp.o
 .text.TCPIP_TCP_Flush
                0x00000000       0x4c build/default/production/_ext/1033058136/tcp.o
 .text.TCPIP_TCP_Put
                0x00000000       0x24 build/default/production/_ext/1033058136/tcp.o
 .text.TCPIP_TCP_StringPut
                0x00000000       0x48 build/default/production/_ext/1033058136/tcp.o
 .text.TCPIP_TCP_FifoTxFullGet
                0x00000000       0x7c build/default/production/_ext/1033058136/tcp.o
 .text.TCPIP_TCP_SocketInfoGet
                0x00000000       0xe8 build/default/production/_ext/1033058136/tcp.o
 .text.TCPIP_TCP_FifoTxFreeGet
                0x00000000       0x50 build/default/production/_ext/1033058136/tcp.o
 .text.TCPIP_TCP_Discard
                0x00000000       0x60 build/default/production/_ext/1033058136/tcp.o
 .text.TCPIP_TCP_Get
                0x00000000       0x1c build/default/production/_ext/1033058136/tcp.o
 .text.TCPIP_TCP_FifoRxFreeGet
                0x00000000       0x4c build/default/production/_ext/1033058136/tcp.o
 .text.TCPIP_TCP_ArrayPeek
                0x00000000       0xe4 build/default/production/_ext/1033058136/tcp.o
 .text.TCPIP_TCP_Peek
                0x00000000       0x28 build/default/production/_ext/1033058136/tcp.o
 .text.TCPIP_TCP_ArrayFind
                0x00000000      0x398 build/default/production/_ext/1033058136/tcp.o
 .text.TCPIP_TCP_Find
                0x00000000       0x38 build/default/production/_ext/1033058136/tcp.o
 .text.TCPIP_TCP_FifoSizeAdjust
                0x00000000      0x4c4 build/default/production/_ext/1033058136/tcp.o
 .text.TCPIP_TCP_SocketNetSet
                0x00000000       0x48 build/default/production/_ext/1033058136/tcp.o
 .text.TCPIP_TCP_SocketNetGet
                0x00000000       0x28 build/default/production/_ext/1033058136/tcp.o
 .text.TCPIP_TCP_Bind
                0x00000000      0x158 build/default/production/_ext/1033058136/tcp.o
 .text.TCPIP_TCP_OptionsSet
                0x00000000      0x1b8 build/default/production/_ext/1033058136/tcp.o
 .text.TCPIP_TCP_OptionsGet
                0x00000000      0x17c build/default/production/_ext/1033058136/tcp.o
 .text.TCPIP_TCP_DestinationIPAddressSet
                0x00000000       0x9c build/default/production/_ext/1033058136/tcp.o
 .text.TCPIP_TCP_RemoteBind
                0x00000000       0xac build/default/production/_ext/1033058136/tcp.o
 .text.TCPIP_TCP_SourceIPAddressSet
                0x00000000       0x78 build/default/production/_ext/1033058136/tcp.o
 .text.TCPIP_TCP_SignalHandlerRegister
                0x00000000       0xa0 build/default/production/_ext/1033058136/tcp.o
 .text.TCPIP_TCP_SignalHandlerDeregister
                0x00000000       0x78 build/default/production/_ext/1033058136/tcp.o
 .text.TCPIP_TCP_IsReady
                0x00000000        0x8 build/default/production/_ext/1033058136/tcp.o
 .text          0x00000000        0x0 build/default/production/_ext/1033058136/arp.o
 .data          0x00000000        0x0 build/default/production/_ext/1033058136/arp.o
 .reginfo       0x00000000       0x18 build/default/production/_ext/1033058136/arp.o
 .text._ARPRemoveEntry
                0x00000000       0x70 build/default/production/_ext/1033058136/arp.o
 .text.TCPIP_ARP_Resolve
                0x00000000       0x7c build/default/production/_ext/1033058136/arp.o
 .text.TCPIP_ARP_Probe
                0x00000000       0xa0 build/default/production/_ext/1033058136/arp.o
 .text.TCPIP_ARP_EntrySet
                0x00000000      0x178 build/default/production/_ext/1033058136/arp.o
 .text.TCPIP_ARP_EntryRemove
                0x00000000       0xd0 build/default/production/_ext/1033058136/arp.o
 .text.TCPIP_ARP_EntryRemoveNet
                0x00000000      0x1d8 build/default/production/_ext/1033058136/arp.o
 .text.TCPIP_ARP_EntryRemoveAll
                0x00000000       0xe8 build/default/production/_ext/1033058136/arp.o
 .text.TCPIP_ARP_EntryQuery
                0x00000000      0x114 build/default/production/_ext/1033058136/arp.o
 .text.TCPIP_ARP_CacheEntriesNoGet
                0x00000000       0xdc build/default/production/_ext/1033058136/arp.o
 .text.TCPIP_ARP_CacheThresholdSet
                0x00000000       0xa8 build/default/production/_ext/1033058136/arp.o
 .text          0x00000000        0x0 build/default/production/_ext/101884895/sys_time.o
 .data          0x00000000        0x0 build/default/production/_ext/101884895/sys_time.o
 .reginfo       0x00000000       0x18 build/default/production/_ext/101884895/sys_time.o
 .text.SYS_TIME_Deinitialize
                0x00000000       0x98 build/default/production/_ext/101884895/sys_time.o
 .text.SYS_TIME_Status
                0x00000000       0x20 build/default/production/_ext/101884895/sys_time.o
 .text.SYS_TIME_CounterSet
                0x00000000       0x44 build/default/production/_ext/101884895/sys_time.o
 .text.SYS_TIME_CountToUS
                0x00000000       0x88 build/default/production/_ext/101884895/sys_time.o
 .text.SYS_TIME_CountToMS
                0x00000000       0x68 build/default/production/_ext/101884895/sys_time.o
 .text.SYS_TIME_USToCount
                0x00000000       0x38 build/default/production/_ext/101884895/sys_time.o
 .text.SYS_TIME_TimerCreate
                0x00000000       0x38 build/default/production/_ext/101884895/sys_time.o
 .text.SYS_TIME_TimerReload
                0x00000000      0x118 build/default/production/_ext/101884895/sys_time.o
 .text.SYS_TIME_TimerStop
                0x00000000       0x84 build/default/production/_ext/101884895/sys_time.o
 .text.SYS_TIME_TimerCounterGet
                0x00000000       0xfc build/default/production/_ext/101884895/sys_time.o
 .text.SYS_TIME_TimerPeriodHasExpired
                0x00000000       0x5c build/default/production/_ext/101884895/sys_time.o
 .text.SYS_TIME_DelayUS
                0x00000000       0x90 build/default/production/_ext/101884895/sys_time.o
 .text.SYS_TIME_DelayMS
                0x00000000       0x8c build/default/production/_ext/101884895/sys_time.o
 .text.SYS_TIME_DelayIsComplete
                0x00000000       0x3c build/default/production/_ext/101884895/sys_time.o
 .text.SYS_TIME_CallbackRegisterUS
                0x00000000       0xb4 build/default/production/_ext/101884895/sys_time.o
 .text          0x00000000        0x0 build/default/production/_ext/1249264884/plib_coretimer.o
 .data          0x00000000        0x0 build/default/production/_ext/1249264884/plib_coretimer.o
 .bss           0x00000000        0x0 build/default/production/_ext/1249264884/plib_coretimer.o
 .reginfo       0x00000000       0x18 build/default/production/_ext/1249264884/plib_coretimer.o
 .text.CORETIMER_DelayMs
                0x00000000       0x44 build/default/production/_ext/1249264884/plib_coretimer.o
 .text.CORETIMER_DelayUs
                0x00000000       0x34 build/default/production/_ext/1249264884/plib_coretimer.o
 .text          0x00000000        0x0 build/default/production/_ext/298189674/plib_spi1_master.o
 .data          0x00000000        0x0 build/default/production/_ext/298189674/plib_spi1_master.o
 .bss           0x00000000        0x0 build/default/production/_ext/298189674/plib_spi1_master.o
 .reginfo       0x00000000       0x18 build/default/production/_ext/298189674/plib_spi1_master.o
 .text.SPI1_TransferSetup
                0x00000000       0xb8 build/default/production/_ext/298189674/plib_spi1_master.o
 .text.SPI1_WriteRead
                0x00000000      0x2a0 build/default/production/_ext/298189674/plib_spi1_master.o
 .text.SPI1_Write
                0x00000000       0x20 build/default/production/_ext/298189674/plib_spi1_master.o
 .text.SPI1_Read
                0x00000000       0x28 build/default/production/_ext/298189674/plib_spi1_master.o
 .text.SPI1_IsBusy
                0x00000000       0x28 build/default/production/_ext/298189674/plib_spi1_master.o
 .text.SPI1_CallbackRegister
                0x00000000       0x14 build/default/production/_ext/298189674/plib_spi1_master.o
 .text          0x00000000        0x0 build/default/production/_ext/1033058136/ipv4.o
 .data          0x00000000        0x0 build/default/production/_ext/1033058136/ipv4.o
 .reginfo       0x00000000       0x18 build/default/production/_ext/1033058136/ipv4.o
 .text.Ipv4DeRegisterCallback
                0x00000000       0x20 build/default/production/_ext/1033058136/ipv4.o
 .text.TCPIP_IPv4_ArpStatGet
                0x00000000        0x8 build/default/production/_ext/1033058136/ipv4.o
 .text.TCPIP_IPv4_ForwardStatGet
                0x00000000        0x8 build/default/production/_ext/1033058136/ipv4.o
 .text.IPv4RegisterFilter
                0x00000000       0x94 build/default/production/_ext/1033058136/ipv4.o
 .text.Ipv4DeRegisterFilter
                0x00000000       0x4c build/default/production/_ext/1033058136/ipv4.o
 .text.Ipv4FilterSetActive
                0x00000000       0xc0 build/default/production/_ext/1033058136/ipv4.o
 .text.TCPIP_IPV4_PacketFilterSet
                0x00000000       0x44 build/default/production/_ext/1033058136/ipv4.o
 .text.TCPIP_IPV4_PacketFilterClear
                0x00000000       0x48 build/default/production/_ext/1033058136/ipv4.o
 .text.TCPIP_IPV4_MacPacketSwitchTxToRx
                0x00000000      0x12c build/default/production/_ext/1033058136/ipv4.o
 .text.TCPIP_IPV4_MacPacketTransmit
                0x00000000       0xac build/default/production/_ext/1033058136/ipv4.o
 .text.TCPIP_IPV4_PacketAlloc
                0x00000000       0xc4 build/default/production/_ext/1033058136/ipv4.o
 .text.TCPIP_IPV4_PacketOptionFieldSet
                0x00000000       0x40 build/default/production/_ext/1033058136/ipv4.o
 .text.TCPIP_IPV4_PacketOptionListGet
                0x00000000       0x90 build/default/production/_ext/1033058136/ipv4.o
 .text.TCPIP_IPV4_PacketOptionGet
                0x00000000       0xd8 build/default/production/_ext/1033058136/ipv4.o
 .text          0x00000000        0x0 build/default/production/_ext/1033058136/dhcps.o
 .data          0x00000000        0x0 build/default/production/_ext/1033058136/dhcps.o
 .reginfo       0x00000000       0x18 build/default/production/_ext/1033058136/dhcps.o
 .text.TCPIP_DHCPS_HashIPKeyCompare
                0x00000000       0x24 build/default/production/_ext/1033058136/dhcps.o
 .text.TCPIP_DHCPS_HashIPKeyCopy
                0x00000000       0x14 build/default/production/_ext/1033058136/dhcps.o
 .text.TCPIP_DHCPS_LeaseEntryGet
                0x00000000      0x170 build/default/production/_ext/1033058136/dhcps.o
 .text.TCPIP_DHCPS_GetPoolEntries
                0x00000000      0x154 build/default/production/_ext/1033058136/dhcps.o
 .text.TCPIP_DHCPS_LeaseEntryRemove
                0x00000000       0x94 build/default/production/_ext/1033058136/dhcps.o
 .text.TCPIP_DHCPS_RemovePoolEntries
                0x00000000      0x164 build/default/production/_ext/1033058136/dhcps.o
 .text.TCPIP_DHCPS_IPAddressHashKeyHash
                0x00000000       0x3c build/default/production/_ext/1033058136/dhcps.o
 .text.TCPIP_DHCPS_Disable
                0x00000000       0x7c build/default/production/_ext/1033058136/dhcps.o
 .text          0x00000000        0x0 build/default/production/_ext/1033058136/tcpip_heap_alloc.o
 .data          0x00000000        0x0 build/default/production/_ext/1033058136/tcpip_heap_alloc.o
 .bss           0x00000000        0x0 build/default/production/_ext/1033058136/tcpip_heap_alloc.o
 .reginfo       0x00000000       0x18 build/default/production/_ext/1033058136/tcpip_heap_alloc.o
 .text._TCPIP_HEAP_PointerMapCached
                0x00000000        0x8 build/default/production/_ext/1033058136/tcpip_heap_alloc.o
 .text          0x00000000        0x0 build/default/production/_ext/1033058136/tcpip_heap_internal.o
 .data          0x00000000        0x0 build/default/production/_ext/1033058136/tcpip_heap_internal.o
 .bss           0x00000000        0x0 build/default/production/_ext/1033058136/tcpip_heap_internal.o
 .reginfo       0x00000000       0x18 build/default/production/_ext/1033058136/tcpip_heap_internal.o
 .text          0x00000000        0x0 build/default/production/_ext/1033058136/dhcp.o
 .data          0x00000000        0x0 build/default/production/_ext/1033058136/dhcp.o
 .bss           0x00000000        0x0 build/default/production/_ext/1033058136/dhcp.o
 .reginfo       0x00000000       0x18 build/default/production/_ext/1033058136/dhcp.o
 .text.TCPIP_DHCP_IsEnabled
                0x00000000        0x8 build/default/production/_ext/1033058136/dhcp.o
 .text.TCPIP_DHCP_IsActive
                0x00000000        0x8 build/default/production/_ext/1033058136/dhcp.o
 .text.TCPIP_DHCP_Disable
                0x00000000        0x8 build/default/production/_ext/1033058136/dhcp.o
 .text.TCPIP_DHCP_Enable
                0x00000000        0x8 build/default/production/_ext/1033058136/dhcp.o
 .text.TCPIP_DHCP_Renew
                0x00000000        0x8 build/default/production/_ext/1033058136/dhcp.o
 .text.TCPIP_DHCP_Request
                0x00000000        0xc build/default/production/_ext/1033058136/dhcp.o
 .text.TCPIP_DHCP_InfoGet
                0x00000000        0x8 build/default/production/_ext/1033058136/dhcp.o
 .text          0x00000000        0x0 build/default/production/_ext/1033058136/dns.o
 .data          0x00000000        0x0 build/default/production/_ext/1033058136/dns.o
 .bss           0x00000000        0x0 build/default/production/_ext/1033058136/dns.o
 .reginfo       0x00000000       0x18 build/default/production/_ext/1033058136/dns.o
 .text.TCPIP_DNS_IsEnabled
                0x00000000        0x8 build/default/production/_ext/1033058136/dns.o
 .text.TCPIP_DNS_Enable
                0x00000000        0x8 build/default/production/_ext/1033058136/dns.o
 .text.TCPIP_DNS_Disable
                0x00000000        0x8 build/default/production/_ext/1033058136/dns.o
 .text.TCPIP_DNS_Resolve
                0x00000000        0x8 build/default/production/_ext/1033058136/dns.o
 .text.TCPIP_DNS_IsResolved
                0x00000000        0x8 build/default/production/_ext/1033058136/dns.o
 .text.TCPIP_DNS_IsNameResolved
                0x00000000        0x8 build/default/production/_ext/1033058136/dns.o
 .text.TCPIP_DNS_RemoveEntry
                0x00000000        0x8 build/default/production/_ext/1033058136/dns.o
 .text.TCPIP_DNS_RemoveAll
                0x00000000        0x8 build/default/production/_ext/1033058136/dns.o
 .text.TCPIP_DNS_ClientInfoGet
                0x00000000        0x8 build/default/production/_ext/1033058136/dns.o
 .text.TCPIP_DNS_EntryQuery
                0x00000000        0x8 build/default/production/_ext/1033058136/dns.o
 .text          0x00000000        0x0 build/default/production/_ext/1033058136/helpers.o
 .data          0x00000000        0x0 build/default/production/_ext/1033058136/helpers.o
 .bss           0x00000000        0x0 build/default/production/_ext/1033058136/helpers.o
 .reginfo       0x00000000       0x18 build/default/production/_ext/1033058136/helpers.o
 .text.uitoa    0x00000000       0x90 build/default/production/_ext/1033058136/helpers.o
 .text.btohexa_high
                0x00000000       0x1c build/default/production/_ext/1033058136/helpers.o
 .text.btohexa_low
                0x00000000       0x1c build/default/production/_ext/1033058136/helpers.o
 .text.strncpy_m
                0x00000000       0xd8 build/default/production/_ext/1033058136/helpers.o
 .text.stricmp  0x00000000       0xa4 build/default/production/_ext/1033058136/helpers.o
 .text          0x00000000        0x0 build/default/production/_ext/1033058136/hash_fnv.o
 .data          0x00000000        0x0 build/default/production/_ext/1033058136/hash_fnv.o
 .bss           0x00000000        0x0 build/default/production/_ext/1033058136/hash_fnv.o
 .reginfo       0x00000000       0x18 build/default/production/_ext/1033058136/hash_fnv.o
 .text.fnv_32a_hash
                0x00000000       0x5c build/default/production/_ext/1033058136/hash_fnv.o
 .text          0x00000000        0x0 build/default/production/_ext/1033058136/oahash.o
 .data          0x00000000        0x0 build/default/production/_ext/1033058136/oahash.o
 .bss           0x00000000        0x0 build/default/production/_ext/1033058136/oahash.o
 .reginfo       0x00000000       0x18 build/default/production/_ext/1033058136/oahash.o
 .text          0x00000000        0x0 build/default/production/_ext/1033058136/tcpip_helpers.o
 .data          0x00000000       0x28 build/default/production/_ext/1033058136/tcpip_helpers.o
 .bss           0x00000000        0x0 build/default/production/_ext/1033058136/tcpip_helpers.o
 .reginfo       0x00000000       0x18 build/default/production/_ext/1033058136/tcpip_helpers.o
 .text._TCPIP_Helper_SecurePortEntry
                0x00000000       0x54 build/default/production/_ext/1033058136/tcpip_helpers.o
 .text.TCPIP_Helper_IPAddressToString
                0x00000000       0x98 build/default/production/_ext/1033058136/tcpip_helpers.o
 .text.TCPIP_Helper_StringToIPv6Address
                0x00000000      0x600 build/default/production/_ext/1033058136/tcpip_helpers.o
 .text.TCPIP_Helper_IPv6AddressToString
                0x00000000      0x164 build/default/production/_ext/1033058136/tcpip_helpers.o
 .text.TCPIP_Helper_IsPrivateAddress
                0x00000000       0x3c build/default/production/_ext/1033058136/tcpip_helpers.o
 .text.TCPIP_Helper_MACAddressToString
                0x00000000       0x80 build/default/production/_ext/1033058136/tcpip_helpers.o
 .text.TCPIP_Helper_PowerModeToString
                0x00000000       0x28 build/default/production/_ext/1033058136/tcpip_helpers.o
 .text.TCPIP_Helper_Base64Decode
                0x00000000      0x1c8 build/default/production/_ext/1033058136/tcpip_helpers.o
 .text.TCPIP_Helper_Base64Encode
                0x00000000      0x1ac build/default/production/_ext/1033058136/tcpip_helpers.o
 .text.TCPIP_Helper_FindCommonPrefix
                0x00000000       0xa0 build/default/production/_ext/1033058136/tcpip_helpers.o
 .text.TCPIP_Helper_SingleListHeadAdd
                0x00000000       0x28 build/default/production/_ext/1033058136/tcpip_helpers.o
 .text.TCPIP_Helper_SingleListMidAdd
                0x00000000       0x1c build/default/production/_ext/1033058136/tcpip_helpers.o
 .text.TCPIP_Helper_SingleListNextRemove
                0x00000000       0x58 build/default/production/_ext/1033058136/tcpip_helpers.o
 .text.TCPIP_Helper_SingleListFind
                0x00000000       0x48 build/default/production/_ext/1033058136/tcpip_helpers.o
 .text.TCPIP_Helper_ProtectedSingleListHeadAdd
                0x00000000       0x60 build/default/production/_ext/1033058136/tcpip_helpers.o
 .text.TCPIP_Helper_ProtectedSingleListMidAdd
                0x00000000       0x78 build/default/production/_ext/1033058136/tcpip_helpers.o
 .text.TCPIP_Helper_ProtectedSingleListNextRemove
                0x00000000       0x70 build/default/production/_ext/1033058136/tcpip_helpers.o
 .text.TCPIP_Helper_ProtectedSingleListAppend
                0x00000000       0x60 build/default/production/_ext/1033058136/tcpip_helpers.o
 .text.TCPIP_Helper_DoubleListInitialize
                0x00000000       0x10 build/default/production/_ext/1033058136/tcpip_helpers.o
 .text.TCPIP_Helper_DoubleListHeadAdd
                0x00000000       0x40 build/default/production/_ext/1033058136/tcpip_helpers.o
 .text.TCPIP_Helper_DoubleListTailAdd
                0x00000000       0x44 build/default/production/_ext/1033058136/tcpip_helpers.o
 .text.TCPIP_Helper_DoubleListMidAdd
                0x00000000       0x28 build/default/production/_ext/1033058136/tcpip_helpers.o
 .text.TCPIP_Helper_DoubleListHeadRemove
                0x00000000       0x40 build/default/production/_ext/1033058136/tcpip_helpers.o
 .text.TCPIP_Helper_DoubleListTailRemove
                0x00000000       0x40 build/default/production/_ext/1033058136/tcpip_helpers.o
 .text.TCPIP_Helper_DoubleListMidRemove
                0x00000000       0x28 build/default/production/_ext/1033058136/tcpip_helpers.o
 .text.TCPIP_Helper_DoubleListNodeRemove
                0x00000000       0x50 build/default/production/_ext/1033058136/tcpip_helpers.o
 .text.TCPIP_Helper_DoubleListFind
                0x00000000       0x48 build/default/production/_ext/1033058136/tcpip_helpers.o
 .text.TCPIP_Helper_ProtectedDoubleListInitialize
                0x00000000       0x4c build/default/production/_ext/1033058136/tcpip_helpers.o
 .text.TCPIP_Helper_ProtectedDoubleListDeinitialize
                0x00000000       0x68 build/default/production/_ext/1033058136/tcpip_helpers.o
 .text.TCPIP_Helper_ProtectedDoubleListHeadAdd
                0x00000000       0x60 build/default/production/_ext/1033058136/tcpip_helpers.o
 .text.TCPIP_Helper_ProtectedDoubleListTailAdd
                0x00000000       0x60 build/default/production/_ext/1033058136/tcpip_helpers.o
 .text.TCPIP_Helper_ProtectedDoubleListMidAdd
                0x00000000       0x70 build/default/production/_ext/1033058136/tcpip_helpers.o
 .text.TCPIP_Helper_ProtectedDoubleListHeadRemove
                0x00000000       0x60 build/default/production/_ext/1033058136/tcpip_helpers.o
 .text.TCPIP_Helper_ProtectedDoubleListTailRemove
                0x00000000       0x60 build/default/production/_ext/1033058136/tcpip_helpers.o
 .text.TCPIP_Helper_ProtectedDoubleListMidRemove
                0x00000000       0x60 build/default/production/_ext/1033058136/tcpip_helpers.o
 .text.TCPIP_Helper_ProtectedDoubleListNodeRemove
                0x00000000       0x60 build/default/production/_ext/1033058136/tcpip_helpers.o
 .text.TCPIP_Helper_ProtectedDoubleListRemoveAll
                0x00000000       0x58 build/default/production/_ext/1033058136/tcpip_helpers.o
 .text.TCPIP_Helper_ProtectedDoubleListLock
                0x00000000       0x2c build/default/production/_ext/1033058136/tcpip_helpers.o
 .text.TCPIP_Helper_ProtectedDoubleListUnlock
                0x00000000       0x2c build/default/production/_ext/1033058136/tcpip_helpers.o
 .text.TCPIP_Helper_TCPSecurePortGet
                0x00000000       0x2c build/default/production/_ext/1033058136/tcpip_helpers.o
 .text.TCPIP_Helper_UDPSecurePortGet
                0x00000000       0x2c build/default/production/_ext/1033058136/tcpip_helpers.o
 .text.TCPIP_Helper_SecurePortGetByIndex
                0x00000000       0x60 build/default/production/_ext/1033058136/tcpip_helpers.o
 .text.TCPIP_Helper_SecurePortSet
                0x00000000       0xc0 build/default/production/_ext/1033058136/tcpip_helpers.o
 .data          0x00000000        0x0 build/default/production/_ext/1033058136/tcpip_helper_c32.o
 .bss           0x00000000        0x0 build/default/production/_ext/1033058136/tcpip_helper_c32.o
 .reginfo       0x00000000       0x18 build/default/production/_ext/1033058136/tcpip_helper_c32.o
 .text          0x00000000        0x0 build/default/production/_ext/1033058136/tcpip_manager.o
 .data          0x00000000        0x0 build/default/production/_ext/1033058136/tcpip_manager.o
 .reginfo       0x00000000       0x18 build/default/production/_ext/1033058136/tcpip_manager.o
 .text._NetConfigStringToBuffer
                0x00000000       0xc8 build/default/production/_ext/1033058136/tcpip_manager.o
 .text.TCPIP_STACK_Status
                0x00000000       0x20 build/default/production/_ext/1033058136/tcpip_manager.o
 .text.TCPIP_STACK_InitializeDataGet
                0x00000000       0x60 build/default/production/_ext/1033058136/tcpip_manager.o
 .text.TCPIP_STACK_NetDefaultSet
                0x00000000       0x2c build/default/production/_ext/1033058136/tcpip_manager.o
 .text.TCPIP_STACK_NetMulticastGet
                0x00000000        0x8 build/default/production/_ext/1033058136/tcpip_manager.o
 .text.TCPIP_STACK_NetMulticastSet
                0x00000000        0x8 build/default/production/_ext/1033058136/tcpip_manager.o
 .text.TCPIP_STACK_MacToNet
                0x00000000       0x4c build/default/production/_ext/1033058136/tcpip_manager.o
 .text.TCPIP_STACK_MacToNetIndex
                0x00000000       0x54 build/default/production/_ext/1033058136/tcpip_manager.o
 .text.TCPIP_STACK_MACIdToNet
                0x00000000       0x5c build/default/production/_ext/1033058136/tcpip_manager.o
 .text.TCPIP_STACK_NetAliasNameGet
                0x00000000       0x8c build/default/production/_ext/1033058136/tcpip_manager.o
 .text.TCPIP_STACK_MACObjectGet
                0x00000000       0x18 build/default/production/_ext/1033058136/tcpip_manager.o
 .text.TCPIP_STACK_NetAddressGatewaySet
                0x00000000       0x34 build/default/production/_ext/1033058136/tcpip_manager.o
 .text.TCPIP_STACK_NetAddressGateway
                0x00000000       0x28 build/default/production/_ext/1033058136/tcpip_manager.o
 .text.TCPIP_STACK_NetAddressDnsPrimary
                0x00000000       0x28 build/default/production/_ext/1033058136/tcpip_manager.o
 .text.TCPIP_STACK_NetAddressDnsSecond
                0x00000000       0x28 build/default/production/_ext/1033058136/tcpip_manager.o
 .text.TCPIP_STACK_NetAddressDnsPrimarySet
                0x00000000       0x30 build/default/production/_ext/1033058136/tcpip_manager.o
 .text.TCPIP_STACK_NetAddressDnsSecondSet
                0x00000000       0x34 build/default/production/_ext/1033058136/tcpip_manager.o
 .text.TCPIP_STACK_NetAddressMacSet
                0x00000000       0x4c build/default/production/_ext/1033058136/tcpip_manager.o
 .text.TCPIP_STACK_NetBiosNameSet
                0x00000000       0x8c build/default/production/_ext/1033058136/tcpip_manager.o
 .text.TCPIP_STACK_NetMACIdGet
                0x00000000       0x28 build/default/production/_ext/1033058136/tcpip_manager.o
 .text.TCPIP_STACK_NetMACStatisticsGet
                0x00000000       0x50 build/default/production/_ext/1033058136/tcpip_manager.o
 .text.TCPIP_STACK_NetMACRegisterStatisticsGet
                0x00000000       0x50 build/default/production/_ext/1033058136/tcpip_manager.o
 .text.TCPIP_STACK_ModuleConfigGet
                0x00000000       0x74 build/default/production/_ext/1033058136/tcpip_manager.o
 .text.TCPIP_STACK_NetConfigGet
                0x00000000      0x104 build/default/production/_ext/1033058136/tcpip_manager.o
 .text.TCPIP_STACK_NetConfigSet
                0x00000000      0x2dc build/default/production/_ext/1033058136/tcpip_manager.o
 .text.TCPIP_STACK_StringToMACId
                0x00000000       0x9c build/default/production/_ext/1033058136/tcpip_manager.o
 .text.TCPIP_STACK_NetHandleGet
                0x00000000       0x84 build/default/production/_ext/1033058136/tcpip_manager.o
 .text.TCPIP_STACK_NetIsUp
                0x00000000       0x20 build/default/production/_ext/1033058136/tcpip_manager.o
 .text.TCPIP_STACK_DNSServiceSelect
                0x00000000       0x14 build/default/production/_ext/1033058136/tcpip_manager.o
 .text.TCPIP_STACK_NetAddressSet
                0x00000000       0xf8 build/default/production/_ext/1033058136/tcpip_manager.o
 .text._TCPIPStackAddressServiceIsRunning
                0x00000000        0xc build/default/production/_ext/1033058136/tcpip_manager.o
 .text.TCPIP_STACK_DNSServiceCanStart
                0x00000000       0x4c build/default/production/_ext/1033058136/tcpip_manager.o
 .text.TCPIP_STACK_AddressServiceEvent
                0x00000000       0x74 build/default/production/_ext/1033058136/tcpip_manager.o
 .text.TCPIP_STACK_EventsPendingGet
                0x00000000       0x4c build/default/production/_ext/1033058136/tcpip_manager.o
 .text.TCPIP_STACK_NetStaticIPv6AddressGet
                0x00000000        0x8 build/default/production/_ext/1033058136/tcpip_manager.o
 .text.TCPIP_STACK_NetDefaultIPv6GatewayGet
                0x00000000        0x8 build/default/production/_ext/1033058136/tcpip_manager.o
 .text.TCPIP_STACK_NetMaskGet
                0x00000000       0x30 build/default/production/_ext/1033058136/tcpip_manager.o
 .text.TCPIP_STACK_NetMask
                0x00000000       0x44 build/default/production/_ext/1033058136/tcpip_manager.o
 .text.TCPIP_STACK_PrimaryDNSAddressSet
                0x00000000       0x1c build/default/production/_ext/1033058136/tcpip_manager.o
 .text.TCPIP_STACK_SecondaryDNSAddressSet
                0x00000000       0x1c build/default/production/_ext/1033058136/tcpip_manager.o
 .text.TCPIP_STACK_AddressIsOfNetUp
                0x00000000       0x58 build/default/production/_ext/1033058136/tcpip_manager.o
 .text.TCPIP_STACK_NetIsLinked
                0x00000000       0x44 build/default/production/_ext/1033058136/tcpip_manager.o
 .text._TCPIPStackAnyNetDirected
                0x00000000       0x6c build/default/production/_ext/1033058136/tcpip_manager.o
 .text.TCPIP_STACK_NetMACId
                0x00000000       0x18 build/default/production/_ext/1033058136/tcpip_manager.o
 .text.TCPIP_STACK_NetToMAC
                0x00000000       0x18 build/default/production/_ext/1033058136/tcpip_manager.o
 .text.TCPIP_STACK_NetAddressMac
                0x00000000       0x1c build/default/production/_ext/1033058136/tcpip_manager.o
 .text.TCPIP_STACK_Deinitialize
                0x00000000       0x3c build/default/production/_ext/1033058136/tcpip_manager.o
 .text.TCPIP_STACK_NetUp
                0x00000000       0xf0 build/default/production/_ext/1033058136/tcpip_manager.o
 .text.TCPIP_STACK_NetDown
                0x00000000       0x64 build/default/production/_ext/1033058136/tcpip_manager.o
 .text.TCPIP_STACK_VersionGet
                0x00000000        0xc build/default/production/_ext/1033058136/tcpip_manager.o
 .text.TCPIP_STACK_VersionStrGet
                0x00000000        0xc build/default/production/_ext/1033058136/tcpip_manager.o
 .text.TCPIP_MODULE_SignalFunctionRegister
                0x00000000       0x84 build/default/production/_ext/1033058136/tcpip_manager.o
 .text.TCPIP_MODULE_SignalFunctionDeregister
                0x00000000       0x1c build/default/production/_ext/1033058136/tcpip_manager.o
 .text.TCPIP_MODULE_SignalGet
                0x00000000       0x50 build/default/production/_ext/1033058136/tcpip_manager.o
 .text.TCPIP_STACK_HeapHandleGet
                0x00000000       0x24 build/default/production/_ext/1033058136/tcpip_manager.o
 .text.TCPIP_STACK_HEAP_Size
                0x00000000       0x34 build/default/production/_ext/1033058136/tcpip_manager.o
 .text.TCPIP_STACK_HEAP_MaxSize
                0x00000000       0x34 build/default/production/_ext/1033058136/tcpip_manager.o
 .text.TCPIP_STACK_HEAP_FreeSize
                0x00000000       0x34 build/default/production/_ext/1033058136/tcpip_manager.o
 .text.TCPIP_STACK_HEAP_HighWatermark
                0x00000000       0x34 build/default/production/_ext/1033058136/tcpip_manager.o
 .text.TCPIP_STACK_HEAP_LastError
                0x00000000       0x34 build/default/production/_ext/1033058136/tcpip_manager.o
 .text._TCPIPStackHeapConfig
                0x00000000        0xc build/default/production/_ext/1033058136/tcpip_manager.o
 .text.TCPIP_STACK_NetGetType
                0x00000000        0x8 build/default/production/_ext/1033058136/tcpip_manager.o
 .text          0x00000000        0x0 build/default/production/_ext/1033058136/tcpip_notify.o
 .data          0x00000000        0x0 build/default/production/_ext/1033058136/tcpip_notify.o
 .bss           0x00000000        0x0 build/default/production/_ext/1033058136/tcpip_notify.o
 .reginfo       0x00000000       0x18 build/default/production/_ext/1033058136/tcpip_notify.o
 .text.TCPIP_Notification_CbackRemove
                0x00000000       0xb0 build/default/production/_ext/1033058136/tcpip_notify.o
 .text          0x00000000        0x0 build/default/production/_ext/1033058136/tcpip_packet.o
 .data          0x00000000        0x0 build/default/production/_ext/1033058136/tcpip_packet.o
 .bss           0x00000000        0x0 build/default/production/_ext/1033058136/tcpip_packet.o
 .reginfo       0x00000000       0x18 build/default/production/_ext/1033058136/tcpip_packet.o
 .text.TCPIP_PKT_SegmentAppend
                0x00000000       0x30 build/default/production/_ext/1033058136/tcpip_packet.o
 .text._TCPIP_PKT_SegmentAlloc
                0x00000000       0xb0 build/default/production/_ext/1033058136/tcpip_packet.o
 .text._TCPIP_PKT_SegmentFree
                0x00000000       0x38 build/default/production/_ext/1033058136/tcpip_packet.o
 .text          0x00000000        0x0 build/default/production/_ext/753841488/sys_time_h2_adapter.o
 .data          0x00000000        0x0 build/default/production/_ext/753841488/sys_time_h2_adapter.o
 .bss           0x00000000        0x0 build/default/production/_ext/753841488/sys_time_h2_adapter.o
 .reginfo       0x00000000       0x18 build/default/production/_ext/753841488/sys_time_h2_adapter.o
 .text.SYS_TMR_TickCountGetLong
                0x00000000       0x48 build/default/production/_ext/753841488/sys_time_h2_adapter.o
 .text          0x00000000        0x0 build/default/production/_ext/753841488/sys_random_h2_adapter.o
 .data          0x00000000        0x0 build/default/production/_ext/753841488/sys_random_h2_adapter.o
 .reginfo       0x00000000       0x18 build/default/production/_ext/753841488/sys_random_h2_adapter.o
 .text.SYS_RANDOM_CryptoDeinitialize
                0x00000000       0x1c build/default/production/_ext/753841488/sys_random_h2_adapter.o
 .text.SYS_RANDOM_CryptoByteGet
                0x00000000       0x30 build/default/production/_ext/753841488/sys_random_h2_adapter.o
 .text          0x00000000        0x0 build/default/production/_ext/1881668453/sys_int.o
 .data          0x00000000        0x0 build/default/production/_ext/1881668453/sys_int.o
 .bss           0x00000000        0x0 build/default/production/_ext/1881668453/sys_int.o
 .reginfo       0x00000000       0x18 build/default/production/_ext/1881668453/sys_int.o
 .text.SYS_INT_Enable
                0x00000000       0x1c build/default/production/_ext/1881668453/sys_int.o
 .text          0x00000000        0x0 build/default/production/_ext/1529399856/osal_freertos.o
 .data          0x00000000        0x0 build/default/production/_ext/1529399856/osal_freertos.o
 .bss           0x00000000        0x0 build/default/production/_ext/1529399856/osal_freertos.o
 .reginfo       0x00000000       0x18 build/default/production/_ext/1529399856/osal_freertos.o
 .text.OSAL_SEM_PostISR
                0x00000000       0x4c build/default/production/_ext/1529399856/osal_freertos.o
 .text.OSAL_SEM_GetCount
                0x00000000       0x2c build/default/production/_ext/1529399856/osal_freertos.o
 .text.OSAL_MUTEX_Delete
                0x00000000       0x3c build/default/production/_ext/1529399856/osal_freertos.o
 .text.OSAL_Malloc
                0x00000000       0x1c build/default/production/_ext/1529399856/osal_freertos.o
 .text.OSAL_Free
                0x00000000       0x1c build/default/production/_ext/1529399856/osal_freertos.o
 .text.OSAL_Initialize
                0x00000000        0x8 build/default/production/_ext/1529399856/osal_freertos.o
 .text          0x00000000        0x0 build/default/production/_ext/1360937237/app.o
 .data          0x00000000        0x0 build/default/production/_ext/1360937237/app.o
 .bss           0x00000000        0x0 build/default/production/_ext/1360937237/app.o
 .reginfo       0x00000000       0x18 build/default/production/_ext/1360937237/app.o
 .text          0x00000000        0x0 build/default/production/_ext/1171490990/tasks.o
 .data          0x00000000        0x0 build/default/production/_ext/1171490990/tasks.o
 .bss           0x00000000        0x0 build/default/production/_ext/1171490990/tasks.o
 .reginfo       0x00000000       0x18 build/default/production/_ext/1171490990/tasks.o
 .text          0x00000000        0x0 build/default/production/_ext/1171490990/interrupts_a.o
 .data          0x00000000        0x0 build/default/production/_ext/1171490990/interrupts_a.o
 .bss           0x00000000        0x0 build/default/production/_ext/1171490990/interrupts_a.o
 .reginfo       0x00000000       0x18 build/default/production/_ext/1171490990/interrupts_a.o
 .text          0x00000000        0x0 build/default/production/_ext/1033058136/tcpip_announce.o
 .data          0x00000000        0x0 build/default/production/_ext/1033058136/tcpip_announce.o
 .reginfo       0x00000000       0x18 build/default/production/_ext/1033058136/tcpip_announce.o
 .text.TCPIP_ANNOUNCE_MessageRequest
                0x00000000       0xe0 build/default/production/_ext/1033058136/tcpip_announce.o
 .text.TCPIP_ANNOUNCE_CallbackRegister
                0x00000000       0x24 build/default/production/_ext/1033058136/tcpip_announce.o
 .text          0x00000000        0x0 build/default/production/_ext/1033058136/udp.o
 .data          0x00000000        0x0 build/default/production/_ext/1033058136/udp.o
 .bss           0x00000000        0x0 build/default/production/_ext/1033058136/udp.o
 .reginfo       0x00000000       0x18 build/default/production/_ext/1033058136/udp.o
 .text.TCPIP_UDP_OpenClientSkt
                0x00000000       0x6c build/default/production/_ext/1033058136/udp.o
 .text.TCPIP_UDP_ClientOpen
                0x00000000       0x1c build/default/production/_ext/1033058136/udp.o
 .text.TCPIP_UDP_IsConnected
                0x00000000       0x5c build/default/production/_ext/1033058136/udp.o
 .text.TCPIP_UDP_Put
                0x00000000       0x24 build/default/production/_ext/1033058136/udp.o
 .text.TCPIP_UDP_StringPut
                0x00000000       0x60 build/default/production/_ext/1033058136/udp.o
 .text.TCPIP_UDP_TxCountGet
                0x00000000       0x54 build/default/production/_ext/1033058136/udp.o
 .text.TCPIP_UDP_RxOffsetSet
                0x00000000       0x84 build/default/production/_ext/1033058136/udp.o
 .text.TCPIP_UDP_DestinationPortSet
                0x00000000       0x48 build/default/production/_ext/1033058136/udp.o
 .text.TCPIP_UDP_SetSplitPayload
                0x00000000       0xa8 build/default/production/_ext/1033058136/udp.o
 .text.TCPIP_UDP_SignalHandlerDeregister
                0x00000000       0x78 build/default/production/_ext/1033058136/udp.o
 .text.TCPIP_UDP_SocketsNumberGet
                0x00000000        0x8 build/default/production/_ext/1033058136/udp.o
 .text          0x00000000        0x0 build/default/production/_ext/438849557/drv_miim.o
 .data          0x00000000        0x0 build/default/production/_ext/438849557/drv_miim.o
 .reginfo       0x00000000       0x18 build/default/production/_ext/438849557/drv_miim.o
 .text.Helper_SingleListInitialize
                0x00000000       0x10 build/default/production/_ext/438849557/drv_miim.o
 .text          0x00000000        0x0 build/default/production/_ext/444070925/drv_ethphy.o
 .data          0x00000000        0x0 build/default/production/_ext/444070925/drv_ethphy.o
 .reginfo       0x00000000       0x18 build/default/production/_ext/444070925/drv_ethphy.o
 .text          0x00000000        0x0 build/default/production/_ext/444070925/drv_extphy_smsc8720.o
 .data          0x00000000        0x0 build/default/production/_ext/444070925/drv_extphy_smsc8720.o
 .bss           0x00000000        0x0 build/default/production/_ext/444070925/drv_extphy_smsc8720.o
 .reginfo       0x00000000       0x18 build/default/production/_ext/444070925/drv_extphy_smsc8720.o
 .text          0x00000000        0x0 build/default/production/_ext/1664057780/arc4.o
 .data          0x00000000        0x0 build/default/production/_ext/1664057780/arc4.o
 .bss           0x00000000        0x0 build/default/production/_ext/1664057780/arc4.o
 .reginfo       0x00000000       0x18 build/default/production/_ext/1664057780/arc4.o
 .text          0x00000000        0x0 build/default/production/_ext/1664057780/asm.o
 .data          0x00000000        0x0 build/default/production/_ext/1664057780/asm.o
 .bss           0x00000000        0x0 build/default/production/_ext/1664057780/asm.o
 .reginfo       0x00000000       0x18 build/default/production/_ext/1664057780/asm.o
 .text          0x00000000        0x0 build/default/production/_ext/1664057780/asn.o
 .data          0x00000000        0x0 build/default/production/_ext/1664057780/asn.o
 .bss           0x00000000        0x0 build/default/production/_ext/1664057780/asn.o
 .reginfo       0x00000000       0x18 build/default/production/_ext/1664057780/asn.o
 .text.GetBoolean
                0x00000000       0x60 build/default/production/_ext/1664057780/asn.o
 .text.trim_leading_zeros
                0x00000000       0x74 build/default/production/_ext/1664057780/asn.o
 .text.CheckCurve
                0x00000000       0x3c build/default/production/_ext/1664057780/asn.o
 .text.MatchBaseName
                0x00000000      0x1e8 build/default/production/_ext/1664057780/asn.o
 .text.OurPasswordCb
                0x00000000       0x54 build/default/production/_ext/1664057780/asn.o
 .text.GetLength_ex
                0x00000000       0xc0 build/default/production/_ext/1664057780/asn.o
 .text.GetLength
                0x00000000       0x20 build/default/production/_ext/1664057780/asn.o
 .text.GetDateInfo
                0x00000000      0x10c build/default/production/_ext/1664057780/asn.o
 .text.GetASNTag
                0x00000000       0x60 build/default/production/_ext/1664057780/asn.o
 .text.GetASNHeader_ex
                0x00000000       0xb8 build/default/production/_ext/1664057780/asn.o
 .text.GetASNInt
                0x00000000       0xec build/default/production/_ext/1664057780/asn.o
 .text.GetSequence
                0x00000000       0x38 build/default/production/_ext/1664057780/asn.o
 .text.GetSequence_ex
                0x00000000       0x38 build/default/production/_ext/1664057780/asn.o
 .text.GetSet   0x00000000       0x38 build/default/production/_ext/1664057780/asn.o
 .text.GetSet_ex
                0x00000000       0x38 build/default/production/_ext/1664057780/asn.o
 .text.GetOctetString
                0x00000000       0x38 build/default/production/_ext/1664057780/asn.o
 .text.GetSigName
                0x00000000       0xac build/default/production/_ext/1664057780/asn.o
 .text.GetMyVersion
                0x00000000       0xb4 build/default/production/_ext/1664057780/asn.o
 .text.GetInt   0x00000000       0xa8 build/default/production/_ext/1664057780/asn.o
 .text.CheckBitString
                0x00000000      0x160 build/default/production/_ext/1664057780/asn.o
 .text.OidFromId
                0x00000000      0x9b4 build/default/production/_ext/1664057780/asn.o
 .text.GetASNObjectId
                0x00000000       0xcc build/default/production/_ext/1664057780/asn.o
 .text.SkipObjectId
                0x00000000       0x4c build/default/production/_ext/1664057780/asn.o
 .text.GetObjectId
                0x00000000      0x138 build/default/production/_ext/1664057780/asn.o
 .text.GetAlgoId
                0x00000000      0x128 build/default/production/_ext/1664057780/asn.o
 .text.wc_RsaPrivateKeyDecode
                0x00000000      0x1a8 build/default/production/_ext/1664057780/asn.o
 .text.ToTraditionalInline_ex
                0x00000000      0x144 build/default/production/_ext/1664057780/asn.o
 .text.ToTraditionalInline
                0x00000000       0x1c build/default/production/_ext/1664057780/asn.o
 .text.ToTraditional_ex
                0x00000000       0x90 build/default/production/_ext/1664057780/asn.o
 .text.ToTraditional
                0x00000000       0x1c build/default/production/_ext/1664057780/asn.o
 .text.wc_GetPkcs8TraditionalOffset
                0x00000000       0x58 build/default/production/_ext/1664057780/asn.o
 .text.wc_RsaPublicKeyDecode_ex
                0x00000000      0x26c build/default/production/_ext/1664057780/asn.o
 .text.wc_RsaPublicKeyDecodeRaw
                0x00000000       0xfc build/default/production/_ext/1664057780/asn.o
 .text.wc_RsaPublicKeyDecode
                0x00000000       0x88 build/default/production/_ext/1664057780/asn.o
 .text.FreeAltNames
                0x00000000       0x58 build/default/production/_ext/1664057780/asn.o
 .text.FreeNameSubtrees
                0x00000000       0x58 build/default/production/_ext/1664057780/asn.o
 .text.CalcHashId
                0x00000000       0x1c build/default/production/_ext/1664057780/asn.o
 .rodata        0x00000000      0x514 build/default/production/_ext/1664057780/asn.o
 .text.GetName  0x00000000      0x5ec build/default/production/_ext/1664057780/asn.o
 .text.ExtractDate
                0x00000000      0x41c build/default/production/_ext/1664057780/asn.o
 .text.DateGreaterThan
                0x00000000       0xfc build/default/production/_ext/1664057780/asn.o
 .text.wc_ValidateDate
                0x00000000      0x1dc build/default/production/_ext/1664057780/asn.o
 .text.GetDate  0x00000000      0x120 build/default/production/_ext/1664057780/asn.o
 .text.wc_GetTime
                0x00000000       0x48 build/default/production/_ext/1664057780/asn.o
 .text.wc_GetDateInfo
                0x00000000       0x34 build/default/production/_ext/1664057780/asn.o
 .text.wc_GetDateAsCalendarTime
                0x00000000       0x34 build/default/production/_ext/1664057780/asn.o
 .text.SetLength
                0x00000000       0xe0 build/default/production/_ext/1664057780/asn.o
 .text.SetASNInt
                0x00000000       0x7c build/default/production/_ext/1664057780/asn.o
 .text.SetASNIntMP
                0x00000000       0xc0 build/default/production/_ext/1664057780/asn.o
 .text.SetBitString
                0x00000000       0x64 build/default/production/_ext/1664057780/asn.o
 .text.SetObjectId
                0x00000000       0x3c build/default/production/_ext/1664057780/asn.o
 .text.SetCurve
                0x00000000       0x80 build/default/production/_ext/1664057780/asn.o
 .text.SetSequence
                0x00000000       0x38 build/default/production/_ext/1664057780/asn.o
 .text.SetOctetString
                0x00000000       0x28 build/default/production/_ext/1664057780/asn.o
 .text.SetSet   0x00000000       0x28 build/default/production/_ext/1664057780/asn.o
 .text.SetImplicit
                0x00000000       0x44 build/default/production/_ext/1664057780/asn.o
 .text.SetExplicit
                0x00000000       0x30 build/default/production/_ext/1664057780/asn.o
 .text.SetAlgoID
                0x00000000      0x1cc build/default/production/_ext/1664057780/asn.o
 .text.SetEccPublicKey
                0x00000000      0x144 build/default/production/_ext/1664057780/asn.o
 .text.wc_EncodeSignature
                0x00000000       0xc4 build/default/production/_ext/1664057780/asn.o
 .text.wc_GetCTC_HashOID
                0x00000000       0x2c build/default/production/_ext/1664057780/asn.o
 .text.InitSignatureCtx
                0x00000000       0x50 build/default/production/_ext/1664057780/asn.o
 .text.InitDecodedCert
                0x00000000       0x80 build/default/production/_ext/1664057780/asn.o
 .text.FreeSignatureCtx
                0x00000000       0xd0 build/default/production/_ext/1664057780/asn.o
 .text.FreeDecodedCert
                0x00000000       0xe8 build/default/production/_ext/1664057780/asn.o
 .text.GetCA    0x00000000        0x8 build/default/production/_ext/1664057780/asn.o
 .text.GetCAByName
                0x00000000        0x8 build/default/production/_ext/1664057780/asn.o
 .text.MakeSigner
                0x00000000       0x40 build/default/production/_ext/1664057780/asn.o
 .text.FreeSigner
                0x00000000       0x88 build/default/production/_ext/1664057780/asn.o
 .text.FreeSignerTable
                0x00000000       0x88 build/default/production/_ext/1664057780/asn.o
 .text.SetMyVersion
                0x00000000       0x4c build/default/production/_ext/1664057780/asn.o
 .text.wc_CreatePKCS8Key
                0x00000000      0x230 build/default/production/_ext/1664057780/asn.o
 .text.wc_BuildEccKeyDer
                0x00000000      0x310 build/default/production/_ext/1664057780/asn.o
 .text.eccToPKCS8
                0x00000000      0x1c4 build/default/production/_ext/1664057780/asn.o
 .text.SetSerialNumber
                0x00000000      0x11c build/default/production/_ext/1664057780/asn.o
 .text.GetSerialNumber
                0x00000000       0xcc build/default/production/_ext/1664057780/asn.o
 .text.wc_GetPubX509
                0x00000000      0x234 build/default/production/_ext/1664057780/asn.o
 .text.DecodeToKey
                0x00000000      0x284 build/default/production/_ext/1664057780/asn.o
 .text.AllocDer
                0x00000000      0x134 build/default/production/_ext/1664057780/asn.o
 .text.FreeDer  0x00000000       0x70 build/default/production/_ext/1664057780/asn.o
 .text.wc_AllocDer
                0x00000000       0x1c build/default/production/_ext/1664057780/asn.o
 .text.wc_FreeDer
                0x00000000       0x1c build/default/production/_ext/1664057780/asn.o
 .text.wc_PemGetHeaderFooter
                0x00000000      0x1f0 build/default/production/_ext/1664057780/asn.o
 .text.PemToDer
                0x00000000      0x32c build/default/production/_ext/1664057780/asn.o
 .text.wc_PemToDer
                0x00000000       0x30 build/default/production/_ext/1664057780/asn.o
 .text.wc_KeyPemToDer
                0x00000000      0x104 build/default/production/_ext/1664057780/asn.o
 .text.wc_CertPemToDer
                0x00000000       0xe0 build/default/production/_ext/1664057780/asn.o
 .text.wc_EccPublicKeyToDer
                0x00000000       0xbc build/default/production/_ext/1664057780/asn.o
 .text.wc_EccPublicKeyDerSize
                0x00000000       0x24 build/default/production/_ext/1664057780/asn.o
 .text.StoreECC_DSA_Sig
                0x00000000      0x100 build/default/production/_ext/1664057780/asn.o
 .text.StoreECC_DSA_Sig_Bin
                0x00000000      0x16c build/default/production/_ext/1664057780/asn.o
 .text.DecodeECC_DSA_Sig_Bin
                0x00000000      0x134 build/default/production/_ext/1664057780/asn.o
 .text.DecodeECC_DSA_Sig
                0x00000000       0xd4 build/default/production/_ext/1664057780/asn.o
 .text.wc_EccPrivateKeyDecode
                0x00000000      0x2b8 build/default/production/_ext/1664057780/asn.o
 .text.wc_CheckPrivateKey
                0x00000000      0x200 build/default/production/_ext/1664057780/asn.o
 .text.wc_CheckPrivateKeyCert
                0x00000000       0x50 build/default/production/_ext/1664057780/asn.o
 .text.wc_EccPublicKeyDecode
                0x00000000      0x2fc build/default/production/_ext/1664057780/asn.o
 .text.ConfirmSignature
                0x00000000      0x454 build/default/production/_ext/1664057780/asn.o
 .text.ParseCertRelative
                0x00000000     0x1aa4 build/default/production/_ext/1664057780/asn.o
 .text.ParseCert
                0x00000000      0x108 build/default/production/_ext/1664057780/asn.o
 .text.wc_EccKeyToDer
                0x00000000       0x1c build/default/production/_ext/1664057780/asn.o
 .text.wc_EccPrivateKeyToDer
                0x00000000       0x1c build/default/production/_ext/1664057780/asn.o
 .text.wc_EccPrivateKeyToPKCS8
                0x00000000       0x1c build/default/production/_ext/1664057780/asn.o
 .text.wc_EccKeyToPKCS8
                0x00000000       0x1c build/default/production/_ext/1664057780/asn.o
 .text.GetNameHash
                0x00000000       0xf0 build/default/production/_ext/1664057780/asn.o
 .text          0x00000000        0x0 build/default/production/_ext/1664057780/blake2b.o
 .data          0x00000000        0x0 build/default/production/_ext/1664057780/blake2b.o
 .bss           0x00000000        0x0 build/default/production/_ext/1664057780/blake2b.o
 .reginfo       0x00000000       0x18 build/default/production/_ext/1664057780/blake2b.o
 .text          0x00000000        0x0 build/default/production/_ext/1664057780/blake2s.o
 .data          0x00000000        0x0 build/default/production/_ext/1664057780/blake2s.o
 .bss           0x00000000        0x0 build/default/production/_ext/1664057780/blake2s.o
 .reginfo       0x00000000       0x18 build/default/production/_ext/1664057780/blake2s.o
 .text          0x00000000        0x0 build/default/production/_ext/1664057780/camellia.o
 .data          0x00000000        0x0 build/default/production/_ext/1664057780/camellia.o
 .bss           0x00000000        0x0 build/default/production/_ext/1664057780/camellia.o
 .reginfo       0x00000000       0x18 build/default/production/_ext/1664057780/camellia.o
 .text          0x00000000        0x0 build/default/production/_ext/1664057780/chacha.o
 .data          0x00000000        0x0 build/default/production/_ext/1664057780/chacha.o
 .bss           0x00000000        0x0 build/default/production/_ext/1664057780/chacha.o
 .reginfo       0x00000000       0x18 build/default/production/_ext/1664057780/chacha.o
 .text          0x00000000        0x0 build/default/production/_ext/1664057780/chacha20_poly1305.o
 .data          0x00000000        0x0 build/default/production/_ext/1664057780/chacha20_poly1305.o
 .bss           0x00000000        0x0 build/default/production/_ext/1664057780/chacha20_poly1305.o
 .reginfo       0x00000000       0x18 build/default/production/_ext/1664057780/chacha20_poly1305.o
 .text          0x00000000        0x0 build/default/production/_ext/1664057780/cmac.o
 .data          0x00000000        0x0 build/default/production/_ext/1664057780/cmac.o
 .bss           0x00000000        0x0 build/default/production/_ext/1664057780/cmac.o
 .reginfo       0x00000000       0x18 build/default/production/_ext/1664057780/cmac.o
 .text          0x00000000        0x0 build/default/production/_ext/1664057780/coding.o
 .data          0x00000000        0x0 build/default/production/_ext/1664057780/coding.o
 .bss           0x00000000        0x0 build/default/production/_ext/1664057780/coding.o
 .reginfo       0x00000000       0x18 build/default/production/_ext/1664057780/coding.o
 .text.Base64_Decode
                0x00000000      0x68c build/default/production/_ext/1664057780/coding.o
 .rodata        0x00000000       0x50 build/default/production/_ext/1664057780/coding.o
 .text          0x00000000        0x0 build/default/production/_ext/1664057780/compress.o
 .data          0x00000000        0x0 build/default/production/_ext/1664057780/compress.o
 .bss           0x00000000        0x0 build/default/production/_ext/1664057780/compress.o
 .reginfo       0x00000000       0x18 build/default/production/_ext/1664057780/compress.o
 .text          0x00000000        0x0 build/default/production/_ext/1664057780/cpuid.o
 .data          0x00000000        0x0 build/default/production/_ext/1664057780/cpuid.o
 .bss           0x00000000        0x0 build/default/production/_ext/1664057780/cpuid.o
 .reginfo       0x00000000       0x18 build/default/production/_ext/1664057780/cpuid.o
 .text          0x00000000        0x0 build/default/production/_ext/1664057780/cryptocb.o
 .data          0x00000000        0x0 build/default/production/_ext/1664057780/cryptocb.o
 .reginfo       0x00000000       0x18 build/default/production/_ext/1664057780/cryptocb.o
 .text.wc_CryptoCb_Init
                0x00000000       0x28 build/default/production/_ext/1664057780/cryptocb.o
 .text.wc_CryptoCb_GetDevIdAtIndex
                0x00000000       0x28 build/default/production/_ext/1664057780/cryptocb.o
 .text.wc_CryptoCb_UnRegisterDevice
                0x00000000       0x48 build/default/production/_ext/1664057780/cryptocb.o
 .text.wc_CryptoCb_Rsa
                0x00000000       0xf4 build/default/production/_ext/1664057780/cryptocb.o
 .text.wc_CryptoCb_RsaCheckPrivKey
                0x00000000       0xc4 build/default/production/_ext/1664057780/cryptocb.o
 .text.wc_CryptoCb_MakeEccKey
                0x00000000       0xd4 build/default/production/_ext/1664057780/cryptocb.o
 .text.wc_CryptoCb_Ecdh
                0x00000000       0xd0 build/default/production/_ext/1664057780/cryptocb.o
 .text.wc_CryptoCb_EccSign
                0x00000000       0xec build/default/production/_ext/1664057780/cryptocb.o
 .text.wc_CryptoCb_EccVerify
                0x00000000       0xec build/default/production/_ext/1664057780/cryptocb.o
 .text.wc_CryptoCb_EccCheckPrivKey
                0x00000000       0xc4 build/default/production/_ext/1664057780/cryptocb.o
 .text.wc_CryptoCb_AesGcmEncrypt
                0x00000000      0x110 build/default/production/_ext/1664057780/cryptocb.o
 .text.wc_CryptoCb_AesGcmDecrypt
                0x00000000      0x108 build/default/production/_ext/1664057780/cryptocb.o
 .text.wc_CryptoCb_AesCbcEncrypt
                0x00000000       0xdc build/default/production/_ext/1664057780/cryptocb.o
 .text.wc_CryptoCb_AesCbcDecrypt
                0x00000000       0xd4 build/default/production/_ext/1664057780/cryptocb.o
 .text.wc_CryptoCb_Des3Encrypt
                0x00000000       0xe0 build/default/production/_ext/1664057780/cryptocb.o
 .text.wc_CryptoCb_Des3Decrypt
                0x00000000       0xd8 build/default/production/_ext/1664057780/cryptocb.o
 .text.wc_CryptoCb_ShaHash
                0x00000000       0xd8 build/default/production/_ext/1664057780/cryptocb.o
 .text.wc_CryptoCb_Hmac
                0x00000000       0xd4 build/default/production/_ext/1664057780/cryptocb.o
 .text.wc_CryptoCb_RandomSeed
                0x00000000       0xb0 build/default/production/_ext/1664057780/cryptocb.o
 .text          0x00000000        0x0 build/default/production/_ext/1664057780/curve25519.o
 .data          0x00000000        0x0 build/default/production/_ext/1664057780/curve25519.o
 .bss           0x00000000        0x0 build/default/production/_ext/1664057780/curve25519.o
 .reginfo       0x00000000       0x18 build/default/production/_ext/1664057780/curve25519.o
 .text          0x00000000        0x0 build/default/production/_ext/1664057780/curve448.o
 .data          0x00000000        0x0 build/default/production/_ext/1664057780/curve448.o
 .bss           0x00000000        0x0 build/default/production/_ext/1664057780/curve448.o
 .reginfo       0x00000000       0x18 build/default/production/_ext/1664057780/curve448.o
 .text          0x00000000        0x0 build/default/production/_ext/1664057780/dh.o
 .data          0x00000000        0x0 build/default/production/_ext/1664057780/dh.o
 .bss           0x00000000        0x0 build/default/production/_ext/1664057780/dh.o
 .reginfo       0x00000000       0x18 build/default/production/_ext/1664057780/dh.o
 .text          0x00000000        0x0 build/default/production/_ext/1664057780/dsa.o
 .data          0x00000000        0x0 build/default/production/_ext/1664057780/dsa.o
 .bss           0x00000000        0x0 build/default/production/_ext/1664057780/dsa.o
 .reginfo       0x00000000       0x18 build/default/production/_ext/1664057780/dsa.o
 .text          0x00000000        0x0 build/default/production/_ext/1664057780/ecc.o
 .data          0x00000000        0x0 build/default/production/_ext/1664057780/ecc.o
 .bss           0x00000000        0x0 build/default/production/_ext/1664057780/ecc.o
 .reginfo       0x00000000       0x18 build/default/production/_ext/1664057780/ecc.o
 .text.ecc_point_to_mont
                0x00000000      0x108 build/default/production/_ext/1664057780/ecc.o
 .text.wc_ecc_cmp_param
                0x00000000       0xe4 build/default/production/_ext/1664057780/ecc.o
 .text.wc_ecc_curve_cache_load_item
                0x00000000       0xb4 build/default/production/_ext/1664057780/ecc.o
 .text.wc_ecc_curve_free
                0x00000000      0x11c build/default/production/_ext/1664057780/ecc.o
 .text.wc_ecc_curve_load
                0x00000000      0x148 build/default/production/_ext/1664057780/ecc.o
 .text.wc_ecc_get_curve_order_bit_count
                0x00000000       0x84 build/default/production/_ext/1664057780/ecc.o
 .text.wc_ecc_set_curve
                0x00000000       0xcc build/default/production/_ext/1664057780/ecc.o
 .text.wc_ecc_import_raw_private
                0x00000000      0x244 build/default/production/_ext/1664057780/ecc.o
 .text.ecc_projective_dbl_point
                0x00000000      0x398 build/default/production/_ext/1664057780/ecc.o
 .text.ecc_projective_add_point
                0x00000000      0x658 build/default/production/_ext/1664057780/ecc.o
 .text.ecc_map_ex
                0x00000000      0x1f0 build/default/production/_ext/1664057780/ecc.o
 .text.ecc_map  0x00000000       0x1c build/default/production/_ext/1664057780/ecc.o
 .text.wc_ecc_new_point_h
                0x00000000       0x78 build/default/production/_ext/1664057780/ecc.o
 .text.wc_ecc_new_point
                0x00000000       0x1c build/default/production/_ext/1664057780/ecc.o
 .text.wc_ecc_del_point_h
                0x00000000       0x44 build/default/production/_ext/1664057780/ecc.o
 .text.wc_ecc_del_point
                0x00000000       0x1c build/default/production/_ext/1664057780/ecc.o
 .text.wc_ecc_copy_point
                0x00000000       0x80 build/default/production/_ext/1664057780/ecc.o
 .text.wc_ecc_cmp_point
                0x00000000       0x80 build/default/production/_ext/1664057780/ecc.o
 .text.wc_ecc_is_valid_idx
                0x00000000       0x14 build/default/production/_ext/1664057780/ecc.o
 .text.wc_ecc_get_curve_idx
                0x00000000       0x48 build/default/production/_ext/1664057780/ecc.o
 .text.wc_ecc_get_name
                0x00000000       0x50 build/default/production/_ext/1664057780/ecc.o
 .text.wc_ecc_get_curve_id
                0x00000000       0x54 build/default/production/_ext/1664057780/ecc.o
 .text.wc_ecc_get_curve_size_from_id
                0x00000000       0x50 build/default/production/_ext/1664057780/ecc.o
 .text.wc_ecc_get_curve_idx_from_name
                0x00000000       0x9c build/default/production/_ext/1664057780/ecc.o
 .text.wc_ecc_get_curve_size_from_name
                0x00000000       0x58 build/default/production/_ext/1664057780/ecc.o
 .text.wc_ecc_get_curve_id_from_name
                0x00000000       0x58 build/default/production/_ext/1664057780/ecc.o
 .text.wc_ecc_get_curve_id_from_params
                0x00000000      0x1dc build/default/production/_ext/1664057780/ecc.o
 .text.wc_ecc_get_curve_id_from_dp_params
                0x00000000      0x1fc build/default/production/_ext/1664057780/ecc.o
 .text.wc_ecc_get_curve_id_from_oid
                0x00000000       0xcc build/default/production/_ext/1664057780/ecc.o
 .text.wc_ecc_get_curve_params
                0x00000000       0x34 build/default/production/_ext/1664057780/ecc.o
 .text.wc_ecc_point_is_at_infinity
                0x00000000       0x4c build/default/production/_ext/1664057780/ecc.o
 .text.wc_ecc_gen_k
                0x00000000       0xc8 build/default/production/_ext/1664057780/ecc.o
 .text.wc_ecc_init_ex
                0x00000000       0x7c build/default/production/_ext/1664057780/ecc.o
 .text.wc_ecc_key_new
                0x00000000       0x60 build/default/production/_ext/1664057780/ecc.o
 .text.wc_ecc_init
                0x00000000       0x20 build/default/production/_ext/1664057780/ecc.o
 .text.wc_ecc_init_id
                0x00000000       0xa0 build/default/production/_ext/1664057780/ecc.o
 .text.wc_ecc_init_label
                0x00000000       0xcc build/default/production/_ext/1664057780/ecc.o
 .text.wc_ecc_set_flags
                0x00000000       0x24 build/default/production/_ext/1664057780/ecc.o
 .text.wc_ecc_free
                0x00000000       0x48 build/default/production/_ext/1664057780/ecc.o
 .text.wc_ecc_key_free
                0x00000000       0x4c build/default/production/_ext/1664057780/ecc.o
 .text.ecc_projective_add_point_safe
                0x00000000      0x21c build/default/production/_ext/1664057780/ecc.o
 .text.ecc_projective_dbl_point_safe
                0x00000000       0x8c build/default/production/_ext/1664057780/ecc.o
 .text.ecc_mulmod
                0x00000000      0x438 build/default/production/_ext/1664057780/ecc.o
 .text.wc_ecc_mulmod_ex
                0x00000000      0x1c4 build/default/production/_ext/1664057780/ecc.o
 .text.wc_ecc_mulmod
                0x00000000       0x2c build/default/production/_ext/1664057780/ecc.o
 .text.wc_ecc_mulmod_ex2
                0x00000000      0x1d4 build/default/production/_ext/1664057780/ecc.o
 .text.wc_ecc_shared_secret_gen
                0x00000000      0x200 build/default/production/_ext/1664057780/ecc.o
 .text.wc_ecc_shared_secret_ex
                0x00000000      0x110 build/default/production/_ext/1664057780/ecc.o
 .text.wc_ecc_shared_secret
                0x00000000      0x104 build/default/production/_ext/1664057780/ecc.o
 .text.ecc_make_pub_ex
                0x00000000      0x2ac build/default/production/_ext/1664057780/ecc.o
 .text.wc_ecc_make_pub
                0x00000000       0x24 build/default/production/_ext/1664057780/ecc.o
 .text.wc_ecc_make_pub_ex
                0x00000000       0x28 build/default/production/_ext/1664057780/ecc.o
 .text.wc_ecc_make_key_ex2
                0x00000000      0x17c build/default/production/_ext/1664057780/ecc.o
 .text.wc_ecc_make_key_ex
                0x00000000       0x1c build/default/production/_ext/1664057780/ecc.o
 .text.wc_ecc_make_key
                0x00000000       0x1c build/default/production/_ext/1664057780/ecc.o
 .text.wc_ecc_sign_hash_ex
                0x00000000      0x3a4 build/default/production/_ext/1664057780/ecc.o
 .text.wc_ecc_sign_hash
                0x00000000      0x16c build/default/production/_ext/1664057780/ecc.o
 .text.wc_ecc_verify_hash_ex
                0x00000000      0x60c build/default/production/_ext/1664057780/ecc.o
 .text.wc_ecc_verify_hash
                0x00000000      0x1a4 build/default/production/_ext/1664057780/ecc.o
 .text.wc_ecc_import_point_der_ex
                0x00000000      0x168 build/default/production/_ext/1664057780/ecc.o
 .text.wc_ecc_import_point_der
                0x00000000       0x20 build/default/production/_ext/1664057780/ecc.o
 .text.wc_ecc_export_point_der
                0x00000000      0x190 build/default/production/_ext/1664057780/ecc.o
 .text.wc_ecc_export_point_der_ex
                0x00000000       0x30 build/default/production/_ext/1664057780/ecc.o
 .text.wc_ecc_export_x963
                0x00000000      0x1d0 build/default/production/_ext/1664057780/ecc.o
 .text.wc_ecc_export_x963_ex
                0x00000000       0x30 build/default/production/_ext/1664057780/ecc.o
 .text.wc_ecc_is_point
                0x00000000      0x1d0 build/default/production/_ext/1664057780/ecc.o
 .text.wc_ecc_check_key
                0x00000000      0x3f4 build/default/production/_ext/1664057780/ecc.o
 .text.wc_ecc_import_x963_ex
                0x00000000      0x19c build/default/production/_ext/1664057780/ecc.o
 .text.wc_ecc_import_x963
                0x00000000       0x1c build/default/production/_ext/1664057780/ecc.o
 .text.wc_ecc_export_ex
                0x00000000      0x174 build/default/production/_ext/1664057780/ecc.o
 .text.wc_ecc_export_private_only
                0x00000000       0x5c build/default/production/_ext/1664057780/ecc.o
 .text.wc_ecc_export_public_raw
                0x00000000       0x58 build/default/production/_ext/1664057780/ecc.o
 .text.wc_ecc_export_private_raw
                0x00000000       0x38 build/default/production/_ext/1664057780/ecc.o
 .text.wc_ecc_import_private_key_ex
                0x00000000       0xe0 build/default/production/_ext/1664057780/ecc.o
 .text.wc_ecc_import_private_key
                0x00000000       0x24 build/default/production/_ext/1664057780/ecc.o
 .text.wc_ecc_rs_to_sig
                0x00000000      0x12c build/default/production/_ext/1664057780/ecc.o
 .text.wc_ecc_rs_raw_to_sig
                0x00000000       0x60 build/default/production/_ext/1664057780/ecc.o
 .text.wc_ecc_sig_to_rs
                0x00000000       0x58 build/default/production/_ext/1664057780/ecc.o
 .text.wc_ecc_import_raw_ex
                0x00000000       0x28 build/default/production/_ext/1664057780/ecc.o
 .text.wc_ecc_import_unsigned
                0x00000000       0x28 build/default/production/_ext/1664057780/ecc.o
 .text.wc_ecc_import_raw
                0x00000000      0x138 build/default/production/_ext/1664057780/ecc.o
 .text.wc_ecc_size
                0x00000000       0x1c build/default/production/_ext/1664057780/ecc.o
 .text.wc_ecc_sig_size_calc
                0x00000000       0x1c build/default/production/_ext/1664057780/ecc.o
 .text.wc_ecc_sig_size
                0x00000000       0x90 build/default/production/_ext/1664057780/ecc.o
 .text.wc_ecc_get_oid
                0x00000000       0xd0 build/default/production/_ext/1664057780/ecc.o
 .rodata        0x00000000      0xb90 build/default/production/_ext/1664057780/ecc.o
 .text          0x00000000        0x0 build/default/production/_ext/1664057780/ecc_fp.o
 .data          0x00000000        0x0 build/default/production/_ext/1664057780/ecc_fp.o
 .bss           0x00000000        0x0 build/default/production/_ext/1664057780/ecc_fp.o
 .reginfo       0x00000000       0x18 build/default/production/_ext/1664057780/ecc_fp.o
 .text          0x00000000        0x0 build/default/production/_ext/1664057780/ed25519.o
 .data          0x00000000        0x0 build/default/production/_ext/1664057780/ed25519.o
 .bss           0x00000000        0x0 build/default/production/_ext/1664057780/ed25519.o
 .reginfo       0x00000000       0x18 build/default/production/_ext/1664057780/ed25519.o
 .text          0x00000000        0x0 build/default/production/_ext/1664057780/ed448.o
 .data          0x00000000        0x0 build/default/production/_ext/1664057780/ed448.o
 .bss           0x00000000        0x0 build/default/production/_ext/1664057780/ed448.o
 .reginfo       0x00000000       0x18 build/default/production/_ext/1664057780/ed448.o
 .text          0x00000000        0x0 build/default/production/_ext/1664057780/error.o
 .data          0x00000000        0x0 build/default/production/_ext/1664057780/error.o
 .bss           0x00000000        0x0 build/default/production/_ext/1664057780/error.o
 .reginfo       0x00000000       0x18 build/default/production/_ext/1664057780/error.o
 .text          0x00000000        0x0 build/default/production/_ext/1664057780/fe_448.o
 .data          0x00000000        0x0 build/default/production/_ext/1664057780/fe_448.o
 .bss           0x00000000        0x0 build/default/production/_ext/1664057780/fe_448.o
 .reginfo       0x00000000       0x18 build/default/production/_ext/1664057780/fe_448.o
 .text          0x00000000        0x0 build/default/production/_ext/1664057780/fe_low_mem.o
 .data          0x00000000        0x0 build/default/production/_ext/1664057780/fe_low_mem.o
 .bss           0x00000000        0x0 build/default/production/_ext/1664057780/fe_low_mem.o
 .reginfo       0x00000000       0x18 build/default/production/_ext/1664057780/fe_low_mem.o
 .text          0x00000000        0x0 build/default/production/_ext/1664057780/fe_operations.o
 .data          0x00000000        0x0 build/default/production/_ext/1664057780/fe_operations.o
 .bss           0x00000000        0x0 build/default/production/_ext/1664057780/fe_operations.o
 .reginfo       0x00000000       0x18 build/default/production/_ext/1664057780/fe_operations.o
 .text          0x00000000        0x0 build/default/production/_ext/1664057780/ge_448.o
 .data          0x00000000        0x0 build/default/production/_ext/1664057780/ge_448.o
 .bss           0x00000000        0x0 build/default/production/_ext/1664057780/ge_448.o
 .reginfo       0x00000000       0x18 build/default/production/_ext/1664057780/ge_448.o
 .text          0x00000000        0x0 build/default/production/_ext/1664057780/ge_low_mem.o
 .data          0x00000000        0x0 build/default/production/_ext/1664057780/ge_low_mem.o
 .bss           0x00000000        0x0 build/default/production/_ext/1664057780/ge_low_mem.o
 .reginfo       0x00000000       0x18 build/default/production/_ext/1664057780/ge_low_mem.o
 .text          0x00000000        0x0 build/default/production/_ext/1664057780/ge_operations.o
 .data          0x00000000        0x0 build/default/production/_ext/1664057780/ge_operations.o
 .bss           0x00000000        0x0 build/default/production/_ext/1664057780/ge_operations.o
 .reginfo       0x00000000       0x18 build/default/production/_ext/1664057780/ge_operations.o
 .text          0x00000000        0x0 build/default/production/_ext/1664057780/hash.o
 .data          0x00000000        0x0 build/default/production/_ext/1664057780/hash.o
 .bss           0x00000000        0x0 build/default/production/_ext/1664057780/hash.o
 .reginfo       0x00000000       0x18 build/default/production/_ext/1664057780/hash.o
 .text.wc_HashTypeConvert
                0x00000000       0x14 build/default/production/_ext/1664057780/hash.o
 .text.wc_HashGetOID
                0x00000000       0x8c build/default/production/_ext/1664057780/hash.o
 .text.wc_OidGetHash
                0x00000000       0x50 build/default/production/_ext/1664057780/hash.o
 .text.wc_HashGetDigestSize
                0x00000000       0x9c build/default/production/_ext/1664057780/hash.o
 .text.wc_HashGetBlockSize
                0x00000000       0x84 build/default/production/_ext/1664057780/hash.o
 .text.wc_HashInit_ex
                0x00000000       0xd0 build/default/production/_ext/1664057780/hash.o
 .text.wc_HashInit
                0x00000000       0x20 build/default/production/_ext/1664057780/hash.o
 .text.wc_HashUpdate
                0x00000000       0xdc build/default/production/_ext/1664057780/hash.o
 .text.wc_HashFinal
                0x00000000       0xc8 build/default/production/_ext/1664057780/hash.o
 .text.wc_HashFree
                0x00000000       0xc0 build/default/production/_ext/1664057780/hash.o
 .text.wc_HashSetFlags
                0x00000000       0xc0 build/default/production/_ext/1664057780/hash.o
 .text.wc_HashGetFlags
                0x00000000       0xc0 build/default/production/_ext/1664057780/hash.o
 .text.wc_Md5Hash
                0x00000000       0x84 build/default/production/_ext/1664057780/hash.o
 .text.wc_ShaHash
                0x00000000       0xa8 build/default/production/_ext/1664057780/hash.o
 .text.wc_Sha224Hash
                0x00000000       0x84 build/default/production/_ext/1664057780/hash.o
 .text.wc_Sha256Hash
                0x00000000       0xa8 build/default/production/_ext/1664057780/hash.o
 .text.wc_Hash  0x00000000      0x14c build/default/production/_ext/1664057780/hash.o
 .text          0x00000000        0x0 build/default/production/_ext/1664057780/hc128.o
 .data          0x00000000        0x0 build/default/production/_ext/1664057780/hc128.o
 .bss           0x00000000        0x0 build/default/production/_ext/1664057780/hc128.o
 .reginfo       0x00000000       0x18 build/default/production/_ext/1664057780/hc128.o
 .text          0x00000000        0x0 build/default/production/_ext/1664057780/hmac.o
 .data          0x00000000        0x0 build/default/production/_ext/1664057780/hmac.o
 .bss           0x00000000        0x0 build/default/production/_ext/1664057780/hmac.o
 .reginfo       0x00000000       0x18 build/default/production/_ext/1664057780/hmac.o
 .text.HmacKeyInnerHash
                0x00000000       0xb0 build/default/production/_ext/1664057780/hmac.o
 .text.wc_HmacSizeByType
                0x00000000       0x60 build/default/production/_ext/1664057780/hmac.o
 .text._InitHmac
                0x00000000       0xb4 build/default/production/_ext/1664057780/hmac.o
 .text.wc_HmacUpdate
                0x00000000      0x13c build/default/production/_ext/1664057780/hmac.o
 .text.wc_HmacFinal
                0x00000000      0x250 build/default/production/_ext/1664057780/hmac.o
 .text.wc_HmacInit
                0x00000000       0x5c build/default/production/_ext/1664057780/hmac.o
 .text.wc_HmacFree
                0x00000000      0x14c build/default/production/_ext/1664057780/hmac.o
 .text.wc_HmacSetKey
                0x00000000      0x2c0 build/default/production/_ext/1664057780/hmac.o
 .text.wolfSSL_GetHmacMaxSize
                0x00000000        0x8 build/default/production/_ext/1664057780/hmac.o
 .text          0x00000000        0x0 build/default/production/_ext/1664057780/idea.o
 .data          0x00000000        0x0 build/default/production/_ext/1664057780/idea.o
 .bss           0x00000000        0x0 build/default/production/_ext/1664057780/idea.o
 .reginfo       0x00000000       0x18 build/default/production/_ext/1664057780/idea.o
 .text          0x00000000        0x0 build/default/production/_ext/1664057780/integer.o
 .data          0x00000000        0x0 build/default/production/_ext/1664057780/integer.o
 .bss           0x00000000        0x0 build/default/production/_ext/1664057780/integer.o
 .reginfo       0x00000000       0x18 build/default/production/_ext/1664057780/integer.o
 .text          0x00000000        0x0 build/default/production/_ext/1664057780/logging.o
 .data          0x00000000        0x0 build/default/production/_ext/1664057780/logging.o
 .bss           0x00000000        0x0 build/default/production/_ext/1664057780/logging.o
 .reginfo       0x00000000       0x18 build/default/production/_ext/1664057780/logging.o
 .text.wolfSSL_SetLoggingCb
                0x00000000        0x8 build/default/production/_ext/1664057780/logging.o
 .text.wolfSSL_GetLoggingCb
                0x00000000        0x8 build/default/production/_ext/1664057780/logging.o
 .text.wolfSSL_Debugging_ON
                0x00000000        0x8 build/default/production/_ext/1664057780/logging.o
 .text.wolfSSL_Debugging_OFF
                0x00000000        0x8 build/default/production/_ext/1664057780/logging.o
 .text          0x00000000        0x0 build/default/production/_ext/1664057780/md2.o
 .data          0x00000000        0x0 build/default/production/_ext/1664057780/md2.o
 .bss           0x00000000        0x0 build/default/production/_ext/1664057780/md2.o
 .reginfo       0x00000000       0x18 build/default/production/_ext/1664057780/md2.o
 .text          0x00000000        0x0 build/default/production/_ext/1664057780/md4.o
 .data          0x00000000        0x0 build/default/production/_ext/1664057780/md4.o
 .bss           0x00000000        0x0 build/default/production/_ext/1664057780/md4.o
 .reginfo       0x00000000       0x18 build/default/production/_ext/1664057780/md4.o
 .text          0x00000000        0x0 build/default/production/_ext/1664057780/md5.o
 .data          0x00000000        0x0 build/default/production/_ext/1664057780/md5.o
 .bss           0x00000000        0x0 build/default/production/_ext/1664057780/md5.o
 .reginfo       0x00000000       0x18 build/default/production/_ext/1664057780/md5.o
 .text.wc_Md5Free
                0x00000000        0x8 build/default/production/_ext/1664057780/md5.o
 .text.wc_Md5Copy
                0x00000000       0x98 build/default/production/_ext/1664057780/md5.o
 .text.wc_Md5GetHash
                0x00000000       0x60 build/default/production/_ext/1664057780/md5.o
 .text.wc_Md5SetFlags
                0x00000000       0x10 build/default/production/_ext/1664057780/md5.o
 .text.wc_Md5GetFlags
                0x00000000       0x20 build/default/production/_ext/1664057780/md5.o
 .text          0x00000000        0x0 build/default/production/_ext/1664057780/memory.o
 .data          0x00000000        0x0 build/default/production/_ext/1664057780/memory.o
 .bss           0x00000000        0x0 build/default/production/_ext/1664057780/memory.o
 .reginfo       0x00000000       0x18 build/default/production/_ext/1664057780/memory.o
 .text          0x00000000        0x0 build/default/production/_ext/1664057780/pkcs12.o
 .data          0x00000000        0x0 build/default/production/_ext/1664057780/pkcs12.o
 .bss           0x00000000        0x0 build/default/production/_ext/1664057780/pkcs12.o
 .reginfo       0x00000000       0x18 build/default/production/_ext/1664057780/pkcs12.o
 .text          0x00000000        0x0 build/default/production/_ext/1664057780/pkcs7.o
 .data          0x00000000        0x0 build/default/production/_ext/1664057780/pkcs7.o
 .bss           0x00000000        0x0 build/default/production/_ext/1664057780/pkcs7.o
 .reginfo       0x00000000       0x18 build/default/production/_ext/1664057780/pkcs7.o
 .text          0x00000000        0x0 build/default/production/_ext/1664057780/poly1305.o
 .data          0x00000000        0x0 build/default/production/_ext/1664057780/poly1305.o
 .bss           0x00000000        0x0 build/default/production/_ext/1664057780/poly1305.o
 .reginfo       0x00000000       0x18 build/default/production/_ext/1664057780/poly1305.o
 .text          0x00000000        0x0 build/default/production/_ext/1664057780/pwdbased.o
 .data          0x00000000        0x0 build/default/production/_ext/1664057780/pwdbased.o
 .bss           0x00000000        0x0 build/default/production/_ext/1664057780/pwdbased.o
 .reginfo       0x00000000       0x18 build/default/production/_ext/1664057780/pwdbased.o
 .text          0x00000000        0x0 build/default/production/_ext/1664057780/rabbit.o
 .data          0x00000000        0x0 build/default/production/_ext/1664057780/rabbit.o
 .bss           0x00000000        0x0 build/default/production/_ext/1664057780/rabbit.o
 .reginfo       0x00000000       0x18 build/default/production/_ext/1664057780/rabbit.o
 .text          0x00000000        0x0 build/default/production/_ext/1664057780/rc2.o
 .data          0x00000000        0x0 build/default/production/_ext/1664057780/rc2.o
 .bss           0x00000000        0x0 build/default/production/_ext/1664057780/rc2.o
 .reginfo       0x00000000       0x18 build/default/production/_ext/1664057780/rc2.o
 .text          0x00000000        0x0 build/default/production/_ext/1664057780/ripemd.o
 .data          0x00000000        0x0 build/default/production/_ext/1664057780/ripemd.o
 .bss           0x00000000        0x0 build/default/production/_ext/1664057780/ripemd.o
 .reginfo       0x00000000       0x18 build/default/production/_ext/1664057780/ripemd.o
 .text          0x00000000        0x0 build/default/production/_ext/1664057780/rsa.o
 .data          0x00000000        0x0 build/default/production/_ext/1664057780/rsa.o
 .bss           0x00000000        0x0 build/default/production/_ext/1664057780/rsa.o
 .reginfo       0x00000000       0x18 build/default/production/_ext/1664057780/rsa.o
 .text.wc_RsaCleanup
                0x00000000       0x8c build/default/production/_ext/1664057780/rsa.o
 .text.RsaMGF1  0x00000000      0x1ec build/default/production/_ext/1664057780/rsa.o
 .text.RsaMGF   0x00000000       0x94 build/default/production/_ext/1664057780/rsa.o
 .text.RsaGetValue
                0x00000000       0x70 build/default/production/_ext/1664057780/rsa.o
 .text.wc_InitRsaKey_ex
                0x00000000       0xd0 build/default/production/_ext/1664057780/rsa.o
 .text.wc_InitRsaKey
                0x00000000       0x1c build/default/production/_ext/1664057780/rsa.o
 .text.wc_InitRsaKey_Id
                0x00000000       0xa0 build/default/production/_ext/1664057780/rsa.o
 .text.wc_InitRsaKey_Label
                0x00000000       0xcc build/default/production/_ext/1664057780/rsa.o
 .text.wc_FreeRsaKey
                0x00000000       0xb8 build/default/production/_ext/1664057780/rsa.o
 .text.wc_RsaPad_ex
                0x00000000      0x3ec build/default/production/_ext/1664057780/rsa.o
 .text.wc_RsaUnPad_ex
                0x00000000      0x44c build/default/production/_ext/1664057780/rsa.o
 .text.wc_hash2mgf
                0x00000000       0x34 build/default/production/_ext/1664057780/rsa.o
 .text.wc_RsaEncryptSize
                0x00000000       0x58 build/default/production/_ext/1664057780/rsa.o
 .text.wc_RsaFunction
                0x00000000      0x418 build/default/production/_ext/1664057780/rsa.o
 .text.RsaPrivateDecryptEx
                0x00000000      0x2f0 build/default/production/_ext/1664057780/rsa.o
 .text.wc_RsaPrivateDecryptInline
                0x00000000       0x54 build/default/production/_ext/1664057780/rsa.o
 .text.wc_RsaPrivateDecryptInline_ex
                0x00000000       0x68 build/default/production/_ext/1664057780/rsa.o
 .text.wc_RsaPrivateDecrypt
                0x00000000       0x50 build/default/production/_ext/1664057780/rsa.o
 .text.wc_RsaPrivateDecrypt_ex
                0x00000000       0x64 build/default/production/_ext/1664057780/rsa.o
 .text.wc_RsaSSL_VerifyInline
                0x00000000       0x50 build/default/production/_ext/1664057780/rsa.o
 .text.wc_RsaSSL_Verify_ex2
                0x00000000       0xc0 build/default/production/_ext/1664057780/rsa.o
 .text.wc_RsaSSL_Verify_ex
                0x00000000       0x2c build/default/production/_ext/1664057780/rsa.o
 .text.wc_RsaSSL_Verify
                0x00000000       0x24 build/default/production/_ext/1664057780/rsa.o
 .text.RsaPublicEncryptEx
                0x00000000      0x1f4 build/default/production/_ext/1664057780/rsa.o
 .text.wc_RsaPublicEncrypt
                0x00000000       0x4c build/default/production/_ext/1664057780/rsa.o
 .text.wc_RsaPublicEncrypt_ex
                0x00000000       0x60 build/default/production/_ext/1664057780/rsa.o
 .text.wc_RsaSSL_Sign
                0x00000000       0x50 build/default/production/_ext/1664057780/rsa.o
 .text.wc_RsaFlattenPublicKey
                0x00000000      0x118 build/default/production/_ext/1664057780/rsa.o
 .text.wc_RsaExportKey
                0x00000000      0x118 build/default/production/_ext/1664057780/rsa.o
 .text          0x00000000        0x0 build/default/production/_ext/1664057780/sha3.o
 .data          0x00000000        0x0 build/default/production/_ext/1664057780/sha3.o
 .bss           0x00000000        0x0 build/default/production/_ext/1664057780/sha3.o
 .reginfo       0x00000000       0x18 build/default/production/_ext/1664057780/sha3.o
 .text          0x00000000        0x0 build/default/production/_ext/1664057780/signature.o
 .data          0x00000000        0x0 build/default/production/_ext/1664057780/signature.o
 .bss           0x00000000        0x0 build/default/production/_ext/1664057780/signature.o
 .reginfo       0x00000000       0x18 build/default/production/_ext/1664057780/signature.o
 .text          0x00000000        0x0 build/default/production/_ext/1664057780/sp_arm32.o
 .data          0x00000000        0x0 build/default/production/_ext/1664057780/sp_arm32.o
 .bss           0x00000000        0x0 build/default/production/_ext/1664057780/sp_arm32.o
 .reginfo       0x00000000       0x18 build/default/production/_ext/1664057780/sp_arm32.o
 .text          0x00000000        0x0 build/default/production/_ext/1664057780/sp_arm64.o
 .data          0x00000000        0x0 build/default/production/_ext/1664057780/sp_arm64.o
 .bss           0x00000000        0x0 build/default/production/_ext/1664057780/sp_arm64.o
 .reginfo       0x00000000       0x18 build/default/production/_ext/1664057780/sp_arm64.o
 .text          0x00000000        0x0 build/default/production/_ext/1664057780/sp_armthumb.o
 .data          0x00000000        0x0 build/default/production/_ext/1664057780/sp_armthumb.o
 .bss           0x00000000        0x0 build/default/production/_ext/1664057780/sp_armthumb.o
 .reginfo       0x00000000       0x18 build/default/production/_ext/1664057780/sp_armthumb.o
 .text          0x00000000        0x0 build/default/production/_ext/1664057780/sp_c32.o
 .data          0x00000000        0x0 build/default/production/_ext/1664057780/sp_c32.o
 .bss           0x00000000        0x0 build/default/production/_ext/1664057780/sp_c32.o
 .reginfo       0x00000000       0x18 build/default/production/_ext/1664057780/sp_c32.o
 .text          0x00000000        0x0 build/default/production/_ext/1664057780/sp_c64.o
 .data          0x00000000        0x0 build/default/production/_ext/1664057780/sp_c64.o
 .bss           0x00000000        0x0 build/default/production/_ext/1664057780/sp_c64.o
 .reginfo       0x00000000       0x18 build/default/production/_ext/1664057780/sp_c64.o
 .text          0x00000000        0x0 build/default/production/_ext/1664057780/sp_cortexm.o
 .data          0x00000000        0x0 build/default/production/_ext/1664057780/sp_cortexm.o
 .bss           0x00000000        0x0 build/default/production/_ext/1664057780/sp_cortexm.o
 .reginfo       0x00000000       0x18 build/default/production/_ext/1664057780/sp_cortexm.o
 .text          0x00000000        0x0 build/default/production/_ext/1664057780/sp_dsp32.o
 .data          0x00000000        0x0 build/default/production/_ext/1664057780/sp_dsp32.o
 .bss           0x00000000        0x0 build/default/production/_ext/1664057780/sp_dsp32.o
 .reginfo       0x00000000       0x18 build/default/production/_ext/1664057780/sp_dsp32.o
 .text          0x00000000        0x0 build/default/production/_ext/1664057780/sp_int.o
 .data          0x00000000        0x0 build/default/production/_ext/1664057780/sp_int.o
 .bss           0x00000000        0x0 build/default/production/_ext/1664057780/sp_int.o
 .reginfo       0x00000000       0x18 build/default/production/_ext/1664057780/sp_int.o
 .text          0x00000000        0x0 build/default/production/_ext/1664057780/sp_x86_64.o
 .data          0x00000000        0x0 build/default/production/_ext/1664057780/sp_x86_64.o
 .bss           0x00000000        0x0 build/default/production/_ext/1664057780/sp_x86_64.o
 .reginfo       0x00000000       0x18 build/default/production/_ext/1664057780/sp_x86_64.o
 .text          0x00000000        0x0 build/default/production/_ext/1664057780/srp.o
 .data          0x00000000        0x0 build/default/production/_ext/1664057780/srp.o
 .bss           0x00000000        0x0 build/default/production/_ext/1664057780/srp.o
 .reginfo       0x00000000       0x18 build/default/production/_ext/1664057780/srp.o
 .text          0x00000000        0x0 build/default/production/_ext/1664057780/tfm.o
 .data          0x00000000        0x0 build/default/production/_ext/1664057780/tfm.o
 .bss           0x00000000        0x0 build/default/production/_ext/1664057780/tfm.o
 .reginfo       0x00000000       0x18 build/default/production/_ext/1664057780/tfm.o
 .text.fp_cmp_mag_ct
                0x00000000       0x88 build/default/production/_ext/1664057780/tfm.o
 .text.fp_cond_swap_ct
                0x00000000       0xf4 build/default/production/_ext/1664057780/tfm.o
 .text.CheckRunTimeSettings
                0x00000000        0x8 build/default/production/_ext/1664057780/tfm.o
 .text.CheckRunTimeFastMath
                0x00000000        0x8 build/default/production/_ext/1664057780/tfm.o
 .text.s_fp_add
                0x00000000      0x160 build/default/production/_ext/1664057780/tfm.o
 .text.s_fp_sub
                0x00000000      0x164 build/default/production/_ext/1664057780/tfm.o
 .text.fp_mul_2
                0x00000000       0xdc build/default/production/_ext/1664057780/tfm.o
 .text.fp_mul_d
                0x00000000      0x178 build/default/production/_ext/1664057780/tfm.o
 .text.fp_div_2
                0x00000000       0xf0 build/default/production/_ext/1664057780/tfm.o
 .text.fp_div_2_mod_ct
                0x00000000      0x11c build/default/production/_ext/1664057780/tfm.o
 .text.fp_submod_ct
                0x00000000      0x168 build/default/production/_ext/1664057780/tfm.o
 .text.fp_addmod_ct
                0x00000000      0x150 build/default/production/_ext/1664057780/tfm.o
 .text.fp_cmp_d
                0x00000000       0x54 build/default/production/_ext/1664057780/tfm.o
 .text.fp_cmp_mag
                0x00000000       0xd0 build/default/production/_ext/1664057780/tfm.o
 .text.fp_add   0x00000000       0xa8 build/default/production/_ext/1664057780/tfm.o
 .text.fp_sub   0x00000000       0xa4 build/default/production/_ext/1664057780/tfm.o
 .text.fp_cmp   0x00000000       0x78 build/default/production/_ext/1664057780/tfm.o
 .text.fp_montgomery_setup
                0x00000000       0x5c build/default/production/_ext/1664057780/tfm.o
 .text.fp_montgomery_reduce_ex
                0x00000000      0x23c build/default/production/_ext/1664057780/tfm.o
 .text.fp_montgomery_reduce
                0x00000000       0x1c build/default/production/_ext/1664057780/tfm.o
 .text.fp_to_unsigned_bin_at_pos
                0x00000000       0xa0 build/default/production/_ext/1664057780/tfm.o
 .text.fp_to_unsigned_bin_len
                0x00000000       0x80 build/default/production/_ext/1664057780/tfm.o
 .text.fp_is_bit_set
                0x00000000       0x44 build/default/production/_ext/1664057780/tfm.o
 .text.fp_set_bit
                0x00000000       0x50 build/default/production/_ext/1664057780/tfm.o
 .text.fp_count_bits
                0x00000000       0x48 build/default/production/_ext/1664057780/tfm.o
 .text.fp_unsigned_bin_size
                0x00000000       0x38 build/default/production/_ext/1664057780/tfm.o
 .text.fp_leading_bit
                0x00000000       0x40 build/default/production/_ext/1664057780/tfm.o
 .text.fp_lshd  0x00000000       0xf4 build/default/production/_ext/1664057780/tfm.o
 .text.fp_reverse
                0x00000000       0x44 build/default/production/_ext/1664057780/tfm.o
 .text.fp_zero  0x00000000       0x2c build/default/production/_ext/1664057780/tfm.o
 .text.fp_2expt
                0x00000000       0x6c build/default/production/_ext/1664057780/tfm.o
 .text.fp_read_unsigned_bin
                0x00000000       0xec build/default/production/_ext/1664057780/tfm.o
 .text.fp_set   0x00000000       0x3c build/default/production/_ext/1664057780/tfm.o
 .text.fp_montgomery_calc_normalization
                0x00000000       0xf4 build/default/production/_ext/1664057780/tfm.o
 .text.fp_rshd  0x00000000      0x104 build/default/production/_ext/1664057780/tfm.o
 .text.fp_rshb  0x00000000      0x140 build/default/production/_ext/1664057780/tfm.o
 .text.fp_init  0x00000000       0x1c build/default/production/_ext/1664057780/tfm.o
 .text.mp_init  0x00000000       0x30 build/default/production/_ext/1664057780/tfm.o
 .text.fp_sub_d
                0x00000000       0x5c build/default/production/_ext/1664057780/tfm.o
 .text.fp_clear
                0x00000000       0x2c build/default/production/_ext/1664057780/tfm.o
 .text.fp_forcezero
                0x00000000       0x28 build/default/production/_ext/1664057780/tfm.o
 .text.mp_forcezero
                0x00000000       0x1c build/default/production/_ext/1664057780/tfm.o
 .text.fp_free  0x00000000        0x8 build/default/production/_ext/1664057780/tfm.o
 .text.mp_clear
                0x00000000       0x28 build/default/production/_ext/1664057780/tfm.o
 .text.mp_free  0x00000000        0x8 build/default/production/_ext/1664057780/tfm.o
 .text.mp_init_multi
                0x00000000       0xb0 build/default/production/_ext/1664057780/tfm.o
 .text.mp_add   0x00000000       0x1c build/default/production/_ext/1664057780/tfm.o
 .text.mp_sub   0x00000000       0x1c build/default/production/_ext/1664057780/tfm.o
 .text.mp_mul_d
                0x00000000       0x1c build/default/production/_ext/1664057780/tfm.o
 .text.mp_submod_ct
                0x00000000       0x1c build/default/production/_ext/1664057780/tfm.o
 .text.mp_addmod_ct
                0x00000000       0x1c build/default/production/_ext/1664057780/tfm.o
 .text.mp_cmp   0x00000000       0x1c build/default/production/_ext/1664057780/tfm.o
 .text.mp_cmp_d
                0x00000000       0x1c build/default/production/_ext/1664057780/tfm.o
 .text.mp_unsigned_bin_size
                0x00000000       0x1c build/default/production/_ext/1664057780/tfm.o
 .text.mp_to_unsigned_bin_at_pos
                0x00000000       0x1c build/default/production/_ext/1664057780/tfm.o
 .text.mp_to_unsigned_bin_len
                0x00000000       0x1c build/default/production/_ext/1664057780/tfm.o
 .text.mp_read_unsigned_bin
                0x00000000       0x1c build/default/production/_ext/1664057780/tfm.o
 .text.mp_sub_d
                0x00000000       0x1c build/default/production/_ext/1664057780/tfm.o
 .text.mp_2expt
                0x00000000       0x20 build/default/production/_ext/1664057780/tfm.o
 .text.fp_copy  0x00000000       0x78 build/default/production/_ext/1664057780/tfm.o
 .text.fp_mul_2d
                0x00000000      0x18c build/default/production/_ext/1664057780/tfm.o
 .text.fp_set_int
                0x00000000       0xfc build/default/production/_ext/1664057780/tfm.o
 .text.mp_mul_2d
                0x00000000       0x1c build/default/production/_ext/1664057780/tfm.o
 .text.fp_mul_comba
                0x00000000      0x1e0 build/default/production/_ext/1664057780/tfm.o
 .text.fp_mul   0x00000000       0xa0 build/default/production/_ext/1664057780/tfm.o
 .text.mp_mul   0x00000000       0x1c build/default/production/_ext/1664057780/tfm.o
 .text.fp_mod_2d
                0x00000000      0x154 build/default/production/_ext/1664057780/tfm.o
 .text.fp_div_2d
                0x00000000      0x15c build/default/production/_ext/1664057780/tfm.o
 .text.mp_div_2d
                0x00000000       0x20 build/default/production/_ext/1664057780/tfm.o
 .text.fp_sqr_comba
                0x00000000      0x240 build/default/production/_ext/1664057780/tfm.o
 .text.fp_sqr   0x00000000       0x84 build/default/production/_ext/1664057780/tfm.o
 .text.fp_invmod_mont_ct
                0x00000000      0x2b8 build/default/production/_ext/1664057780/tfm.o
 .text.mp_invmod_mont_ct
                0x00000000       0x1c build/default/production/_ext/1664057780/tfm.o
 .text.fp_div_d
                0x00000000      0x27c build/default/production/_ext/1664057780/tfm.o
 .text.fp_init_copy
                0x00000000       0x44 build/default/production/_ext/1664057780/tfm.o
 .text.fp_div   0x00000000      0x59c build/default/production/_ext/1664057780/tfm.o
 .text.fp_mod   0x00000000       0x8c build/default/production/_ext/1664057780/tfm.o
 .text.fp_mulmod
                0x00000000       0x74 build/default/production/_ext/1664057780/tfm.o
 .text.mp_mulmod
                0x00000000       0x1c build/default/production/_ext/1664057780/tfm.o
 .text.fp_submod
                0x00000000       0x74 build/default/production/_ext/1664057780/tfm.o
 .text.mp_submod
                0x00000000       0x1c build/default/production/_ext/1664057780/tfm.o
 .text.fp_addmod
                0x00000000       0x74 build/default/production/_ext/1664057780/tfm.o
 .text.mp_addmod
                0x00000000       0x1c build/default/production/_ext/1664057780/tfm.o
 .text._fp_exptmod_ct
                0x00000000      0x214 build/default/production/_ext/1664057780/tfm.o
 .text._fp_exptmod_nct
                0x00000000      0x5a0 build/default/production/_ext/1664057780/tfm.o
 .text.mp_mod   0x00000000       0x1c build/default/production/_ext/1664057780/tfm.o
 .text.fp_invmod
                0x00000000      0x710 build/default/production/_ext/1664057780/tfm.o
 .text.mp_invmod
                0x00000000       0x1c build/default/production/_ext/1664057780/tfm.o
 .text.mp_div   0x00000000       0x1c build/default/production/_ext/1664057780/tfm.o
 .text.fp_exptmod
                0x00000000      0x3d8 build/default/production/_ext/1664057780/tfm.o
 .text.mp_exptmod
                0x00000000       0x1c build/default/production/_ext/1664057780/tfm.o
 .text.fp_exptmod_ex
                0x00000000      0x128 build/default/production/_ext/1664057780/tfm.o
 .text.mp_exptmod_ex
                0x00000000       0x20 build/default/production/_ext/1664057780/tfm.o
 .text.fp_exptmod_nct
                0x00000000      0x110 build/default/production/_ext/1664057780/tfm.o
 .text.mp_exptmod_nct
                0x00000000       0x1c build/default/production/_ext/1664057780/tfm.o
 .text.fp_to_unsigned_bin
                0x00000000       0x50 build/default/production/_ext/1664057780/tfm.o
 .text.mp_to_unsigned_bin
                0x00000000       0x1c build/default/production/_ext/1664057780/tfm.o
 .text.mp_init_copy
                0x00000000       0x20 build/default/production/_ext/1664057780/tfm.o
 .text.mp_copy  0x00000000       0x20 build/default/production/_ext/1664057780/tfm.o
 .text.mp_isodd
                0x00000000       0x20 build/default/production/_ext/1664057780/tfm.o
 .text.mp_iszero
                0x00000000        0xc build/default/production/_ext/1664057780/tfm.o
 .text.mp_count_bits
                0x00000000       0x1c build/default/production/_ext/1664057780/tfm.o
 .text.mp_leading_bit
                0x00000000       0x1c build/default/production/_ext/1664057780/tfm.o
 .text.mp_rshb  0x00000000       0x1c build/default/production/_ext/1664057780/tfm.o
 .text.mp_rshd  0x00000000       0x1c build/default/production/_ext/1664057780/tfm.o
 .text.mp_set_int
                0x00000000       0x1c build/default/production/_ext/1664057780/tfm.o
 .text.mp_is_bit_set
                0x00000000       0x1c build/default/production/_ext/1664057780/tfm.o
 .text.mp_set_bit
                0x00000000       0x1c build/default/production/_ext/1664057780/tfm.o
 .text.fp_sqrmod
                0x00000000       0x64 build/default/production/_ext/1664057780/tfm.o
 .text.mp_sqrmod
                0x00000000       0x1c build/default/production/_ext/1664057780/tfm.o
 .text.mp_montgomery_calc_normalization
                0x00000000       0x1c build/default/production/_ext/1664057780/tfm.o
 .text.fp_cnt_lsb
                0x00000000       0x94 build/default/production/_ext/1664057780/tfm.o
 .text.fp_prime_miller_rabin_ex
                0x00000000      0x194 build/default/production/_ext/1664057780/tfm.o
 .text.fp_isprime_ex
                0x00000000      0x1a8 build/default/production/_ext/1664057780/tfm.o
 .text.mp_mod_d
                0x00000000       0x20 build/default/production/_ext/1664057780/tfm.o
 .text.mp_prime_is_prime
                0x00000000       0x1c build/default/production/_ext/1664057780/tfm.o
 .text.mp_prime_is_prime_ex
                0x00000000      0x26c build/default/production/_ext/1664057780/tfm.o
 .text.mp_cond_swap_ct
                0x00000000       0x1c build/default/production/_ext/1664057780/tfm.o
 .text.fp_add_d
                0x00000000       0x5c build/default/production/_ext/1664057780/tfm.o
 .text.mp_add_d
                0x00000000       0x1c build/default/production/_ext/1664057780/tfm.o
 .rodata        0x00000000      0x484 build/default/production/_ext/1664057780/tfm.o
 .text.mp_read_radix
                0x00000000      0x2bc build/default/production/_ext/1664057780/tfm.o
 .text.mp_sqr   0x00000000       0x1c build/default/production/_ext/1664057780/tfm.o
 .text.mp_montgomery_reduce
                0x00000000       0x1c build/default/production/_ext/1664057780/tfm.o
 .text.mp_montgomery_reduce_ex
                0x00000000       0x1c build/default/production/_ext/1664057780/tfm.o
 .text.mp_montgomery_setup
                0x00000000       0x1c build/default/production/_ext/1664057780/tfm.o
 .text.mp_div_2
                0x00000000       0x20 build/default/production/_ext/1664057780/tfm.o
 .text.mp_div_2_mod_ct
                0x00000000       0x1c build/default/production/_ext/1664057780/tfm.o
 .text.mp_set   0x00000000       0x20 build/default/production/_ext/1664057780/tfm.o
 .text.mp_radix_size
                0x00000000      0x178 build/default/production/_ext/1664057780/tfm.o
 .text.mp_toradix
                0x00000000      0x17c build/default/production/_ext/1664057780/tfm.o
 .text.mp_abs   0x00000000       0x2c build/default/production/_ext/1664057780/tfm.o
 .text.mp_lshd  0x00000000       0x1c build/default/production/_ext/1664057780/tfm.o
 .text          0x00000000        0x0 build/default/production/_ext/1664057780/wc_dsp.o
 .data          0x00000000        0x0 build/default/production/_ext/1664057780/wc_dsp.o
 .bss           0x00000000        0x0 build/default/production/_ext/1664057780/wc_dsp.o
 .reginfo       0x00000000       0x18 build/default/production/_ext/1664057780/wc_dsp.o
 .text          0x00000000        0x0 build/default/production/_ext/1664057780/wc_encrypt.o
 .data          0x00000000        0x0 build/default/production/_ext/1664057780/wc_encrypt.o
 .bss           0x00000000        0x0 build/default/production/_ext/1664057780/wc_encrypt.o
 .reginfo       0x00000000       0x18 build/default/production/_ext/1664057780/wc_encrypt.o
 .text.wc_AesCbcDecryptWithKey
                0x00000000       0xe4 build/default/production/_ext/1664057780/wc_encrypt.o
 .text.wc_AesCbcEncryptWithKey
                0x00000000       0xa8 build/default/production/_ext/1664057780/wc_encrypt.o
 .text.wc_Des_CbcEncryptWithKey
                0x00000000       0x68 build/default/production/_ext/1664057780/wc_encrypt.o
 .text.wc_Des_CbcDecryptWithKey
                0x00000000       0x68 build/default/production/_ext/1664057780/wc_encrypt.o
 .text.wc_Des3_CbcEncryptWithKey
                0x00000000       0xa4 build/default/production/_ext/1664057780/wc_encrypt.o
 .text.wc_Des3_CbcDecryptWithKey
                0x00000000       0xa4 build/default/production/_ext/1664057780/wc_encrypt.o
 .text          0x00000000        0x0 build/default/production/_ext/1664057780/wc_pkcs11.o
 .data          0x00000000        0x0 build/default/production/_ext/1664057780/wc_pkcs11.o
 .bss           0x00000000        0x0 build/default/production/_ext/1664057780/wc_pkcs11.o
 .reginfo       0x00000000       0x18 build/default/production/_ext/1664057780/wc_pkcs11.o
 .text          0x00000000        0x0 build/default/production/_ext/1664057780/wc_port.o
 .data          0x00000000        0x0 build/default/production/_ext/1664057780/wc_port.o
 .bss           0x00000000        0x0 build/default/production/_ext/1664057780/wc_port.o
 .reginfo       0x00000000       0x18 build/default/production/_ext/1664057780/wc_port.o
 .text.wolfCrypt_Init
                0x00000000       0x38 build/default/production/_ext/1664057780/wc_port.o
 .text.wolfCrypt_Cleanup
                0x00000000       0x24 build/default/production/_ext/1664057780/wc_port.o
 .text.wc_InitAndAllocMutex
                0x00000000       0x1c build/default/production/_ext/1664057780/wc_port.o
 .text.wc_InitMutex
                0x00000000        0x8 build/default/production/_ext/1664057780/wc_port.o
 .text.wc_FreeMutex
                0x00000000        0x8 build/default/production/_ext/1664057780/wc_port.o
 .text.wc_LockMutex
                0x00000000        0x8 build/default/production/_ext/1664057780/wc_port.o
 .text.wc_UnLockMutex
                0x00000000        0x8 build/default/production/_ext/1664057780/wc_port.o
 .text.mystrnstr
                0x00000000       0xcc build/default/production/_ext/1664057780/wc_port.o
 .text          0x00000000        0x0 build/default/production/_ext/1664057780/wolfevent.o
 .data          0x00000000        0x0 build/default/production/_ext/1664057780/wolfevent.o
 .bss           0x00000000        0x0 build/default/production/_ext/1664057780/wolfevent.o
 .reginfo       0x00000000       0x18 build/default/production/_ext/1664057780/wolfevent.o
 .text          0x00000000        0x0 build/default/production/_ext/1664057780/wolfmath.o
 .data          0x00000000        0x0 build/default/production/_ext/1664057780/wolfmath.o
 .bss           0x00000000        0x0 build/default/production/_ext/1664057780/wolfmath.o
 .reginfo       0x00000000       0x18 build/default/production/_ext/1664057780/wolfmath.o
 .text.get_digit_count
                0x00000000       0x18 build/default/production/_ext/1664057780/wolfmath.o
 .text.get_digit
                0x00000000       0x40 build/default/production/_ext/1664057780/wolfmath.o
 .text.mp_cond_copy
                0x00000000      0x168 build/default/production/_ext/1664057780/wolfmath.o
 .text.get_rand_digit
                0x00000000       0x1c build/default/production/_ext/1664057780/wolfmath.o
 .text.wc_export_int
                0x00000000       0xb0 build/default/production/_ext/1664057780/wolfmath.o
 .rodata        0x00000000        0x8 build/default/production/_ext/1664057780/wolfmath.o
 .text          0x00000000        0x0 build/default/production/_ext/172253694/pic32mz-crypt.o
 .data          0x00000000        0x0 build/default/production/_ext/172253694/pic32mz-crypt.o
 .bss           0x00000000        0x0 build/default/production/_ext/172253694/pic32mz-crypt.o
 .reginfo       0x00000000       0x18 build/default/production/_ext/172253694/pic32mz-crypt.o
 .text          0x00000000        0x0 build/default/production/_ext/172253694/crypt_aes_sam6149.o
 .data          0x00000000        0x0 build/default/production/_ext/172253694/crypt_aes_sam6149.o
 .bss           0x00000000        0x0 build/default/production/_ext/172253694/crypt_aes_sam6149.o
 .reginfo       0x00000000       0x18 build/default/production/_ext/172253694/crypt_aes_sam6149.o
 .text          0x00000000        0x0 build/default/production/_ext/172253694/crypt_aes_u2238.o
 .data          0x00000000        0x0 build/default/production/_ext/172253694/crypt_aes_u2238.o
 .bss           0x00000000        0x0 build/default/production/_ext/172253694/crypt_aes_u2238.o
 .reginfo       0x00000000       0x18 build/default/production/_ext/172253694/crypt_aes_u2238.o
 .text          0x00000000        0x0 build/default/production/_ext/172253694/crypt_ecc_ba414e.o
 .data          0x00000000        0x0 build/default/production/_ext/172253694/crypt_ecc_ba414e.o
 .bss           0x00000000        0x0 build/default/production/_ext/172253694/crypt_ecc_ba414e.o
 .reginfo       0x00000000       0x18 build/default/production/_ext/172253694/crypt_ecc_ba414e.o
 .text          0x00000000        0x0 build/default/production/_ext/172253694/crypt_ecc_pukcl.o
 .data          0x00000000        0x0 build/default/production/_ext/172253694/crypt_ecc_pukcl.o
 .bss           0x00000000        0x0 build/default/production/_ext/172253694/crypt_ecc_pukcl.o
 .reginfo       0x00000000       0x18 build/default/production/_ext/172253694/crypt_ecc_pukcl.o
 .text          0x00000000        0x0 build/default/production/_ext/172253694/crypt_pukcl_functions.o
 .data          0x00000000        0x0 build/default/production/_ext/172253694/crypt_pukcl_functions.o
 .bss           0x00000000        0x0 build/default/production/_ext/172253694/crypt_pukcl_functions.o
 .reginfo       0x00000000       0x18 build/default/production/_ext/172253694/crypt_pukcl_functions.o
 .text.crypt_pukcl_SelfTest
                0x00000000       0xf0 build/default/production/_ext/172253694/crypt_pukcl_functions.o
 .text.SecureCopy
                0x00000000       0xb0 build/default/production/_ext/172253694/crypt_pukcl_functions.o
 COMMON         0x00000000       0x30 build/default/production/_ext/172253694/crypt_pukcl_functions.o
 .text          0x00000000        0x0 build/default/production/_ext/172253694/crypt_rng_sam6334.o
 .data          0x00000000        0x0 build/default/production/_ext/172253694/crypt_rng_sam6334.o
 .bss           0x00000000        0x0 build/default/production/_ext/172253694/crypt_rng_sam6334.o
 .reginfo       0x00000000       0x18 build/default/production/_ext/172253694/crypt_rng_sam6334.o
 .text          0x00000000        0x0 build/default/production/_ext/172253694/crypt_rng_u2242.o
 .data          0x00000000        0x0 build/default/production/_ext/172253694/crypt_rng_u2242.o
 .bss           0x00000000        0x0 build/default/production/_ext/172253694/crypt_rng_u2242.o
 .reginfo       0x00000000       0x18 build/default/production/_ext/172253694/crypt_rng_u2242.o
 .text          0x00000000        0x0 build/default/production/_ext/172253694/crypt_rsa_pukcl.o
 .data          0x00000000        0x0 build/default/production/_ext/172253694/crypt_rsa_pukcl.o
 .bss           0x00000000        0x0 build/default/production/_ext/172253694/crypt_rsa_pukcl.o
 .reginfo       0x00000000       0x18 build/default/production/_ext/172253694/crypt_rsa_pukcl.o
 .text          0x00000000        0x0 build/default/production/_ext/172253694/crypt_sam_u2803.o
 .data          0x00000000        0x0 build/default/production/_ext/172253694/crypt_sam_u2803.o
 .bss           0x00000000        0x0 build/default/production/_ext/172253694/crypt_sam_u2803.o
 .reginfo       0x00000000       0x18 build/default/production/_ext/172253694/crypt_sam_u2803.o
 .text          0x00000000        0x0 build/default/production/_ext/172253694/crypt_sha1_sam11105.o
 .data          0x00000000        0x0 build/default/production/_ext/172253694/crypt_sha1_sam11105.o
 .bss           0x00000000        0x0 build/default/production/_ext/172253694/crypt_sha1_sam11105.o
 .reginfo       0x00000000       0x18 build/default/production/_ext/172253694/crypt_sha1_sam11105.o
 .text          0x00000000        0x0 build/default/production/_ext/172253694/crypt_sha1_sam6156.o
 .data          0x00000000        0x0 build/default/production/_ext/172253694/crypt_sha1_sam6156.o
 .bss           0x00000000        0x0 build/default/production/_ext/172253694/crypt_sha1_sam6156.o
 .reginfo       0x00000000       0x18 build/default/production/_ext/172253694/crypt_sha1_sam6156.o
 .text          0x00000000        0x0 build/default/production/_ext/172253694/crypt_sha224_sam11105.o
 .data          0x00000000        0x0 build/default/production/_ext/172253694/crypt_sha224_sam11105.o
 .bss           0x00000000        0x0 build/default/production/_ext/172253694/crypt_sha224_sam11105.o
 .reginfo       0x00000000       0x18 build/default/production/_ext/172253694/crypt_sha224_sam11105.o
 .text          0x00000000        0x0 build/default/production/_ext/172253694/crypt_sha224_sam6156.o
 .data          0x00000000        0x0 build/default/production/_ext/172253694/crypt_sha224_sam6156.o
 .bss           0x00000000        0x0 build/default/production/_ext/172253694/crypt_sha224_sam6156.o
 .reginfo       0x00000000       0x18 build/default/production/_ext/172253694/crypt_sha224_sam6156.o
 .text          0x00000000        0x0 build/default/production/_ext/172253694/crypt_sha256_sam11105.o
 .data          0x00000000        0x0 build/default/production/_ext/172253694/crypt_sha256_sam11105.o
 .bss           0x00000000        0x0 build/default/production/_ext/172253694/crypt_sha256_sam11105.o
 .reginfo       0x00000000       0x18 build/default/production/_ext/172253694/crypt_sha256_sam11105.o
 .text          0x00000000        0x0 build/default/production/_ext/172253694/crypt_sha256_sam6156.o
 .data          0x00000000        0x0 build/default/production/_ext/172253694/crypt_sha256_sam6156.o
 .bss           0x00000000        0x0 build/default/production/_ext/172253694/crypt_sha256_sam6156.o
 .reginfo       0x00000000       0x18 build/default/production/_ext/172253694/crypt_sha256_sam6156.o
 .text          0x00000000        0x0 build/default/production/_ext/172253694/crypt_sha384_sam6156.o
 .data          0x00000000        0x0 build/default/production/_ext/172253694/crypt_sha384_sam6156.o
 .bss           0x00000000        0x0 build/default/production/_ext/172253694/crypt_sha384_sam6156.o
 .reginfo       0x00000000       0x18 build/default/production/_ext/172253694/crypt_sha384_sam6156.o
 .text          0x00000000        0x0 build/default/production/_ext/172253694/crypt_sha512_sam6156.o
 .data          0x00000000        0x0 build/default/production/_ext/172253694/crypt_sha512_sam6156.o
 .bss           0x00000000        0x0 build/default/production/_ext/172253694/crypt_sha512_sam6156.o
 .reginfo       0x00000000       0x18 build/default/production/_ext/172253694/crypt_sha512_sam6156.o
 .text          0x00000000        0x0 build/default/production/_ext/172253694/crypt_tdes_sam6150.o
 .data          0x00000000        0x0 build/default/production/_ext/172253694/crypt_tdes_sam6150.o
 .bss           0x00000000        0x0 build/default/production/_ext/172253694/crypt_tdes_sam6150.o
 .reginfo       0x00000000       0x18 build/default/production/_ext/172253694/crypt_tdes_sam6150.o
 .text          0x00000000        0x0 build/default/production/_ext/172253694/crypt_wolfcryptcb.o
 .data          0x00000000        0x0 build/default/production/_ext/172253694/crypt_wolfcryptcb.o
 .bss           0x00000000        0x0 build/default/production/_ext/172253694/crypt_wolfcryptcb.o
 .reginfo       0x00000000       0x18 build/default/production/_ext/172253694/crypt_wolfcryptcb.o
 .text          0x00000000        0x0 build/default/production/_ext/1664057780/aes.o
 .data          0x00000000        0x0 build/default/production/_ext/1664057780/aes.o
 .bss           0x00000000        0x0 build/default/production/_ext/1664057780/aes.o
 .reginfo       0x00000000       0x18 build/default/production/_ext/1664057780/aes.o
 .text.GMULT    0x00000000      0x120 build/default/production/_ext/1664057780/aes.o
 .text.wc_AesEncrypt
                0x00000000     0x171c build/default/production/_ext/1664057780/aes.o
 .text.wc_AesDecrypt
                0x00000000     0x16ac build/default/production/_ext/1664057780/aes.o
 .text.roll_x   0x00000000      0x188 build/default/production/_ext/1664057780/aes.o
 .text.roll_auth
                0x00000000      0x1d0 build/default/production/_ext/1664057780/aes.o
 .text.wc_AesSetIV
                0x00000000       0x8c build/default/production/_ext/1664057780/aes.o
 .text.wc_AesSetKeyLocal
                0x00000000      0x7e0 build/default/production/_ext/1664057780/aes.o
 .text.wc_AesSetKey
                0x00000000       0x50 build/default/production/_ext/1664057780/aes.o
 .text.wc_AesSetKeyDirect
                0x00000000       0x4c build/default/production/_ext/1664057780/aes.o
 .text.wc_AesEncryptDirect
                0x00000000       0x24 build/default/production/_ext/1664057780/aes.o
 .text.wc_AesDecryptDirect
                0x00000000       0x24 build/default/production/_ext/1664057780/aes.o
 .text.wc_AesCbcEncrypt
                0x00000000      0x188 build/default/production/_ext/1664057780/aes.o
 .text.wc_AesCbcDecrypt
                0x00000000      0x1dc build/default/production/_ext/1664057780/aes.o
 .text.wc_AesCtrEncrypt
                0x00000000      0x2dc build/default/production/_ext/1664057780/aes.o
 .text.wc_AesGcmSetKey
                0x00000000       0xc0 build/default/production/_ext/1664057780/aes.o
 .text.GHASH    0x00000000      0x61c build/default/production/_ext/1664057780/aes.o
 .text.wc_AesGcmSetExtIV
                0x00000000       0x8c build/default/production/_ext/1664057780/aes.o
 .text.wc_AesGcmSetIV
                0x00000000       0xf4 build/default/production/_ext/1664057780/aes.o
 .text.wc_GmacSetKey
                0x00000000       0x40 build/default/production/_ext/1664057780/aes.o
 .text.wc_AesCcmSetKey
                0x00000000       0x44 build/default/production/_ext/1664057780/aes.o
 .text.wc_AesCcmCheckTagSize
                0x00000000       0x50 build/default/production/_ext/1664057780/aes.o
 .text.wc_AesCcmEncrypt
                0x00000000      0x4e4 build/default/production/_ext/1664057780/aes.o
 .text.wc_AesCcmDecrypt
                0x00000000      0x564 build/default/production/_ext/1664057780/aes.o
 .text.wc_AesCcmSetNonce
                0x00000000       0x70 build/default/production/_ext/1664057780/aes.o
 .text.wc_AesCcmEncrypt_ex
                0x00000000      0x16c build/default/production/_ext/1664057780/aes.o
 .text.wc_AesInit
                0x00000000       0x24 build/default/production/_ext/1664057780/aes.o
 .text.wc_AesFree
                0x00000000       0x24 build/default/production/_ext/1664057780/aes.o
 .text.wc_AesGetKeySize
                0x00000000       0x74 build/default/production/_ext/1664057780/aes.o
 .text.wc_AesEcbEncrypt
                0x00000000       0x94 build/default/production/_ext/1664057780/aes.o
 .text.wc_AesGcmEncrypt
                0x00000000      0x590 build/default/production/_ext/1664057780/aes.o
 .text.wc_AesGcmEncrypt_ex
                0x00000000      0x184 build/default/production/_ext/1664057780/aes.o
 .text.wc_Gmac  0x00000000      0x158 build/default/production/_ext/1664057780/aes.o
 .text.wc_GmacUpdate
                0x00000000       0x48 build/default/production/_ext/1664057780/aes.o
 .text.wc_AesGcmDecrypt
                0x00000000      0x588 build/default/production/_ext/1664057780/aes.o
 .text.wc_GmacVerify
                0x00000000      0x130 build/default/production/_ext/1664057780/aes.o
 .text.wc_AesEcbDecrypt
                0x00000000       0x94 build/default/production/_ext/1664057780/aes.o
 .rodata        0x00000000     0x2128 build/default/production/_ext/1664057780/aes.o
 .text          0x00000000        0x0 build/default/production/_ext/1664057780/des3.o
 .data          0x00000000        0x0 build/default/production/_ext/1664057780/des3.o
 .bss           0x00000000        0x0 build/default/production/_ext/1664057780/des3.o
 .reginfo       0x00000000       0x18 build/default/production/_ext/1664057780/des3.o
 .text.DesRawProcessBlock
                0x00000000      0x1cc build/default/production/_ext/1664057780/des3.o
 .text.DesSetKey
                0x00000000      0x218 build/default/production/_ext/1664057780/des3.o
 .text.Des3ProcessBlock
                0x00000000      0x214 build/default/production/_ext/1664057780/des3.o
 .text.DesProcessBlock
                0x00000000      0x1e8 build/default/production/_ext/1664057780/des3.o
 .text.wc_Des_CbcEncrypt
                0x00000000      0x10c build/default/production/_ext/1664057780/des3.o
 .text.wc_Des_CbcDecrypt
                0x00000000      0x130 build/default/production/_ext/1664057780/des3.o
 .text.wc_Des3_CbcEncrypt
                0x00000000      0x150 build/default/production/_ext/1664057780/des3.o
 .text.wc_Des3_CbcDecrypt
                0x00000000      0x17c build/default/production/_ext/1664057780/des3.o
 .text.wc_Des_SetIV
                0x00000000       0x58 build/default/production/_ext/1664057780/des3.o
 .text.wc_Des_SetKey
                0x00000000       0x50 build/default/production/_ext/1664057780/des3.o
 .text.wc_Des3_SetIV
                0x00000000       0x68 build/default/production/_ext/1664057780/des3.o
 .text.wc_Des3_SetKey
                0x00000000      0x14c build/default/production/_ext/1664057780/des3.o
 .text.wc_Des3Init
                0x00000000       0x24 build/default/production/_ext/1664057780/des3.o
 .text.wc_Des3Free
                0x00000000       0x24 build/default/production/_ext/1664057780/des3.o
 .rodata        0x00000000      0x898 build/default/production/_ext/1664057780/des3.o
 .text          0x00000000        0x0 build/default/production/_ext/1664057780/random.o
 .data          0x00000000        0x0 build/default/production/_ext/1664057780/random.o
 .bss           0x00000000        0x0 build/default/production/_ext/1664057780/random.o
 .reginfo       0x00000000       0x18 build/default/production/_ext/1664057780/random.o
 .text.wc_RNG_DRBG_Reseed
                0x00000000       0x40 build/default/production/_ext/1664057780/random.o
 .text.wc_FreeRng
                0x00000000       0x68 build/default/production/_ext/1664057780/random.o
 .text.wc_rng_free
                0x00000000       0x4c build/default/production/_ext/1664057780/random.o
 .text.wc_rng_new
                0x00000000       0x84 build/default/production/_ext/1664057780/random.o
 .text.wc_InitRng_ex
                0x00000000       0x28 build/default/production/_ext/1664057780/random.o
 .text.wc_InitRngNonce
                0x00000000       0x24 build/default/production/_ext/1664057780/random.o
 .text.wc_InitRngNonce_ex
                0x00000000       0x20 build/default/production/_ext/1664057780/random.o
 .text.wc_RNG_GenerateByte
                0x00000000       0x1c build/default/production/_ext/1664057780/random.o
 .text          0x00000000        0x0 build/default/production/_ext/1664057780/sha.o
 .data          0x00000000        0x0 build/default/production/_ext/1664057780/sha.o
 .bss           0x00000000        0x0 build/default/production/_ext/1664057780/sha.o
 .reginfo       0x00000000       0x18 build/default/production/_ext/1664057780/sha.o
 .text.Transform
                0x00000000     0x1018 build/default/production/_ext/1664057780/sha.o
 .text.wc_InitSha_ex
                0x00000000       0x6c build/default/production/_ext/1664057780/sha.o
 .text.wc_ShaUpdate
                0x00000000      0x290 build/default/production/_ext/1664057780/sha.o
 .text.wc_ShaFinalRaw
                0x00000000       0xb8 build/default/production/_ext/1664057780/sha.o
 .text.wc_ShaFinal
                0x00000000      0x2c8 build/default/production/_ext/1664057780/sha.o
 .text.wc_InitSha
                0x00000000       0x20 build/default/production/_ext/1664057780/sha.o
 .text.wc_ShaFree
                0x00000000        0x8 build/default/production/_ext/1664057780/sha.o
 .text.wc_ShaCopy
                0x00000000       0x88 build/default/production/_ext/1664057780/sha.o
 .text.wc_ShaGetHash
                0x00000000       0x60 build/default/production/_ext/1664057780/sha.o
 .text.wc_ShaSetFlags
                0x00000000       0x10 build/default/production/_ext/1664057780/sha.o
 .text.wc_ShaGetFlags
                0x00000000       0x20 build/default/production/_ext/1664057780/sha.o
 .text          0x00000000        0x0 build/default/production/_ext/1664057780/sha256.o
 .data          0x00000000        0x0 build/default/production/_ext/1664057780/sha256.o
 .bss           0x00000000        0x0 build/default/production/_ext/1664057780/sha256.o
 .reginfo       0x00000000       0x18 build/default/production/_ext/1664057780/sha256.o
 .text.wc_Sha256FinalRaw
                0x00000000       0xd8 build/default/production/_ext/1664057780/sha256.o
 .text.wc_InitSha224_ex
                0x00000000       0x8c build/default/production/_ext/1664057780/sha256.o
 .text.wc_Sha224Update
                0x00000000      0x244 build/default/production/_ext/1664057780/sha256.o
 .text.wc_Sha224Final
                0x00000000      0x2e4 build/default/production/_ext/1664057780/sha256.o
 .text.wc_InitSha224
                0x00000000       0x20 build/default/production/_ext/1664057780/sha256.o
 .text.wc_Sha224Free
                0x00000000        0x8 build/default/production/_ext/1664057780/sha256.o
 .text.wc_InitSha256
                0x00000000       0x20 build/default/production/_ext/1664057780/sha256.o
 .text.wc_Sha224Copy
                0x00000000       0xb8 build/default/production/_ext/1664057780/sha256.o
 .text.wc_Sha224GetHash
                0x00000000       0x60 build/default/production/_ext/1664057780/sha256.o
 .text.wc_Sha224SetFlags
                0x00000000       0x10 build/default/production/_ext/1664057780/sha256.o
 .text.wc_Sha224GetFlags
                0x00000000       0x20 build/default/production/_ext/1664057780/sha256.o
 .text.wc_Sha256Copy
                0x00000000       0xb8 build/default/production/_ext/1664057780/sha256.o
 .text.wc_Sha256GetHash
                0x00000000       0x60 build/default/production/_ext/1664057780/sha256.o
 .text.wc_Sha256SetFlags
                0x00000000       0x10 build/default/production/_ext/1664057780/sha256.o
 .text.wc_Sha256GetFlags
                0x00000000       0x20 build/default/production/_ext/1664057780/sha256.o
 .text          0x00000000        0x0 build/default/production/_ext/1664057780/sha512.o
 .data          0x00000000        0x0 build/default/production/_ext/1664057780/sha512.o
 .bss           0x00000000        0x0 build/default/production/_ext/1664057780/sha512.o
 .reginfo       0x00000000       0x18 build/default/production/_ext/1664057780/sha512.o
 .text          0x00000000        0x0 build/default/production/_ext/1664057780/misc.o
 .data          0x00000000        0x0 build/default/production/_ext/1664057780/misc.o
 .bss           0x00000000        0x0 build/default/production/_ext/1664057780/misc.o
 .reginfo       0x00000000       0x18 build/default/production/_ext/1664057780/misc.o
 .text          0x00000000        0x0 build/default/production/_ext/1664057780/evp.o
 .data          0x00000000        0x0 build/default/production/_ext/1664057780/evp.o
 .bss           0x00000000        0x0 build/default/production/_ext/1664057780/evp.o
 .reginfo       0x00000000       0x18 build/default/production/_ext/1664057780/evp.o
 .text          0x00000000        0x0 build/default/production/_ext/1645245335/crypto.o
 .data          0x00000000        0x0 build/default/production/_ext/1645245335/crypto.o
 .bss           0x00000000        0x0 build/default/production/_ext/1645245335/crypto.o
 .reginfo       0x00000000       0x18 build/default/production/_ext/1645245335/crypto.o
 .text.CRYPT_MD5_DataSizeSet
                0x00000000        0xc build/default/production/_ext/1645245335/crypto.o
 .text.CRYPT_SHA_Initialize
                0x00000000       0x30 build/default/production/_ext/1645245335/crypto.o
 .text.CRYPT_SHA_DataSizeSet
                0x00000000        0xc build/default/production/_ext/1645245335/crypto.o
 .text.CRYPT_SHA_DataAdd
                0x00000000       0x40 build/default/production/_ext/1645245335/crypto.o
 .text.CRYPT_SHA_Finalize
                0x00000000       0x40 build/default/production/_ext/1645245335/crypto.o
 .text.CRYPT_SHA256_Initialize
                0x00000000       0x30 build/default/production/_ext/1645245335/crypto.o
 .text.CRYPT_SHA256_DataSizeSet
                0x00000000        0xc build/default/production/_ext/1645245335/crypto.o
 .text.CRYPT_SHA256_DataAdd
                0x00000000       0x40 build/default/production/_ext/1645245335/crypto.o
 .text.CRYPT_SHA256_Finalize
                0x00000000       0x40 build/default/production/_ext/1645245335/crypto.o
 .text.CRYPT_SHA224_Initialize
                0x00000000       0x30 build/default/production/_ext/1645245335/crypto.o
 .text.CRYPT_SHA224_DataAdd
                0x00000000       0x40 build/default/production/_ext/1645245335/crypto.o
 .text.CRYPT_SHA224_Finalize
                0x00000000       0x40 build/default/production/_ext/1645245335/crypto.o
 .text.CRYPT_HMAC_SetKey
                0x00000000       0x74 build/default/production/_ext/1645245335/crypto.o
 .text.CRYPT_HMAC_DataAdd
                0x00000000       0x40 build/default/production/_ext/1645245335/crypto.o
 .text.CRYPT_HMAC_Finalize
                0x00000000       0x40 build/default/production/_ext/1645245335/crypto.o
 .text.CRYPT_RNG_Deinitialize
                0x00000000       0x60 build/default/production/_ext/1645245335/crypto.o
 .text.CRYPT_RNG_Get
                0x00000000       0x40 build/default/production/_ext/1645245335/crypto.o
 .text.CRYPT_TDES_KeySet
                0x00000000       0x40 build/default/production/_ext/1645245335/crypto.o
 .text.CRYPT_TDES_IvSet
                0x00000000       0x40 build/default/production/_ext/1645245335/crypto.o
 .text.CRYPT_TDES_CBC_Encrypt
                0x00000000       0x50 build/default/production/_ext/1645245335/crypto.o
 .text.CRYPT_TDES_CBC_Decrypt
                0x00000000       0x50 build/default/production/_ext/1645245335/crypto.o
 .text.CRYPT_AES_KeySet
                0x00000000       0x44 build/default/production/_ext/1645245335/crypto.o
 .text.CRYPT_AES_IvSet
                0x00000000       0x40 build/default/production/_ext/1645245335/crypto.o
 .text.CRYPT_AES_CBC_Encrypt
                0x00000000       0x50 build/default/production/_ext/1645245335/crypto.o
 .text.CRYPT_AES_CBC_Decrypt
                0x00000000       0x50 build/default/production/_ext/1645245335/crypto.o
 .text.CRYPT_AES_CTR_Encrypt
                0x00000000       0x50 build/default/production/_ext/1645245335/crypto.o
 .text.CRYPT_AES_GCM_SetKey
                0x00000000       0x40 build/default/production/_ext/1645245335/crypto.o
 .text.CRYPT_AES_GCM_Encrypt
                0x00000000       0x6c build/default/production/_ext/1645245335/crypto.o
 .text.CRYPT_AES_GCM_Decrypt
                0x00000000       0x5c build/default/production/_ext/1645245335/crypto.o
 .text.CRYPT_AES_DIRECT_Encrypt
                0x00000000       0x34 build/default/production/_ext/1645245335/crypto.o
 .text.CRYPT_AES_DIRECT_Decrypt
                0x00000000       0x54 build/default/production/_ext/1645245335/crypto.o
 .text.CRYPT_RSA_Initialize
                0x00000000       0x58 build/default/production/_ext/1645245335/crypto.o
 .text.CRYPT_RSA_Free
                0x00000000       0x50 build/default/production/_ext/1645245335/crypto.o
 .text.CRYPT_RSA_PublicKeyDecode
                0x00000000       0x4c build/default/production/_ext/1645245335/crypto.o
 .text.CRYPT_RSA_PrivateKeyDecode
                0x00000000       0x4c build/default/production/_ext/1645245335/crypto.o
 .text.CRYPT_RSA_PublicEncrypt
                0x00000000       0x70 build/default/production/_ext/1645245335/crypto.o
 .text.CRYPT_RSA_PrivateDecrypt
                0x00000000       0x68 build/default/production/_ext/1645245335/crypto.o
 .text.CRYPT_RSA_EncryptSizeGet
                0x00000000       0x30 build/default/production/_ext/1645245335/crypto.o
 .text.CRYPT_ECC_Initialize
                0x00000000       0x50 build/default/production/_ext/1645245335/crypto.o
 .text.CRYPT_ECC_Free
                0x00000000       0x50 build/default/production/_ext/1645245335/crypto.o
 .text.CRYPT_ECC_PublicExport
                0x00000000       0x50 build/default/production/_ext/1645245335/crypto.o
 .text.CRYPT_ECC_PublicImport
                0x00000000       0x44 build/default/production/_ext/1645245335/crypto.o
 .text.CRYPT_ECC_PrivateImport
                0x00000000       0x64 build/default/production/_ext/1645245335/crypto.o
 .text.CRYPT_ECC_DHE_KeyMake
                0x00000000       0x44 build/default/production/_ext/1645245335/crypto.o
 .text.CRYPT_ECC_DHE_SharedSecretMake
                0x00000000       0x64 build/default/production/_ext/1645245335/crypto.o
 .text.CRYPT_ECC_DSA_HashSign
                0x00000000       0x78 build/default/production/_ext/1645245335/crypto.o
 .text.CRYPT_ECC_DSA_HashVerify
                0x00000000       0x60 build/default/production/_ext/1645245335/crypto.o
 .text.CRYPT_ECC_KeySizeGet
                0x00000000       0x30 build/default/production/_ext/1645245335/crypto.o
 .text.CRYPT_ECC_SignatureSizeGet
                0x00000000       0x30 build/default/production/_ext/1645245335/crypto.o
 .rodata        0x00000000       0x28 build/default/production/_ext/1645245335/crypto.o
 .text.CRYPT_ERROR_StringGet
                0x00000000       0x3c build/default/production/_ext/1645245335/crypto.o
 .text          0x00000000        0x0 build/default/production/_ext/1171490990/freertos_hooks.o
 .data          0x00000000        0x0 build/default/production/_ext/1171490990/freertos_hooks.o
 .bss           0x00000000        0x0 build/default/production/_ext/1171490990/freertos_hooks.o
 .reginfo       0x00000000       0x18 build/default/production/_ext/1171490990/freertos_hooks.o
 .text.vApplicationIdleHook
                0x00000000        0x8 build/default/production/_ext/1171490990/freertos_hooks.o
 .text.vApplicationTickHook
                0x00000000        0x8 build/default/production/_ext/1171490990/freertos_hooks.o
 .text.vAssertCalled
                0x00000000       0x40 build/default/production/_ext/1171490990/freertos_hooks.o
 .text          0x00000000        0x0 build/default/production/_ext/404212886/croutine.o
 .data          0x00000000        0x0 build/default/production/_ext/404212886/croutine.o
 .bss           0x00000000        0x0 build/default/production/_ext/404212886/croutine.o
 .reginfo       0x00000000       0x18 build/default/production/_ext/404212886/croutine.o
 .text          0x00000000        0x0 build/default/production/_ext/404212886/list.o
 .data          0x00000000        0x0 build/default/production/_ext/404212886/list.o
 .bss           0x00000000        0x0 build/default/production/_ext/404212886/list.o
 .reginfo       0x00000000       0x18 build/default/production/_ext/404212886/list.o
 .text          0x00000000        0x0 build/default/production/_ext/404212886/queue.o
 .data          0x00000000        0x0 build/default/production/_ext/404212886/queue.o
 .bss           0x00000000        0x0 build/default/production/_ext/404212886/queue.o
 .reginfo       0x00000000       0x18 build/default/production/_ext/404212886/queue.o
 .text.prvCopyDataFromQueue
                0x00000000       0x50 build/default/production/_ext/404212886/queue.o
 .text.xQueueGenericSendFromISR
                0x00000000       0xf4 build/default/production/_ext/404212886/queue.o
 .text.xQueueGiveFromISR
                0x00000000       0xc0 build/default/production/_ext/404212886/queue.o
 .text.xQueueReceive
                0x00000000      0x1c0 build/default/production/_ext/404212886/queue.o
 .text.xQueuePeek
                0x00000000      0x1b8 build/default/production/_ext/404212886/queue.o
 .text.xQueueReceiveFromISR
                0x00000000       0xe0 build/default/production/_ext/404212886/queue.o
 .text.xQueuePeekFromISR
                0x00000000       0x74 build/default/production/_ext/404212886/queue.o
 .text.uxQueueMessagesWaiting
                0x00000000       0x34 build/default/production/_ext/404212886/queue.o
 .text.uxQueueSpacesAvailable
                0x00000000       0x38 build/default/production/_ext/404212886/queue.o
 .text.uxQueueMessagesWaitingFromISR
                0x00000000        0xc build/default/production/_ext/404212886/queue.o
 .text.xQueueIsQueueEmptyFromISR
                0x00000000        0xc build/default/production/_ext/404212886/queue.o
 .text.xQueueIsQueueFullFromISR
                0x00000000       0x14 build/default/production/_ext/404212886/queue.o
 .text          0x00000000        0x0 build/default/production/_ext/404212886/FreeRTOS_tasks.o
 .data          0x00000000        0x0 build/default/production/_ext/404212886/FreeRTOS_tasks.o
 .reginfo       0x00000000       0x18 build/default/production/_ext/404212886/FreeRTOS_tasks.o
 .text.uxTaskPriorityGetFromISR
                0x00000000       0x40 build/default/production/_ext/404212886/FreeRTOS_tasks.o
 .text.vTaskEndScheduler
                0x00000000       0x34 build/default/production/_ext/404212886/FreeRTOS_tasks.o
 .text.xTaskGetTickCount
                0x00000000        0xc build/default/production/_ext/404212886/FreeRTOS_tasks.o
 .text.xTaskGetTickCountFromISR
                0x00000000        0xc build/default/production/_ext/404212886/FreeRTOS_tasks.o
 .text.uxTaskGetNumberOfTasks
                0x00000000        0xc build/default/production/_ext/404212886/FreeRTOS_tasks.o
 .text.pcTaskGetName
                0x00000000       0x10 build/default/production/_ext/404212886/FreeRTOS_tasks.o
 .text.vTaskPlaceOnUnorderedEventList
                0x00000000       0x48 build/default/production/_ext/404212886/FreeRTOS_tasks.o
 .text.vTaskRemoveFromUnorderedEventList
                0x00000000       0x98 build/default/production/_ext/404212886/FreeRTOS_tasks.o
 .text.xTaskGetCurrentTaskHandle
                0x00000000        0xc build/default/production/_ext/404212886/FreeRTOS_tasks.o
 .text.vTaskDelete
                0x00000000      0x128 build/default/production/_ext/404212886/FreeRTOS_tasks.o
 .text.uxTaskPriorityGet
                0x00000000       0x3c build/default/production/_ext/404212886/FreeRTOS_tasks.o
 .text.vTaskPrioritySet
                0x00000000      0x15c build/default/production/_ext/404212886/FreeRTOS_tasks.o
 .text.vTaskSuspend
                0x00000000      0x140 build/default/production/_ext/404212886/FreeRTOS_tasks.o
 .text.vTaskResume
                0x00000000       0xe0 build/default/production/_ext/404212886/FreeRTOS_tasks.o
 .text.vTaskDelayUntil
                0x00000000       0xa8 build/default/production/_ext/404212886/FreeRTOS_tasks.o
 .text.xTaskCatchUpTicks
                0x00000000       0x38 build/default/production/_ext/404212886/FreeRTOS_tasks.o
 .text.vTaskSetTimeOutState
                0x00000000       0x38 build/default/production/_ext/404212886/FreeRTOS_tasks.o
 .text.uxTaskResetEventItemValue
                0x00000000       0x24 build/default/production/_ext/404212886/FreeRTOS_tasks.o
 .text.ulTaskNotifyTake
                0x00000000       0xc4 build/default/production/_ext/404212886/FreeRTOS_tasks.o
 .text.xTaskNotifyWait
                0x00000000      0x108 build/default/production/_ext/404212886/FreeRTOS_tasks.o
 .text.xTaskGenericNotify
                0x00000000      0x170 build/default/production/_ext/404212886/FreeRTOS_tasks.o
 .text.xTaskGenericNotifyFromISR
                0x00000000      0x1a8 build/default/production/_ext/404212886/FreeRTOS_tasks.o
 .text.vTaskNotifyGiveFromISR
                0x00000000      0x104 build/default/production/_ext/404212886/FreeRTOS_tasks.o
 .text.xTaskNotifyStateClear
                0x00000000       0x60 build/default/production/_ext/404212886/FreeRTOS_tasks.o
 .text.ulTaskNotifyValueClear
                0x00000000       0x68 build/default/production/_ext/404212886/FreeRTOS_tasks.o
 .text          0x00000000        0x0 build/default/production/_ext/404212886/timers.o
 .data          0x00000000        0x0 build/default/production/_ext/404212886/timers.o
 .bss           0x00000000        0x0 build/default/production/_ext/404212886/timers.o
 .reginfo       0x00000000       0x18 build/default/production/_ext/404212886/timers.o
 .text          0x00000000        0x0 build/default/production/_ext/404212886/event_groups.o
 .data          0x00000000        0x0 build/default/production/_ext/404212886/event_groups.o
 .bss           0x00000000        0x0 build/default/production/_ext/404212886/event_groups.o
 .reginfo       0x00000000       0x18 build/default/production/_ext/404212886/event_groups.o
 .text.xEventGroupCreate
                0x00000000       0x3c build/default/production/_ext/404212886/event_groups.o
 .text.xEventGroupWaitBits
                0x00000000      0x148 build/default/production/_ext/404212886/event_groups.o
 .text.xEventGroupClearBits
                0x00000000       0x50 build/default/production/_ext/404212886/event_groups.o
 .text.xEventGroupGetBitsFromISR
                0x00000000       0x34 build/default/production/_ext/404212886/event_groups.o
 .text.xEventGroupSetBits
                0x00000000       0xfc build/default/production/_ext/404212886/event_groups.o
 .text.xEventGroupSync
                0x00000000      0x110 build/default/production/_ext/404212886/event_groups.o
 .text.vEventGroupDelete
                0x00000000       0x58 build/default/production/_ext/404212886/event_groups.o
 .text.vEventGroupSetBitsCallback
                0x00000000       0x1c build/default/production/_ext/404212886/event_groups.o
 .text.vEventGroupClearBitsCallback
                0x00000000       0x1c build/default/production/_ext/404212886/event_groups.o
 .text          0x00000000        0x0 build/default/production/_ext/404212886/stream_buffer.o
 .data          0x00000000        0x0 build/default/production/_ext/404212886/stream_buffer.o
 .bss           0x00000000        0x0 build/default/production/_ext/404212886/stream_buffer.o
 .reginfo       0x00000000       0x18 build/default/production/_ext/404212886/stream_buffer.o
 .text.prvBytesInBuffer
                0x00000000       0x28 build/default/production/_ext/404212886/stream_buffer.o
 .text.prvWriteBytesToBuffer
                0x00000000       0xa4 build/default/production/_ext/404212886/stream_buffer.o
 .text.prvWriteMessageToBuffer
                0x00000000       0x80 build/default/production/_ext/404212886/stream_buffer.o
 .text.prvReadBytesFromBuffer
                0x00000000       0xb4 build/default/production/_ext/404212886/stream_buffer.o
 .text.xStreamBufferGenericCreate
                0x00000000       0x84 build/default/production/_ext/404212886/stream_buffer.o
 .text.vStreamBufferDelete
                0x00000000       0x40 build/default/production/_ext/404212886/stream_buffer.o
 .text.xStreamBufferReset
                0x00000000       0x98 build/default/production/_ext/404212886/stream_buffer.o
 .text.xStreamBufferSetTriggerLevel
                0x00000000       0x28 build/default/production/_ext/404212886/stream_buffer.o
 .text.xStreamBufferSpacesAvailable
                0x00000000       0x2c build/default/production/_ext/404212886/stream_buffer.o
 .text.xStreamBufferBytesAvailable
                0x00000000       0x1c build/default/production/_ext/404212886/stream_buffer.o
 .text.xStreamBufferSend
                0x00000000      0x16c build/default/production/_ext/404212886/stream_buffer.o
 .text.xStreamBufferSendFromISR
                0x00000000       0xdc build/default/production/_ext/404212886/stream_buffer.o
 .text.xStreamBufferReceive
                0x00000000      0x190 build/default/production/_ext/404212886/stream_buffer.o
 .text.xStreamBufferNextMessageLengthBytes
                0x00000000       0x6c build/default/production/_ext/404212886/stream_buffer.o
 .text.xStreamBufferReceiveFromISR
                0x00000000      0x130 build/default/production/_ext/404212886/stream_buffer.o
 .text.xStreamBufferIsEmpty
                0x00000000       0x14 build/default/production/_ext/404212886/stream_buffer.o
 .text.xStreamBufferIsFull
                0x00000000       0x3c build/default/production/_ext/404212886/stream_buffer.o
 .text.xStreamBufferSendCompletedFromISR
                0x00000000       0x74 build/default/production/_ext/404212886/stream_buffer.o
 .text.xStreamBufferReceiveCompletedFromISR
                0x00000000       0x74 build/default/production/_ext/404212886/stream_buffer.o
 .text          0x00000000        0x0 build/default/production/_ext/1665200909/heap_1.o
 .data          0x00000000        0x0 build/default/production/_ext/1665200909/heap_1.o
 .reginfo       0x00000000       0x18 build/default/production/_ext/1665200909/heap_1.o
 .text.vPortInitialiseBlocks
                0x00000000        0x8 build/default/production/_ext/1665200909/heap_1.o
 .text.xPortGetFreeHeapSize
                0x00000000       0x10 build/default/production/_ext/1665200909/heap_1.o
 .text          0x00000000        0x0 build/default/production/_ext/951553248/port.o
 .data          0x00000000        0x0 build/default/production/_ext/951553248/port.o
 .reginfo       0x00000000       0x18 build/default/production/_ext/951553248/port.o
 .text.vPortEndScheduler
                0x00000000        0x8 build/default/production/_ext/951553248/port.o
 .text.vPortClearInterruptMaskFromISR
                0x00000000       0x1c build/default/production/_ext/951553248/port.o
 .data          0x00000000        0x0 build/default/production/_ext/951553248/port_asm.o
 .bss           0x00000000        0x0 build/default/production/_ext/951553248/port_asm.o
 .reginfo       0x00000000       0x18 build/default/production/_ext/951553248/port_asm.o
 .text          0x00000000        0x0 C:\Users\user\AppData\Local\Temp\ccWnVuPa.o
 .data          0x00000000        0x0 C:\Users\user\AppData\Local\Temp\ccWnVuPa.o
 .bss           0x00000000        0x0 C:\Users\user\AppData\Local\Temp\ccWnVuPa.o
 .reginfo       0x00000000       0x18 C:\Users\user\AppData\Local\Temp\ccWnVuPa.o
 .text          0x00000000        0x0 C:\Users\user\AppData\Local\Temp\ccsDbrpg.o
 .data          0x00000000        0x0 C:\Users\user\AppData\Local\Temp\ccsDbrpg.o
 .bss           0x00000000        0x0 C:\Users\user\AppData\Local\Temp\ccsDbrpg.o
 .reginfo       0x00000000       0x18 C:\Users\user\AppData\Local\Temp\ccsDbrpg.o
 .text          0x00000000        0x0 C:\Users\user\AppData\Local\Temp\ccQYy8Ku.o
 .data          0x00000000        0x0 C:\Users\user\AppData\Local\Temp\ccQYy8Ku.o
 .bss           0x00000000        0x0 C:\Users\user\AppData\Local\Temp\ccQYy8Ku.o
 .reginfo       0x00000000       0x18 C:\Users\user\AppData\Local\Temp\ccQYy8Ku.o
 .discard       0x00000000       0xd0 C:\Users\user\AppData\Local\Temp\ccQYy8Ku.o
 .text          0x00000000        0x0 c:/program files/microchip/xc32/v2.50/bin/bin/../../lib/gcc/pic32mx/4.8.3/../../../../pic32mx/lib/./proc/32MX795F512L\default_isr_vectors.o
 .data          0x00000000        0x0 c:/program files/microchip/xc32/v2.50/bin/bin/../../lib/gcc/pic32mx/4.8.3/../../../../pic32mx/lib/./proc/32MX795F512L\default_isr_vectors.o
 .bss           0x00000000        0x0 c:/program files/microchip/xc32/v2.50/bin/bin/../../lib/gcc/pic32mx/4.8.3/../../../../pic32mx/lib/./proc/32MX795F512L\default_isr_vectors.o
 .reginfo       0x00000000       0x18 c:/program files/microchip/xc32/v2.50/bin/bin/../../lib/gcc/pic32mx/4.8.3/../../../../pic32mx/lib/./proc/32MX795F512L\default_isr_vectors.o
 .discard       0x00000000       0xd0 c:/program files/microchip/xc32/v2.50/bin/bin/../../lib/gcc/pic32mx/4.8.3/../../../../pic32mx/lib/./proc/32MX795F512L\default_isr_vectors.o
 .data          0x00000000        0x0 c:/program files/microchip/xc32/v2.50/bin/bin/../../lib/gcc/pic32mx/4.8.3/../../../../pic32mx/lib\pic32_software_reset.o
 .bss           0x00000000        0x0 c:/program files/microchip/xc32/v2.50/bin/bin/../../lib/gcc/pic32mx/4.8.3/../../../../pic32mx/lib\pic32_software_reset.o
 .reginfo       0x00000000       0x18 c:/program files/microchip/xc32/v2.50/bin/bin/../../lib/gcc/pic32mx/4.8.3/../../../../pic32mx/lib\pic32_software_reset.o
 .data          0x00000000        0x0 c:/program files/microchip/xc32/v2.50/bin/bin/../../lib/gcc/pic32mx/4.8.3\libgcc.a(_udivdi3.o)
 .bss           0x00000000        0x0 c:/program files/microchip/xc32/v2.50/bin/bin/../../lib/gcc/pic32mx/4.8.3\libgcc.a(_udivdi3.o)
 .reginfo       0x00000000       0x18 c:/program files/microchip/xc32/v2.50/bin/bin/../../lib/gcc/pic32mx/4.8.3\libgcc.a(_udivdi3.o)
 .data          0x00000000        0x0 c:/program files/microchip/xc32/v2.50/bin/bin/../../lib/gcc/pic32mx/4.8.3/../../../../pic32mx/lib\libpic32.a(memcmp.o)
 .bss           0x00000000        0x0 c:/program files/microchip/xc32/v2.50/bin/bin/../../lib/gcc/pic32mx/4.8.3/../../../../pic32mx/lib\libpic32.a(memcmp.o)
 .reginfo       0x00000000       0x18 c:/program files/microchip/xc32/v2.50/bin/bin/../../lib/gcc/pic32mx/4.8.3/../../../../pic32mx/lib\libpic32.a(memcmp.o)
 .data          0x00000000        0x0 c:/program files/microchip/xc32/v2.50/bin/bin/../../lib/gcc/pic32mx/4.8.3/../../../../pic32mx/lib\libpic32.a(memcpy.o)
 .bss           0x00000000        0x0 c:/program files/microchip/xc32/v2.50/bin/bin/../../lib/gcc/pic32mx/4.8.3/../../../../pic32mx/lib\libpic32.a(memcpy.o)
 .reginfo       0x00000000       0x18 c:/program files/microchip/xc32/v2.50/bin/bin/../../lib/gcc/pic32mx/4.8.3/../../../../pic32mx/lib\libpic32.a(memcpy.o)
 .data          0x00000000        0x0 c:/program files/microchip/xc32/v2.50/bin/bin/../../lib/gcc/pic32mx/4.8.3/../../../../pic32mx/lib\libpic32.a(memset.o)
 .bss           0x00000000        0x0 c:/program files/microchip/xc32/v2.50/bin/bin/../../lib/gcc/pic32mx/4.8.3/../../../../pic32mx/lib\libpic32.a(memset.o)
 .reginfo       0x00000000       0x18 c:/program files/microchip/xc32/v2.50/bin/bin/../../lib/gcc/pic32mx/4.8.3/../../../../pic32mx/lib\libpic32.a(memset.o)
 .data          0x00000000        0x0 c:/program files/microchip/xc32/v2.50/bin/bin/../../lib/gcc/pic32mx/4.8.3/../../../../pic32mx/lib\libpic32.a(strcmp.o)
 .bss           0x00000000        0x0 c:/program files/microchip/xc32/v2.50/bin/bin/../../lib/gcc/pic32mx/4.8.3/../../../../pic32mx/lib\libpic32.a(strcmp.o)
 .reginfo       0x00000000       0x18 c:/program files/microchip/xc32/v2.50/bin/bin/../../lib/gcc/pic32mx/4.8.3/../../../../pic32mx/lib\libpic32.a(strcmp.o)
 .data          0x00000000        0x0 c:/program files/microchip/xc32/v2.50/bin/bin/../../lib/gcc/pic32mx/4.8.3/../../../../pic32mx/lib\libpic32.a(strcpy.o)
 .bss           0x00000000        0x0 c:/program files/microchip/xc32/v2.50/bin/bin/../../lib/gcc/pic32mx/4.8.3/../../../../pic32mx/lib\libpic32.a(strcpy.o)
 .reginfo       0x00000000       0x18 c:/program files/microchip/xc32/v2.50/bin/bin/../../lib/gcc/pic32mx/4.8.3/../../../../pic32mx/lib\libpic32.a(strcpy.o)
 .data          0x00000000        0x0 c:/program files/microchip/xc32/v2.50/bin/bin/../../lib/gcc/pic32mx/4.8.3/../../../../pic32mx/lib\libpic32.a(strlen.o)
 .bss           0x00000000        0x0 c:/program files/microchip/xc32/v2.50/bin/bin/../../lib/gcc/pic32mx/4.8.3/../../../../pic32mx/lib\libpic32.a(strlen.o)
 .reginfo       0x00000000       0x18 c:/program files/microchip/xc32/v2.50/bin/bin/../../lib/gcc/pic32mx/4.8.3/../../../../pic32mx/lib\libpic32.a(strlen.o)
 .text          0x00000000        0x0 c:/program files/microchip/xc32/v2.50/bin/bin/../../lib/gcc/pic32mx/4.8.3/../../../../pic32mx/lib\libpic32.a(default-on-reset.o)
 .data          0x00000000        0x0 c:/program files/microchip/xc32/v2.50/bin/bin/../../lib/gcc/pic32mx/4.8.3/../../../../pic32mx/lib\libpic32.a(default-on-reset.o)
 .bss           0x00000000        0x0 c:/program files/microchip/xc32/v2.50/bin/bin/../../lib/gcc/pic32mx/4.8.3/../../../../pic32mx/lib\libpic32.a(default-on-reset.o)
 .reginfo       0x00000000       0x18 c:/program files/microchip/xc32/v2.50/bin/bin/../../lib/gcc/pic32mx/4.8.3/../../../../pic32mx/lib\libpic32.a(default-on-reset.o)
 .text          0x00000000        0x0 c:/program files/microchip/xc32/v2.50/bin/bin/../../lib/gcc/pic32mx/4.8.3/../../../../pic32mx/lib\libpic32.a(default-on-bootstrap.o)
 .data          0x00000000        0x0 c:/program files/microchip/xc32/v2.50/bin/bin/../../lib/gcc/pic32mx/4.8.3/../../../../pic32mx/lib\libpic32.a(default-on-bootstrap.o)
 .bss           0x00000000        0x0 c:/program files/microchip/xc32/v2.50/bin/bin/../../lib/gcc/pic32mx/4.8.3/../../../../pic32mx/lib\libpic32.a(default-on-bootstrap.o)
 .reginfo       0x00000000       0x18 c:/program files/microchip/xc32/v2.50/bin/bin/../../lib/gcc/pic32mx/4.8.3/../../../../pic32mx/lib\libpic32.a(default-on-bootstrap.o)
 .data          0x00000000        0x0 c:/program files/microchip/xc32/v2.50/bin/bin/../../lib/gcc/pic32mx/4.8.3/../../../../pic32mx/lib\libpic32.a(default-nmi-handler.o)
 .bss           0x00000000        0x0 c:/program files/microchip/xc32/v2.50/bin/bin/../../lib/gcc/pic32mx/4.8.3/../../../../pic32mx/lib\libpic32.a(default-nmi-handler.o)
 .reginfo       0x00000000       0x18 c:/program files/microchip/xc32/v2.50/bin/bin/../../lib/gcc/pic32mx/4.8.3/../../../../pic32mx/lib\libpic32.a(default-nmi-handler.o)
 .data          0x00000000        0x0 c:/program files/microchip/xc32/v2.50/bin/bin/../../lib/gcc/pic32mx/4.8.3/../../../../pic32mx/lib\libpic32.a(pic32_data_init.o)
 .bss           0x00000000        0x0 c:/program files/microchip/xc32/v2.50/bin/bin/../../lib/gcc/pic32mx/4.8.3/../../../../pic32mx/lib\libpic32.a(pic32_data_init.o)
 .reginfo       0x00000000       0x18 c:/program files/microchip/xc32/v2.50/bin/bin/../../lib/gcc/pic32mx/4.8.3/../../../../pic32mx/lib\libpic32.a(pic32_data_init.o)
 .text          0x00000000        0x0 c:/program files/microchip/xc32/v2.50/bin/bin/../../lib/gcc/pic32mx/4.8.3/../../../../pic32mx/lib\libpic32.a(general-exception.o)
 .data          0x00000000        0x0 c:/program files/microchip/xc32/v2.50/bin/bin/../../lib/gcc/pic32mx/4.8.3/../../../../pic32mx/lib\libpic32.a(general-exception.o)
 .bss           0x00000000        0x0 c:/program files/microchip/xc32/v2.50/bin/bin/../../lib/gcc/pic32mx/4.8.3/../../../../pic32mx/lib\libpic32.a(general-exception.o)
 .reginfo       0x00000000       0x18 c:/program files/microchip/xc32/v2.50/bin/bin/../../lib/gcc/pic32mx/4.8.3/../../../../pic32mx/lib\libpic32.a(general-exception.o)
 .text          0x00000000        0x0 c:/program files/microchip/xc32/v2.50/bin/bin/../../lib/gcc/pic32mx/4.8.3/../../../../pic32mx/lib\libpic32.a(vector2.o)
 .data          0x00000000        0x0 c:/program files/microchip/xc32/v2.50/bin/bin/../../lib/gcc/pic32mx/4.8.3/../../../../pic32mx/lib\libpic32.a(vector2.o)
 .bss           0x00000000        0x0 c:/program files/microchip/xc32/v2.50/bin/bin/../../lib/gcc/pic32mx/4.8.3/../../../../pic32mx/lib\libpic32.a(vector2.o)
 .reginfo       0x00000000       0x18 c:/program files/microchip/xc32/v2.50/bin/bin/../../lib/gcc/pic32mx/4.8.3/../../../../pic32mx/lib\libpic32.a(vector2.o)
 .text          0x00000000        0x0 c:/program files/microchip/xc32/v2.50/bin/bin/../../lib/gcc/pic32mx/4.8.3/../../../../pic32mx/lib\libpic32.a(vector3.o)
 .data          0x00000000        0x0 c:/program files/microchip/xc32/v2.50/bin/bin/../../lib/gcc/pic32mx/4.8.3/../../../../pic32mx/lib\libpic32.a(vector3.o)
 .bss           0x00000000        0x0 c:/program files/microchip/xc32/v2.50/bin/bin/../../lib/gcc/pic32mx/4.8.3/../../../../pic32mx/lib\libpic32.a(vector3.o)
 .reginfo       0x00000000       0x18 c:/program files/microchip/xc32/v2.50/bin/bin/../../lib/gcc/pic32mx/4.8.3/../../../../pic32mx/lib\libpic32.a(vector3.o)
 .text          0x00000000        0x0 c:/program files/microchip/xc32/v2.50/bin/bin/../../lib/gcc/pic32mx/4.8.3/../../../../pic32mx/lib\libpic32.a(vector5.o)
 .data          0x00000000        0x0 c:/program files/microchip/xc32/v2.50/bin/bin/../../lib/gcc/pic32mx/4.8.3/../../../../pic32mx/lib\libpic32.a(vector5.o)
 .bss           0x00000000        0x0 c:/program files/microchip/xc32/v2.50/bin/bin/../../lib/gcc/pic32mx/4.8.3/../../../../pic32mx/lib\libpic32.a(vector5.o)
 .reginfo       0x00000000       0x18 c:/program files/microchip/xc32/v2.50/bin/bin/../../lib/gcc/pic32mx/4.8.3/../../../../pic32mx/lib\libpic32.a(vector5.o)
 .text          0x00000000        0x0 c:/program files/microchip/xc32/v2.50/bin/bin/../../lib/gcc/pic32mx/4.8.3/../../../../pic32mx/lib\libpic32.a(vector6.o)
 .data          0x00000000        0x0 c:/program files/microchip/xc32/v2.50/bin/bin/../../lib/gcc/pic32mx/4.8.3/../../../../pic32mx/lib\libpic32.a(vector6.o)
 .bss           0x00000000        0x0 c:/program files/microchip/xc32/v2.50/bin/bin/../../lib/gcc/pic32mx/4.8.3/../../../../pic32mx/lib\libpic32.a(vector6.o)
 .reginfo       0x00000000       0x18 c:/program files/microchip/xc32/v2.50/bin/bin/../../lib/gcc/pic32mx/4.8.3/../../../../pic32mx/lib\libpic32.a(vector6.o)
 .text          0x00000000        0x0 c:/program files/microchip/xc32/v2.50/bin/bin/../../lib/gcc/pic32mx/4.8.3/../../../../pic32mx/lib\libpic32.a(vector7.o)
 .data          0x00000000        0x0 c:/program files/microchip/xc32/v2.50/bin/bin/../../lib/gcc/pic32mx/4.8.3/../../../../pic32mx/lib\libpic32.a(vector7.o)
 .bss           0x00000000        0x0 c:/program files/microchip/xc32/v2.50/bin/bin/../../lib/gcc/pic32mx/4.8.3/../../../../pic32mx/lib\libpic32.a(vector7.o)
 .reginfo       0x00000000       0x18 c:/program files/microchip/xc32/v2.50/bin/bin/../../lib/gcc/pic32mx/4.8.3/../../../../pic32mx/lib\libpic32.a(vector7.o)
 .text          0x00000000        0x0 c:/program files/microchip/xc32/v2.50/bin/bin/../../lib/gcc/pic32mx/4.8.3/../../../../pic32mx/lib\libpic32.a(vector9.o)
 .data          0x00000000        0x0 c:/program files/microchip/xc32/v2.50/bin/bin/../../lib/gcc/pic32mx/4.8.3/../../../../pic32mx/lib\libpic32.a(vector9.o)
 .bss           0x00000000        0x0 c:/program files/microchip/xc32/v2.50/bin/bin/../../lib/gcc/pic32mx/4.8.3/../../../../pic32mx/lib\libpic32.a(vector9.o)
 .reginfo       0x00000000       0x18 c:/program files/microchip/xc32/v2.50/bin/bin/../../lib/gcc/pic32mx/4.8.3/../../../../pic32mx/lib\libpic32.a(vector9.o)
 .text          0x00000000        0x0 c:/program files/microchip/xc32/v2.50/bin/bin/../../lib/gcc/pic32mx/4.8.3/../../../../pic32mx/lib\libpic32.a(vector10.o)
 .data          0x00000000        0x0 c:/program files/microchip/xc32/v2.50/bin/bin/../../lib/gcc/pic32mx/4.8.3/../../../../pic32mx/lib\libpic32.a(vector10.o)
 .bss           0x00000000        0x0 c:/program files/microchip/xc32/v2.50/bin/bin/../../lib/gcc/pic32mx/4.8.3/../../../../pic32mx/lib\libpic32.a(vector10.o)
 .reginfo       0x00000000       0x18 c:/program files/microchip/xc32/v2.50/bin/bin/../../lib/gcc/pic32mx/4.8.3/../../../../pic32mx/lib\libpic32.a(vector10.o)
 .text          0x00000000        0x0 c:/program files/microchip/xc32/v2.50/bin/bin/../../lib/gcc/pic32mx/4.8.3/../../../../pic32mx/lib\libpic32.a(vector11.o)
 .data          0x00000000        0x0 c:/program files/microchip/xc32/v2.50/bin/bin/../../lib/gcc/pic32mx/4.8.3/../../../../pic32mx/lib\libpic32.a(vector11.o)
 .bss           0x00000000        0x0 c:/program files/microchip/xc32/v2.50/bin/bin/../../lib/gcc/pic32mx/4.8.3/../../../../pic32mx/lib\libpic32.a(vector11.o)
 .reginfo       0x00000000       0x18 c:/program files/microchip/xc32/v2.50/bin/bin/../../lib/gcc/pic32mx/4.8.3/../../../../pic32mx/lib\libpic32.a(vector11.o)
 .text          0x00000000        0x0 c:/program files/microchip/xc32/v2.50/bin/bin/../../lib/gcc/pic32mx/4.8.3/../../../../pic32mx/lib\libpic32.a(vector12.o)
 .data          0x00000000        0x0 c:/program files/microchip/xc32/v2.50/bin/bin/../../lib/gcc/pic32mx/4.8.3/../../../../pic32mx/lib\libpic32.a(vector12.o)
 .bss           0x00000000        0x0 c:/program files/microchip/xc32/v2.50/bin/bin/../../lib/gcc/pic32mx/4.8.3/../../../../pic32mx/lib\libpic32.a(vector12.o)
 .reginfo       0x00000000       0x18 c:/program files/microchip/xc32/v2.50/bin/bin/../../lib/gcc/pic32mx/4.8.3/../../../../pic32mx/lib\libpic32.a(vector12.o)
 .text          0x00000000        0x0 c:/program files/microchip/xc32/v2.50/bin/bin/../../lib/gcc/pic32mx/4.8.3/../../../../pic32mx/lib\libpic32.a(vector13.o)
 .data          0x00000000        0x0 c:/program files/microchip/xc32/v2.50/bin/bin/../../lib/gcc/pic32mx/4.8.3/../../../../pic32mx/lib\libpic32.a(vector13.o)
 .bss           0x00000000        0x0 c:/program files/microchip/xc32/v2.50/bin/bin/../../lib/gcc/pic32mx/4.8.3/../../../../pic32mx/lib\libpic32.a(vector13.o)
 .reginfo       0x00000000       0x18 c:/program files/microchip/xc32/v2.50/bin/bin/../../lib/gcc/pic32mx/4.8.3/../../../../pic32mx/lib\libpic32.a(vector13.o)
 .text          0x00000000        0x0 c:/program files/microchip/xc32/v2.50/bin/bin/../../lib/gcc/pic32mx/4.8.3/../../../../pic32mx/lib\libpic32.a(vector14.o)
 .data          0x00000000        0x0 c:/program files/microchip/xc32/v2.50/bin/bin/../../lib/gcc/pic32mx/4.8.3/../../../../pic32mx/lib\libpic32.a(vector14.o)
 .bss           0x00000000        0x0 c:/program files/microchip/xc32/v2.50/bin/bin/../../lib/gcc/pic32mx/4.8.3/../../../../pic32mx/lib\libpic32.a(vector14.o)
 .reginfo       0x00000000       0x18 c:/program files/microchip/xc32/v2.50/bin/bin/../../lib/gcc/pic32mx/4.8.3/../../../../pic32mx/lib\libpic32.a(vector14.o)
 .text          0x00000000        0x0 c:/program files/microchip/xc32/v2.50/bin/bin/../../lib/gcc/pic32mx/4.8.3/../../../../pic32mx/lib\libpic32.a(vector15.o)
 .data          0x00000000        0x0 c:/program files/microchip/xc32/v2.50/bin/bin/../../lib/gcc/pic32mx/4.8.3/../../../../pic32mx/lib\libpic32.a(vector15.o)
 .bss           0x00000000        0x0 c:/program files/microchip/xc32/v2.50/bin/bin/../../lib/gcc/pic32mx/4.8.3/../../../../pic32mx/lib\libpic32.a(vector15.o)
 .reginfo       0x00000000       0x18 c:/program files/microchip/xc32/v2.50/bin/bin/../../lib/gcc/pic32mx/4.8.3/../../../../pic32mx/lib\libpic32.a(vector15.o)
 .text          0x00000000        0x0 c:/program files/microchip/xc32/v2.50/bin/bin/../../lib/gcc/pic32mx/4.8.3/../../../../pic32mx/lib\libpic32.a(vector16.o)
 .data          0x00000000        0x0 c:/program files/microchip/xc32/v2.50/bin/bin/../../lib/gcc/pic32mx/4.8.3/../../../../pic32mx/lib\libpic32.a(vector16.o)
 .bss           0x00000000        0x0 c:/program files/microchip/xc32/v2.50/bin/bin/../../lib/gcc/pic32mx/4.8.3/../../../../pic32mx/lib\libpic32.a(vector16.o)
 .reginfo       0x00000000       0x18 c:/program files/microchip/xc32/v2.50/bin/bin/../../lib/gcc/pic32mx/4.8.3/../../../../pic32mx/lib\libpic32.a(vector16.o)
 .text          0x00000000        0x0 c:/program files/microchip/xc32/v2.50/bin/bin/../../lib/gcc/pic32mx/4.8.3/../../../../pic32mx/lib\libpic32.a(vector17.o)
 .data          0x00000000        0x0 c:/program files/microchip/xc32/v2.50/bin/bin/../../lib/gcc/pic32mx/4.8.3/../../../../pic32mx/lib\libpic32.a(vector17.o)
 .bss           0x00000000        0x0 c:/program files/microchip/xc32/v2.50/bin/bin/../../lib/gcc/pic32mx/4.8.3/../../../../pic32mx/lib\libpic32.a(vector17.o)
 .reginfo       0x00000000       0x18 c:/program files/microchip/xc32/v2.50/bin/bin/../../lib/gcc/pic32mx/4.8.3/../../../../pic32mx/lib\libpic32.a(vector17.o)
 .text          0x00000000        0x0 c:/program files/microchip/xc32/v2.50/bin/bin/../../lib/gcc/pic32mx/4.8.3/../../../../pic32mx/lib\libpic32.a(vector18.o)
 .data          0x00000000        0x0 c:/program files/microchip/xc32/v2.50/bin/bin/../../lib/gcc/pic32mx/4.8.3/../../../../pic32mx/lib\libpic32.a(vector18.o)
 .bss           0x00000000        0x0 c:/program files/microchip/xc32/v2.50/bin/bin/../../lib/gcc/pic32mx/4.8.3/../../../../pic32mx/lib\libpic32.a(vector18.o)
 .reginfo       0x00000000       0x18 c:/program files/microchip/xc32/v2.50/bin/bin/../../lib/gcc/pic32mx/4.8.3/../../../../pic32mx/lib\libpic32.a(vector18.o)
 .text          0x00000000        0x0 c:/program files/microchip/xc32/v2.50/bin/bin/../../lib/gcc/pic32mx/4.8.3/../../../../pic32mx/lib\libpic32.a(vector19.o)
 .data          0x00000000        0x0 c:/program files/microchip/xc32/v2.50/bin/bin/../../lib/gcc/pic32mx/4.8.3/../../../../pic32mx/lib\libpic32.a(vector19.o)
 .bss           0x00000000        0x0 c:/program files/microchip/xc32/v2.50/bin/bin/../../lib/gcc/pic32mx/4.8.3/../../../../pic32mx/lib\libpic32.a(vector19.o)
 .reginfo       0x00000000       0x18 c:/program files/microchip/xc32/v2.50/bin/bin/../../lib/gcc/pic32mx/4.8.3/../../../../pic32mx/lib\libpic32.a(vector19.o)
 .text          0x00000000        0x0 c:/program files/microchip/xc32/v2.50/bin/bin/../../lib/gcc/pic32mx/4.8.3/../../../../pic32mx/lib\libpic32.a(vector20.o)
 .data          0x00000000        0x0 c:/program files/microchip/xc32/v2.50/bin/bin/../../lib/gcc/pic32mx/4.8.3/../../../../pic32mx/lib\libpic32.a(vector20.o)
 .bss           0x00000000        0x0 c:/program files/microchip/xc32/v2.50/bin/bin/../../lib/gcc/pic32mx/4.8.3/../../../../pic32mx/lib\libpic32.a(vector20.o)
 .reginfo       0x00000000       0x18 c:/program files/microchip/xc32/v2.50/bin/bin/../../lib/gcc/pic32mx/4.8.3/../../../../pic32mx/lib\libpic32.a(vector20.o)
 .text          0x00000000        0x0 c:/program files/microchip/xc32/v2.50/bin/bin/../../lib/gcc/pic32mx/4.8.3/../../../../pic32mx/lib\libpic32.a(vector21.o)
 .data          0x00000000        0x0 c:/program files/microchip/xc32/v2.50/bin/bin/../../lib/gcc/pic32mx/4.8.3/../../../../pic32mx/lib\libpic32.a(vector21.o)
 .bss           0x00000000        0x0 c:/program files/microchip/xc32/v2.50/bin/bin/../../lib/gcc/pic32mx/4.8.3/../../../../pic32mx/lib\libpic32.a(vector21.o)
 .reginfo       0x00000000       0x18 c:/program files/microchip/xc32/v2.50/bin/bin/../../lib/gcc/pic32mx/4.8.3/../../../../pic32mx/lib\libpic32.a(vector21.o)
 .text          0x00000000        0x0 c:/program files/microchip/xc32/v2.50/bin/bin/../../lib/gcc/pic32mx/4.8.3/../../../../pic32mx/lib\libpic32.a(vector22.o)
 .data          0x00000000        0x0 c:/program files/microchip/xc32/v2.50/bin/bin/../../lib/gcc/pic32mx/4.8.3/../../../../pic32mx/lib\libpic32.a(vector22.o)
 .bss           0x00000000        0x0 c:/program files/microchip/xc32/v2.50/bin/bin/../../lib/gcc/pic32mx/4.8.3/../../../../pic32mx/lib\libpic32.a(vector22.o)
 .reginfo       0x00000000       0x18 c:/program files/microchip/xc32/v2.50/bin/bin/../../lib/gcc/pic32mx/4.8.3/../../../../pic32mx/lib\libpic32.a(vector22.o)
 .text          0x00000000        0x0 c:/program files/microchip/xc32/v2.50/bin/bin/../../lib/gcc/pic32mx/4.8.3/../../../../pic32mx/lib\libpic32.a(vector24.o)
 .data          0x00000000        0x0 c:/program files/microchip/xc32/v2.50/bin/bin/../../lib/gcc/pic32mx/4.8.3/../../../../pic32mx/lib\libpic32.a(vector24.o)
 .bss           0x00000000        0x0 c:/program files/microchip/xc32/v2.50/bin/bin/../../lib/gcc/pic32mx/4.8.3/../../../../pic32mx/lib\libpic32.a(vector24.o)
 .reginfo       0x00000000       0x18 c:/program files/microchip/xc32/v2.50/bin/bin/../../lib/gcc/pic32mx/4.8.3/../../../../pic32mx/lib\libpic32.a(vector24.o)
 .text          0x00000000        0x0 c:/program files/microchip/xc32/v2.50/bin/bin/../../lib/gcc/pic32mx/4.8.3/../../../../pic32mx/lib\libpic32.a(vector25.o)
 .data          0x00000000        0x0 c:/program files/microchip/xc32/v2.50/bin/bin/../../lib/gcc/pic32mx/4.8.3/../../../../pic32mx/lib\libpic32.a(vector25.o)
 .bss           0x00000000        0x0 c:/program files/microchip/xc32/v2.50/bin/bin/../../lib/gcc/pic32mx/4.8.3/../../../../pic32mx/lib\libpic32.a(vector25.o)
 .reginfo       0x00000000       0x18 c:/program files/microchip/xc32/v2.50/bin/bin/../../lib/gcc/pic32mx/4.8.3/../../../../pic32mx/lib\libpic32.a(vector25.o)
 .text          0x00000000        0x0 c:/program files/microchip/xc32/v2.50/bin/bin/../../lib/gcc/pic32mx/4.8.3/../../../../pic32mx/lib\libpic32.a(vector26.o)
 .data          0x00000000        0x0 c:/program files/microchip/xc32/v2.50/bin/bin/../../lib/gcc/pic32mx/4.8.3/../../../../pic32mx/lib\libpic32.a(vector26.o)
 .bss           0x00000000        0x0 c:/program files/microchip/xc32/v2.50/bin/bin/../../lib/gcc/pic32mx/4.8.3/../../../../pic32mx/lib\libpic32.a(vector26.o)
 .reginfo       0x00000000       0x18 c:/program files/microchip/xc32/v2.50/bin/bin/../../lib/gcc/pic32mx/4.8.3/../../../../pic32mx/lib\libpic32.a(vector26.o)
 .text          0x00000000        0x0 c:/program files/microchip/xc32/v2.50/bin/bin/../../lib/gcc/pic32mx/4.8.3/../../../../pic32mx/lib\libpic32.a(vector27.o)
 .data          0x00000000        0x0 c:/program files/microchip/xc32/v2.50/bin/bin/../../lib/gcc/pic32mx/4.8.3/../../../../pic32mx/lib\libpic32.a(vector27.o)
 .bss           0x00000000        0x0 c:/program files/microchip/xc32/v2.50/bin/bin/../../lib/gcc/pic32mx/4.8.3/../../../../pic32mx/lib\libpic32.a(vector27.o)
 .reginfo       0x00000000       0x18 c:/program files/microchip/xc32/v2.50/bin/bin/../../lib/gcc/pic32mx/4.8.3/../../../../pic32mx/lib\libpic32.a(vector27.o)
 .text          0x00000000        0x0 c:/program files/microchip/xc32/v2.50/bin/bin/../../lib/gcc/pic32mx/4.8.3/../../../../pic32mx/lib\libpic32.a(vector28.o)
 .data          0x00000000        0x0 c:/program files/microchip/xc32/v2.50/bin/bin/../../lib/gcc/pic32mx/4.8.3/../../../../pic32mx/lib\libpic32.a(vector28.o)
 .bss           0x00000000        0x0 c:/program files/microchip/xc32/v2.50/bin/bin/../../lib/gcc/pic32mx/4.8.3/../../../../pic32mx/lib\libpic32.a(vector28.o)
 .reginfo       0x00000000       0x18 c:/program files/microchip/xc32/v2.50/bin/bin/../../lib/gcc/pic32mx/4.8.3/../../../../pic32mx/lib\libpic32.a(vector28.o)
 .text          0x00000000        0x0 c:/program files/microchip/xc32/v2.50/bin/bin/../../lib/gcc/pic32mx/4.8.3/../../../../pic32mx/lib\libpic32.a(vector29.o)
 .data          0x00000000        0x0 c:/program files/microchip/xc32/v2.50/bin/bin/../../lib/gcc/pic32mx/4.8.3/../../../../pic32mx/lib\libpic32.a(vector29.o)
 .bss           0x00000000        0x0 c:/program files/microchip/xc32/v2.50/bin/bin/../../lib/gcc/pic32mx/4.8.3/../../../../pic32mx/lib\libpic32.a(vector29.o)
 .reginfo       0x00000000       0x18 c:/program files/microchip/xc32/v2.50/bin/bin/../../lib/gcc/pic32mx/4.8.3/../../../../pic32mx/lib\libpic32.a(vector29.o)
 .text          0x00000000        0x0 c:/program files/microchip/xc32/v2.50/bin/bin/../../lib/gcc/pic32mx/4.8.3/../../../../pic32mx/lib\libpic32.a(vector30.o)
 .data          0x00000000        0x0 c:/program files/microchip/xc32/v2.50/bin/bin/../../lib/gcc/pic32mx/4.8.3/../../../../pic32mx/lib\libpic32.a(vector30.o)
 .bss           0x00000000        0x0 c:/program files/microchip/xc32/v2.50/bin/bin/../../lib/gcc/pic32mx/4.8.3/../../../../pic32mx/lib\libpic32.a(vector30.o)
 .reginfo       0x00000000       0x18 c:/program files/microchip/xc32/v2.50/bin/bin/../../lib/gcc/pic32mx/4.8.3/../../../../pic32mx/lib\libpic32.a(vector30.o)
 .text          0x00000000        0x0 c:/program files/microchip/xc32/v2.50/bin/bin/../../lib/gcc/pic32mx/4.8.3/../../../../pic32mx/lib\libpic32.a(vector31.o)
 .data          0x00000000        0x0 c:/program files/microchip/xc32/v2.50/bin/bin/../../lib/gcc/pic32mx/4.8.3/../../../../pic32mx/lib\libpic32.a(vector31.o)
 .bss           0x00000000        0x0 c:/program files/microchip/xc32/v2.50/bin/bin/../../lib/gcc/pic32mx/4.8.3/../../../../pic32mx/lib\libpic32.a(vector31.o)
 .reginfo       0x00000000       0x18 c:/program files/microchip/xc32/v2.50/bin/bin/../../lib/gcc/pic32mx/4.8.3/../../../../pic32mx/lib\libpic32.a(vector31.o)
 .text          0x00000000        0x0 c:/program files/microchip/xc32/v2.50/bin/bin/../../lib/gcc/pic32mx/4.8.3/../../../../pic32mx/lib\libpic32.a(vector33.o)
 .data          0x00000000        0x0 c:/program files/microchip/xc32/v2.50/bin/bin/../../lib/gcc/pic32mx/4.8.3/../../../../pic32mx/lib\libpic32.a(vector33.o)
 .bss           0x00000000        0x0 c:/program files/microchip/xc32/v2.50/bin/bin/../../lib/gcc/pic32mx/4.8.3/../../../../pic32mx/lib\libpic32.a(vector33.o)
 .reginfo       0x00000000       0x18 c:/program files/microchip/xc32/v2.50/bin/bin/../../lib/gcc/pic32mx/4.8.3/../../../../pic32mx/lib\libpic32.a(vector33.o)
 .text          0x00000000        0x0 c:/program files/microchip/xc32/v2.50/bin/bin/../../lib/gcc/pic32mx/4.8.3/../../../../pic32mx/lib\libpic32.a(vector34.o)
 .data          0x00000000        0x0 c:/program files/microchip/xc32/v2.50/bin/bin/../../lib/gcc/pic32mx/4.8.3/../../../../pic32mx/lib\libpic32.a(vector34.o)
 .bss           0x00000000        0x0 c:/program files/microchip/xc32/v2.50/bin/bin/../../lib/gcc/pic32mx/4.8.3/../../../../pic32mx/lib\libpic32.a(vector34.o)
 .reginfo       0x00000000       0x18 c:/program files/microchip/xc32/v2.50/bin/bin/../../lib/gcc/pic32mx/4.8.3/../../../../pic32mx/lib\libpic32.a(vector34.o)
 .text          0x00000000        0x0 c:/program files/microchip/xc32/v2.50/bin/bin/../../lib/gcc/pic32mx/4.8.3/../../../../pic32mx/lib\libpic32.a(vector35.o)
 .data          0x00000000        0x0 c:/program files/microchip/xc32/v2.50/bin/bin/../../lib/gcc/pic32mx/4.8.3/../../../../pic32mx/lib\libpic32.a(vector35.o)
 .bss           0x00000000        0x0 c:/program files/microchip/xc32/v2.50/bin/bin/../../lib/gcc/pic32mx/4.8.3/../../../../pic32mx/lib\libpic32.a(vector35.o)
 .reginfo       0x00000000       0x18 c:/program files/microchip/xc32/v2.50/bin/bin/../../lib/gcc/pic32mx/4.8.3/../../../../pic32mx/lib\libpic32.a(vector35.o)
 .text          0x00000000        0x0 c:/program files/microchip/xc32/v2.50/bin/bin/../../lib/gcc/pic32mx/4.8.3/../../../../pic32mx/lib\libpic32.a(vector36.o)
 .data          0x00000000        0x0 c:/program files/microchip/xc32/v2.50/bin/bin/../../lib/gcc/pic32mx/4.8.3/../../../../pic32mx/lib\libpic32.a(vector36.o)
 .bss           0x00000000        0x0 c:/program files/microchip/xc32/v2.50/bin/bin/../../lib/gcc/pic32mx/4.8.3/../../../../pic32mx/lib\libpic32.a(vector36.o)
 .reginfo       0x00000000       0x18 c:/program files/microchip/xc32/v2.50/bin/bin/../../lib/gcc/pic32mx/4.8.3/../../../../pic32mx/lib\libpic32.a(vector36.o)
 .text          0x00000000        0x0 c:/program files/microchip/xc32/v2.50/bin/bin/../../lib/gcc/pic32mx/4.8.3/../../../../pic32mx/lib\libpic32.a(vector37.o)
 .data          0x00000000        0x0 c:/program files/microchip/xc32/v2.50/bin/bin/../../lib/gcc/pic32mx/4.8.3/../../../../pic32mx/lib\libpic32.a(vector37.o)
 .bss           0x00000000        0x0 c:/program files/microchip/xc32/v2.50/bin/bin/../../lib/gcc/pic32mx/4.8.3/../../../../pic32mx/lib\libpic32.a(vector37.o)
 .reginfo       0x00000000       0x18 c:/program files/microchip/xc32/v2.50/bin/bin/../../lib/gcc/pic32mx/4.8.3/../../../../pic32mx/lib\libpic32.a(vector37.o)
 .text          0x00000000        0x0 c:/program files/microchip/xc32/v2.50/bin/bin/../../lib/gcc/pic32mx/4.8.3/../../../../pic32mx/lib\libpic32.a(vector38.o)
 .data          0x00000000        0x0 c:/program files/microchip/xc32/v2.50/bin/bin/../../lib/gcc/pic32mx/4.8.3/../../../../pic32mx/lib\libpic32.a(vector38.o)
 .bss           0x00000000        0x0 c:/program files/microchip/xc32/v2.50/bin/bin/../../lib/gcc/pic32mx/4.8.3/../../../../pic32mx/lib\libpic32.a(vector38.o)
 .reginfo       0x00000000       0x18 c:/program files/microchip/xc32/v2.50/bin/bin/../../lib/gcc/pic32mx/4.8.3/../../../../pic32mx/lib\libpic32.a(vector38.o)
 .text          0x00000000        0x0 c:/program files/microchip/xc32/v2.50/bin/bin/../../lib/gcc/pic32mx/4.8.3/../../../../pic32mx/lib\libpic32.a(vector39.o)
 .data          0x00000000        0x0 c:/program files/microchip/xc32/v2.50/bin/bin/../../lib/gcc/pic32mx/4.8.3/../../../../pic32mx/lib\libpic32.a(vector39.o)
 .bss           0x00000000        0x0 c:/program files/microchip/xc32/v2.50/bin/bin/../../lib/gcc/pic32mx/4.8.3/../../../../pic32mx/lib\libpic32.a(vector39.o)
 .reginfo       0x00000000       0x18 c:/program files/microchip/xc32/v2.50/bin/bin/../../lib/gcc/pic32mx/4.8.3/../../../../pic32mx/lib\libpic32.a(vector39.o)
 .text          0x00000000        0x0 c:/program files/microchip/xc32/v2.50/bin/bin/../../lib/gcc/pic32mx/4.8.3/../../../../pic32mx/lib\libpic32.a(vector40.o)
 .data          0x00000000        0x0 c:/program files/microchip/xc32/v2.50/bin/bin/../../lib/gcc/pic32mx/4.8.3/../../../../pic32mx/lib\libpic32.a(vector40.o)
 .bss           0x00000000        0x0 c:/program files/microchip/xc32/v2.50/bin/bin/../../lib/gcc/pic32mx/4.8.3/../../../../pic32mx/lib\libpic32.a(vector40.o)
 .reginfo       0x00000000       0x18 c:/program files/microchip/xc32/v2.50/bin/bin/../../lib/gcc/pic32mx/4.8.3/../../../../pic32mx/lib\libpic32.a(vector40.o)
 .text          0x00000000        0x0 c:/program files/microchip/xc32/v2.50/bin/bin/../../lib/gcc/pic32mx/4.8.3/../../../../pic32mx/lib\libpic32.a(vector41.o)
 .data          0x00000000        0x0 c:/program files/microchip/xc32/v2.50/bin/bin/../../lib/gcc/pic32mx/4.8.3/../../../../pic32mx/lib\libpic32.a(vector41.o)
 .bss           0x00000000        0x0 c:/program files/microchip/xc32/v2.50/bin/bin/../../lib/gcc/pic32mx/4.8.3/../../../../pic32mx/lib\libpic32.a(vector41.o)
 .reginfo       0x00000000       0x18 c:/program files/microchip/xc32/v2.50/bin/bin/../../lib/gcc/pic32mx/4.8.3/../../../../pic32mx/lib\libpic32.a(vector41.o)
 .text          0x00000000        0x0 c:/program files/microchip/xc32/v2.50/bin/bin/../../lib/gcc/pic32mx/4.8.3/../../../../pic32mx/lib\libpic32.a(vector42.o)
 .data          0x00000000        0x0 c:/program files/microchip/xc32/v2.50/bin/bin/../../lib/gcc/pic32mx/4.8.3/../../../../pic32mx/lib\libpic32.a(vector42.o)
 .bss           0x00000000        0x0 c:/program files/microchip/xc32/v2.50/bin/bin/../../lib/gcc/pic32mx/4.8.3/../../../../pic32mx/lib\libpic32.a(vector42.o)
 .reginfo       0x00000000       0x18 c:/program files/microchip/xc32/v2.50/bin/bin/../../lib/gcc/pic32mx/4.8.3/../../../../pic32mx/lib\libpic32.a(vector42.o)
 .text          0x00000000        0x0 c:/program files/microchip/xc32/v2.50/bin/bin/../../lib/gcc/pic32mx/4.8.3/../../../../pic32mx/lib\libpic32.a(vector43.o)
 .data          0x00000000        0x0 c:/program files/microchip/xc32/v2.50/bin/bin/../../lib/gcc/pic32mx/4.8.3/../../../../pic32mx/lib\libpic32.a(vector43.o)
 .bss           0x00000000        0x0 c:/program files/microchip/xc32/v2.50/bin/bin/../../lib/gcc/pic32mx/4.8.3/../../../../pic32mx/lib\libpic32.a(vector43.o)
 .reginfo       0x00000000       0x18 c:/program files/microchip/xc32/v2.50/bin/bin/../../lib/gcc/pic32mx/4.8.3/../../../../pic32mx/lib\libpic32.a(vector43.o)
 .text          0x00000000        0x0 c:/program files/microchip/xc32/v2.50/bin/bin/../../lib/gcc/pic32mx/4.8.3/../../../../pic32mx/lib\libpic32.a(vector44.o)
 .data          0x00000000        0x0 c:/program files/microchip/xc32/v2.50/bin/bin/../../lib/gcc/pic32mx/4.8.3/../../../../pic32mx/lib\libpic32.a(vector44.o)
 .bss           0x00000000        0x0 c:/program files/microchip/xc32/v2.50/bin/bin/../../lib/gcc/pic32mx/4.8.3/../../../../pic32mx/lib\libpic32.a(vector44.o)
 .reginfo       0x00000000       0x18 c:/program files/microchip/xc32/v2.50/bin/bin/../../lib/gcc/pic32mx/4.8.3/../../../../pic32mx/lib\libpic32.a(vector44.o)
 .text          0x00000000        0x0 c:/program files/microchip/xc32/v2.50/bin/bin/../../lib/gcc/pic32mx/4.8.3/../../../../pic32mx/lib\libpic32.a(vector45.o)
 .data          0x00000000        0x0 c:/program files/microchip/xc32/v2.50/bin/bin/../../lib/gcc/pic32mx/4.8.3/../../../../pic32mx/lib\libpic32.a(vector45.o)
 .bss           0x00000000        0x0 c:/program files/microchip/xc32/v2.50/bin/bin/../../lib/gcc/pic32mx/4.8.3/../../../../pic32mx/lib\libpic32.a(vector45.o)
 .reginfo       0x00000000       0x18 c:/program files/microchip/xc32/v2.50/bin/bin/../../lib/gcc/pic32mx/4.8.3/../../../../pic32mx/lib\libpic32.a(vector45.o)
 .text          0x00000000        0x0 c:/program files/microchip/xc32/v2.50/bin/bin/../../lib/gcc/pic32mx/4.8.3/../../../../pic32mx/lib\libpic32.a(vector46.o)
 .data          0x00000000        0x0 c:/program files/microchip/xc32/v2.50/bin/bin/../../lib/gcc/pic32mx/4.8.3/../../../../pic32mx/lib\libpic32.a(vector46.o)
 .bss           0x00000000        0x0 c:/program files/microchip/xc32/v2.50/bin/bin/../../lib/gcc/pic32mx/4.8.3/../../../../pic32mx/lib\libpic32.a(vector46.o)
 .reginfo       0x00000000       0x18 c:/program files/microchip/xc32/v2.50/bin/bin/../../lib/gcc/pic32mx/4.8.3/../../../../pic32mx/lib\libpic32.a(vector46.o)
 .text          0x00000000        0x0 c:/program files/microchip/xc32/v2.50/bin/bin/../../lib/gcc/pic32mx/4.8.3/../../../../pic32mx/lib\libpic32.a(vector47.o)
 .data          0x00000000        0x0 c:/program files/microchip/xc32/v2.50/bin/bin/../../lib/gcc/pic32mx/4.8.3/../../../../pic32mx/lib\libpic32.a(vector47.o)
 .bss           0x00000000        0x0 c:/program files/microchip/xc32/v2.50/bin/bin/../../lib/gcc/pic32mx/4.8.3/../../../../pic32mx/lib\libpic32.a(vector47.o)
 .reginfo       0x00000000       0x18 c:/program files/microchip/xc32/v2.50/bin/bin/../../lib/gcc/pic32mx/4.8.3/../../../../pic32mx/lib\libpic32.a(vector47.o)
 .text          0x00000000        0x0 c:/program files/microchip/xc32/v2.50/bin/bin/../../lib/gcc/pic32mx/4.8.3/../../../../pic32mx/lib\libpic32.a(vector49.o)
 .data          0x00000000        0x0 c:/program files/microchip/xc32/v2.50/bin/bin/../../lib/gcc/pic32mx/4.8.3/../../../../pic32mx/lib\libpic32.a(vector49.o)
 .bss           0x00000000        0x0 c:/program files/microchip/xc32/v2.50/bin/bin/../../lib/gcc/pic32mx/4.8.3/../../../../pic32mx/lib\libpic32.a(vector49.o)
 .reginfo       0x00000000       0x18 c:/program files/microchip/xc32/v2.50/bin/bin/../../lib/gcc/pic32mx/4.8.3/../../../../pic32mx/lib\libpic32.a(vector49.o)
 .text          0x00000000        0x0 c:/program files/microchip/xc32/v2.50/bin/bin/../../lib/gcc/pic32mx/4.8.3/../../../../pic32mx/lib\libpic32.a(vector50.o)
 .data          0x00000000        0x0 c:/program files/microchip/xc32/v2.50/bin/bin/../../lib/gcc/pic32mx/4.8.3/../../../../pic32mx/lib\libpic32.a(vector50.o)
 .bss           0x00000000        0x0 c:/program files/microchip/xc32/v2.50/bin/bin/../../lib/gcc/pic32mx/4.8.3/../../../../pic32mx/lib\libpic32.a(vector50.o)
 .reginfo       0x00000000       0x18 c:/program files/microchip/xc32/v2.50/bin/bin/../../lib/gcc/pic32mx/4.8.3/../../../../pic32mx/lib\libpic32.a(vector50.o)
 .text          0x00000000        0x0 c:/program files/microchip/xc32/v2.50/bin/bin/../../lib/gcc/pic32mx/4.8.3/../../../../pic32mx/lib\libpic32.a(vector51.o)
 .data          0x00000000        0x0 c:/program files/microchip/xc32/v2.50/bin/bin/../../lib/gcc/pic32mx/4.8.3/../../../../pic32mx/lib\libpic32.a(vector51.o)
 .bss           0x00000000        0x0 c:/program files/microchip/xc32/v2.50/bin/bin/../../lib/gcc/pic32mx/4.8.3/../../../../pic32mx/lib\libpic32.a(vector51.o)
 .reginfo       0x00000000       0x18 c:/program files/microchip/xc32/v2.50/bin/bin/../../lib/gcc/pic32mx/4.8.3/../../../../pic32mx/lib\libpic32.a(vector51.o)
 .text          0x00000000        0x0 c:/program files/microchip/xc32/v2.50/bin/bin/../../lib/gcc/pic32mx/4.8.3/../../../../pic32mx/lib\libpic32.a(defaultinterrupt.o)
 .data          0x00000000        0x0 c:/program files/microchip/xc32/v2.50/bin/bin/../../lib/gcc/pic32mx/4.8.3/../../../../pic32mx/lib\libpic32.a(defaultinterrupt.o)
 .bss           0x00000000        0x0 c:/program files/microchip/xc32/v2.50/bin/bin/../../lib/gcc/pic32mx/4.8.3/../../../../pic32mx/lib\libpic32.a(defaultinterrupt.o)
 .reginfo       0x00000000       0x18 c:/program files/microchip/xc32/v2.50/bin/bin/../../lib/gcc/pic32mx/4.8.3/../../../../pic32mx/lib\libpic32.a(defaultinterrupt.o)
 .text          0x00000000        0x0 c:/program files/microchip/xc32/v2.50/bin/bin/../../lib/gcc/pic32mx/4.8.3/../../../../pic32mx/lib\libc.a(calloc.o)
 .data          0x00000000        0x0 c:/program files/microchip/xc32/v2.50/bin/bin/../../lib/gcc/pic32mx/4.8.3/../../../../pic32mx/lib\libc.a(calloc.o)
 .bss           0x00000000        0x0 c:/program files/microchip/xc32/v2.50/bin/bin/../../lib/gcc/pic32mx/4.8.3/../../../../pic32mx/lib\libc.a(calloc.o)
 .reginfo       0x00000000       0x18 c:/program files/microchip/xc32/v2.50/bin/bin/../../lib/gcc/pic32mx/4.8.3/../../../../pic32mx/lib\libc.a(calloc.o)
 .text          0x00000000        0x0 c:/program files/microchip/xc32/v2.50/bin/bin/../../lib/gcc/pic32mx/4.8.3/../../../../pic32mx/lib\libc.a(ctime.o)
 .data          0x00000000        0x0 c:/program files/microchip/xc32/v2.50/bin/bin/../../lib/gcc/pic32mx/4.8.3/../../../../pic32mx/lib\libc.a(ctime.o)
 .bss           0x00000000       0x48 c:/program files/microchip/xc32/v2.50/bin/bin/../../lib/gcc/pic32mx/4.8.3/../../../../pic32mx/lib\libc.a(ctime.o)
 .reginfo       0x00000000       0x18 c:/program files/microchip/xc32/v2.50/bin/bin/../../lib/gcc/pic32mx/4.8.3/../../../../pic32mx/lib\libc.a(ctime.o)
 .text.dylen.part.0
                0x00000000       0x68 c:/program files/microchip/xc32/v2.50/bin/bin/../../lib/gcc/pic32mx/4.8.3/../../../../pic32mx/lib\libc.a(ctime.o)
 .text.gmtime   0x00000000      0x180 c:/program files/microchip/xc32/v2.50/bin/bin/../../lib/gcc/pic32mx/4.8.3/../../../../pic32mx/lib\libc.a(ctime.o)
 .text.localtime
                0x00000000       0x3c c:/program files/microchip/xc32/v2.50/bin/bin/../../lib/gcc/pic32mx/4.8.3/../../../../pic32mx/lib\libc.a(ctime.o)
 .rodata        0x00000000       0x4c c:/program files/microchip/xc32/v2.50/bin/bin/../../lib/gcc/pic32mx/4.8.3/../../../../pic32mx/lib\libc.a(ctime.o)
 .text.asctime  0x00000000      0x2e4 c:/program files/microchip/xc32/v2.50/bin/bin/../../lib/gcc/pic32mx/4.8.3/../../../../pic32mx/lib\libc.a(ctime.o)
 .text.ctime    0x00000000       0x44 c:/program files/microchip/xc32/v2.50/bin/bin/../../lib/gcc/pic32mx/4.8.3/../../../../pic32mx/lib\libc.a(ctime.o)
 .text          0x00000000        0x0 c:/program files/microchip/xc32/v2.50/bin/bin/../../lib/gcc/pic32mx/4.8.3/../../../../pic32mx/lib\libc.a(ctype.o)
 .data          0x00000000        0x0 c:/program files/microchip/xc32/v2.50/bin/bin/../../lib/gcc/pic32mx/4.8.3/../../../../pic32mx/lib\libc.a(ctype.o)
 .bss           0x00000000        0x0 c:/program files/microchip/xc32/v2.50/bin/bin/../../lib/gcc/pic32mx/4.8.3/../../../../pic32mx/lib\libc.a(ctype.o)
 .reginfo       0x00000000       0x18 c:/program files/microchip/xc32/v2.50/bin/bin/../../lib/gcc/pic32mx/4.8.3/../../../../pic32mx/lib\libc.a(ctype.o)
 .text          0x00000000        0x0 c:/program files/microchip/xc32/v2.50/bin/bin/../../lib/gcc/pic32mx/4.8.3/../../../../pic32mx/lib\libc.a(ctypef.o)
 .data          0x00000000        0x0 c:/program files/microchip/xc32/v2.50/bin/bin/../../lib/gcc/pic32mx/4.8.3/../../../../pic32mx/lib\libc.a(ctypef.o)
 .bss           0x00000000        0x0 c:/program files/microchip/xc32/v2.50/bin/bin/../../lib/gcc/pic32mx/4.8.3/../../../../pic32mx/lib\libc.a(ctypef.o)
 .reginfo       0x00000000       0x18 c:/program files/microchip/xc32/v2.50/bin/bin/../../lib/gcc/pic32mx/4.8.3/../../../../pic32mx/lib\libc.a(ctypef.o)
 .text.tolower  0x00000000       0x24 c:/program files/microchip/xc32/v2.50/bin/bin/../../lib/gcc/pic32mx/4.8.3/../../../../pic32mx/lib\libc.a(ctypef.o)
 .text.isalnum  0x00000000       0x18 c:/program files/microchip/xc32/v2.50/bin/bin/../../lib/gcc/pic32mx/4.8.3/../../../../pic32mx/lib\libc.a(ctypef.o)
 .text.isalpha  0x00000000       0x18 c:/program files/microchip/xc32/v2.50/bin/bin/../../lib/gcc/pic32mx/4.8.3/../../../../pic32mx/lib\libc.a(ctypef.o)
 .text.isascii  0x00000000        0x8 c:/program files/microchip/xc32/v2.50/bin/bin/../../lib/gcc/pic32mx/4.8.3/../../../../pic32mx/lib\libc.a(ctypef.o)
 .text.iscntrl  0x00000000       0x18 c:/program files/microchip/xc32/v2.50/bin/bin/../../lib/gcc/pic32mx/4.8.3/../../../../pic32mx/lib\libc.a(ctypef.o)
 .text.isdigit  0x00000000       0x18 c:/program files/microchip/xc32/v2.50/bin/bin/../../lib/gcc/pic32mx/4.8.3/../../../../pic32mx/lib\libc.a(ctypef.o)
 .text.isgraph  0x00000000       0x18 c:/program files/microchip/xc32/v2.50/bin/bin/../../lib/gcc/pic32mx/4.8.3/../../../../pic32mx/lib\libc.a(ctypef.o)
 .text.islower  0x00000000       0x18 c:/program files/microchip/xc32/v2.50/bin/bin/../../lib/gcc/pic32mx/4.8.3/../../../../pic32mx/lib\libc.a(ctypef.o)
 .text.isprint  0x00000000       0x18 c:/program files/microchip/xc32/v2.50/bin/bin/../../lib/gcc/pic32mx/4.8.3/../../../../pic32mx/lib\libc.a(ctypef.o)
 .text.ispunct  0x00000000       0x18 c:/program files/microchip/xc32/v2.50/bin/bin/../../lib/gcc/pic32mx/4.8.3/../../../../pic32mx/lib\libc.a(ctypef.o)
 .text.isspace  0x00000000       0x18 c:/program files/microchip/xc32/v2.50/bin/bin/../../lib/gcc/pic32mx/4.8.3/../../../../pic32mx/lib\libc.a(ctypef.o)
 .text.isupper  0x00000000       0x18 c:/program files/microchip/xc32/v2.50/bin/bin/../../lib/gcc/pic32mx/4.8.3/../../../../pic32mx/lib\libc.a(ctypef.o)
 .text.isxdigit
                0x00000000       0x18 c:/program files/microchip/xc32/v2.50/bin/bin/../../lib/gcc/pic32mx/4.8.3/../../../../pic32mx/lib\libc.a(ctypef.o)
 .text.toascii  0x00000000        0x8 c:/program files/microchip/xc32/v2.50/bin/bin/../../lib/gcc/pic32mx/4.8.3/../../../../pic32mx/lib\libc.a(ctypef.o)
 .text._tolower
                0x00000000        0x8 c:/program files/microchip/xc32/v2.50/bin/bin/../../lib/gcc/pic32mx/4.8.3/../../../../pic32mx/lib\libc.a(ctypef.o)
 .text._toupper
                0x00000000        0x8 c:/program files/microchip/xc32/v2.50/bin/bin/../../lib/gcc/pic32mx/4.8.3/../../../../pic32mx/lib\libc.a(ctypef.o)
 .text          0x00000000        0x0 c:/program files/microchip/xc32/v2.50/bin/bin/../../lib/gcc/pic32mx/4.8.3/../../../../pic32mx/lib\libc.a(malloc.o)
 .data          0x00000000        0x0 c:/program files/microchip/xc32/v2.50/bin/bin/../../lib/gcc/pic32mx/4.8.3/../../../../pic32mx/lib\libc.a(malloc.o)
 .reginfo       0x00000000       0x18 c:/program files/microchip/xc32/v2.50/bin/bin/../../lib/gcc/pic32mx/4.8.3/../../../../pic32mx/lib\libc.a(malloc.o)
 .text.realloc  0x00000000      0x148 c:/program files/microchip/xc32/v2.50/bin/bin/../../lib/gcc/pic32mx/4.8.3/../../../../pic32mx/lib\libc.a(malloc.o)
 .text          0x00000000        0x0 c:/program files/microchip/xc32/v2.50/bin/bin/../../lib/gcc/pic32mx/4.8.3/../../../../pic32mx/lib\libc.a(memmove.o)
 .data          0x00000000        0x0 c:/program files/microchip/xc32/v2.50/bin/bin/../../lib/gcc/pic32mx/4.8.3/../../../../pic32mx/lib\libc.a(memmove.o)
 .bss           0x00000000        0x0 c:/program files/microchip/xc32/v2.50/bin/bin/../../lib/gcc/pic32mx/4.8.3/../../../../pic32mx/lib\libc.a(memmove.o)
 .reginfo       0x00000000       0x18 c:/program files/microchip/xc32/v2.50/bin/bin/../../lib/gcc/pic32mx/4.8.3/../../../../pic32mx/lib\libc.a(memmove.o)
 .text.memmove  0x00000000       0x64 c:/program files/microchip/xc32/v2.50/bin/bin/../../lib/gcc/pic32mx/4.8.3/../../../../pic32mx/lib\libc.a(memmove.o)
 .text          0x00000000        0x0 c:/program files/microchip/xc32/v2.50/bin/bin/../../lib/gcc/pic32mx/4.8.3/../../../../pic32mx/lib\libc.a(rand.o)
 .data          0x00000000        0x0 c:/program files/microchip/xc32/v2.50/bin/bin/../../lib/gcc/pic32mx/4.8.3/../../../../pic32mx/lib\libc.a(rand.o)
 .reginfo       0x00000000       0x18 c:/program files/microchip/xc32/v2.50/bin/bin/../../lib/gcc/pic32mx/4.8.3/../../../../pic32mx/lib\libc.a(rand.o)
 .text          0x00000000        0x0 c:/program files/microchip/xc32/v2.50/bin/bin/../../lib/gcc/pic32mx/4.8.3/../../../../pic32mx/lib\libc.a(strncmp.o)
 .data          0x00000000        0x0 c:/program files/microchip/xc32/v2.50/bin/bin/../../lib/gcc/pic32mx/4.8.3/../../../../pic32mx/lib\libc.a(strncmp.o)
 .bss           0x00000000        0x0 c:/program files/microchip/xc32/v2.50/bin/bin/../../lib/gcc/pic32mx/4.8.3/../../../../pic32mx/lib\libc.a(strncmp.o)
 .reginfo       0x00000000       0x18 c:/program files/microchip/xc32/v2.50/bin/bin/../../lib/gcc/pic32mx/4.8.3/../../../../pic32mx/lib\libc.a(strncmp.o)
 .text.strncmp  0x00000000       0x70 c:/program files/microchip/xc32/v2.50/bin/bin/../../lib/gcc/pic32mx/4.8.3/../../../../pic32mx/lib\libc.a(strncmp.o)
 .text          0x00000000        0x0 c:/program files/microchip/xc32/v2.50/bin/bin/../../lib/gcc/pic32mx/4.8.3/../../../../pic32mx/lib\libc.a(strncpy.o)
 .data          0x00000000        0x0 c:/program files/microchip/xc32/v2.50/bin/bin/../../lib/gcc/pic32mx/4.8.3/../../../../pic32mx/lib\libc.a(strncpy.o)
 .bss           0x00000000        0x0 c:/program files/microchip/xc32/v2.50/bin/bin/../../lib/gcc/pic32mx/4.8.3/../../../../pic32mx/lib\libc.a(strncpy.o)
 .reginfo       0x00000000       0x18 c:/program files/microchip/xc32/v2.50/bin/bin/../../lib/gcc/pic32mx/4.8.3/../../../../pic32mx/lib\libc.a(strncpy.o)
 .text          0x00000000        0x0 c:/program files/microchip/xc32/v2.50/bin/bin/../../lib/gcc/pic32mx/4.8.3/../../../../pic32mx/lib\libc.a(strtol.o)
 .data          0x00000000        0x0 c:/program files/microchip/xc32/v2.50/bin/bin/../../lib/gcc/pic32mx/4.8.3/../../../../pic32mx/lib\libc.a(strtol.o)
 .bss           0x00000000        0x0 c:/program files/microchip/xc32/v2.50/bin/bin/../../lib/gcc/pic32mx/4.8.3/../../../../pic32mx/lib\libc.a(strtol.o)
 .reginfo       0x00000000       0x18 c:/program files/microchip/xc32/v2.50/bin/bin/../../lib/gcc/pic32mx/4.8.3/../../../../pic32mx/lib\libc.a(strtol.o)
 .text.strtoul  0x00000000      0x1d4 c:/program files/microchip/xc32/v2.50/bin/bin/../../lib/gcc/pic32mx/4.8.3/../../../../pic32mx/lib\libc.a(strtol.o)
 .text.strtol   0x00000000      0x19c c:/program files/microchip/xc32/v2.50/bin/bin/../../lib/gcc/pic32mx/4.8.3/../../../../pic32mx/lib\libc.a(strtol.o)
 .text          0x00000000        0x0 c:/program files/microchip/xc32/v2.50/bin/bin/../../lib/gcc/pic32mx/4.8.3/../../../../pic32mx/lib\libc.a(time.o)
 .data          0x00000000        0x0 c:/program files/microchip/xc32/v2.50/bin/bin/../../lib/gcc/pic32mx/4.8.3/../../../../pic32mx/lib\libc.a(time.o)
 .bss           0x00000000        0x0 c:/program files/microchip/xc32/v2.50/bin/bin/../../lib/gcc/pic32mx/4.8.3/../../../../pic32mx/lib\libc.a(time.o)
 .reginfo       0x00000000       0x18 c:/program files/microchip/xc32/v2.50/bin/bin/../../lib/gcc/pic32mx/4.8.3/../../../../pic32mx/lib\libc.a(time.o)
 .text.time     0x00000000        0x8 c:/program files/microchip/xc32/v2.50/bin/bin/../../lib/gcc/pic32mx/4.8.3/../../../../pic32mx/lib\libc.a(time.o)
 .gnu.warning.time
                0x00000000        0x0 c:/program files/microchip/xc32/v2.50/bin/bin/../../lib/gcc/pic32mx/4.8.3/../../../../pic32mx/lib\libc.a(time.o)
 .text          0x00000000        0x0 c:/program files/microchip/xc32/v2.50/bin/bin/../../lib/gcc/pic32mx/4.8.3/../../../../pic32mx/lib\libc.a(snprintf_cdnopsuxX.eo)
 .data          0x00000000        0x0 c:/program files/microchip/xc32/v2.50/bin/bin/../../lib/gcc/pic32mx/4.8.3/../../../../pic32mx/lib\libc.a(snprintf_cdnopsuxX.eo)
 .bss           0x00000000        0x0 c:/program files/microchip/xc32/v2.50/bin/bin/../../lib/gcc/pic32mx/4.8.3/../../../../pic32mx/lib\libc.a(snprintf_cdnopsuxX.eo)
 .reginfo       0x00000000       0x18 c:/program files/microchip/xc32/v2.50/bin/bin/../../lib/gcc/pic32mx/4.8.3/../../../../pic32mx/lib\libc.a(snprintf_cdnopsuxX.eo)
 .text          0x00000000        0x0 c:/program files/microchip/xc32/v2.50/bin/bin/../../lib/gcc/pic32mx/4.8.3/../../../../pic32mx/lib\libc.a(sprintf_cdnopuxX.eo)
 .data          0x00000000        0x0 c:/program files/microchip/xc32/v2.50/bin/bin/../../lib/gcc/pic32mx/4.8.3/../../../../pic32mx/lib\libc.a(sprintf_cdnopuxX.eo)
 .bss           0x00000000        0x0 c:/program files/microchip/xc32/v2.50/bin/bin/../../lib/gcc/pic32mx/4.8.3/../../../../pic32mx/lib\libc.a(sprintf_cdnopuxX.eo)
 .reginfo       0x00000000       0x18 c:/program files/microchip/xc32/v2.50/bin/bin/../../lib/gcc/pic32mx/4.8.3/../../../../pic32mx/lib\libc.a(sprintf_cdnopuxX.eo)
 .text._sprintf_cdnopuxX
                0x00000000       0x68 c:/program files/microchip/xc32/v2.50/bin/bin/../../lib/gcc/pic32mx/4.8.3/../../../../pic32mx/lib\libc.a(sprintf_cdnopuxX.eo)
 .text          0x00000000        0x0 c:/program files/microchip/xc32/v2.50/bin/bin/../../lib/gcc/pic32mx/4.8.3/../../../../pic32mx/lib\libc.a(vsnprintf_cdnopsuxX.eo)
 .data          0x00000000        0x0 c:/program files/microchip/xc32/v2.50/bin/bin/../../lib/gcc/pic32mx/4.8.3/../../../../pic32mx/lib\libc.a(vsnprintf_cdnopsuxX.eo)
 .bss           0x00000000        0x0 c:/program files/microchip/xc32/v2.50/bin/bin/../../lib/gcc/pic32mx/4.8.3/../../../../pic32mx/lib\libc.a(vsnprintf_cdnopsuxX.eo)
 .reginfo       0x00000000       0x18 c:/program files/microchip/xc32/v2.50/bin/bin/../../lib/gcc/pic32mx/4.8.3/../../../../pic32mx/lib\libc.a(vsnprintf_cdnopsuxX.eo)
 .text          0x00000000        0x0 c:/program files/microchip/xc32/v2.50/bin/bin/../../lib/gcc/pic32mx/4.8.3/../../../../pic32mx/lib\libc.a(errno.o)
 .data          0x00000000        0x0 c:/program files/microchip/xc32/v2.50/bin/bin/../../lib/gcc/pic32mx/4.8.3/../../../../pic32mx/lib\libc.a(errno.o)
 .bss           0x00000000        0x0 c:/program files/microchip/xc32/v2.50/bin/bin/../../lib/gcc/pic32mx/4.8.3/../../../../pic32mx/lib\libc.a(errno.o)
 .reginfo       0x00000000       0x18 c:/program files/microchip/xc32/v2.50/bin/bin/../../lib/gcc/pic32mx/4.8.3/../../../../pic32mx/lib\libc.a(errno.o)
 .text          0x00000000        0x0 c:/program files/microchip/xc32/v2.50/bin/bin/../../lib/gcc/pic32mx/4.8.3/../../../../pic32mx/lib\libc.a(doprnt_cdnopsuxX.eo)
 .data          0x00000000        0x0 c:/program files/microchip/xc32/v2.50/bin/bin/../../lib/gcc/pic32mx/4.8.3/../../../../pic32mx/lib\libc.a(doprnt_cdnopsuxX.eo)
 .bss           0x00000000        0x0 c:/program files/microchip/xc32/v2.50/bin/bin/../../lib/gcc/pic32mx/4.8.3/../../../../pic32mx/lib\libc.a(doprnt_cdnopsuxX.eo)
 .reginfo       0x00000000       0x18 c:/program files/microchip/xc32/v2.50/bin/bin/../../lib/gcc/pic32mx/4.8.3/../../../../pic32mx/lib\libc.a(doprnt_cdnopsuxX.eo)
 .text          0x00000000        0x0 c:/program files/microchip/xc32/v2.50/bin/bin/../../lib/gcc/pic32mx/4.8.3/../../../../pic32mx/lib\libc.a(_fputc_simple.o)
 .data          0x00000000        0x0 c:/program files/microchip/xc32/v2.50/bin/bin/../../lib/gcc/pic32mx/4.8.3/../../../../pic32mx/lib\libc.a(_fputc_simple.o)
 .bss           0x00000000        0x0 c:/program files/microchip/xc32/v2.50/bin/bin/../../lib/gcc/pic32mx/4.8.3/../../../../pic32mx/lib\libc.a(_fputc_simple.o)
 .reginfo       0x00000000       0x18 c:/program files/microchip/xc32/v2.50/bin/bin/../../lib/gcc/pic32mx/4.8.3/../../../../pic32mx/lib\libc.a(_fputc_simple.o)
 .text          0x00000000        0x0 c:/program files/microchip/xc32/v2.50/bin/bin/../../lib/gcc/pic32mx/4.8.3/../../../../pic32mx/lib\libc.a(_iob.o)
 .data          0x00000000       0xa4 c:/program files/microchip/xc32/v2.50/bin/bin/../../lib/gcc/pic32mx/4.8.3/../../../../pic32mx/lib\libc.a(_iob.o)
 .reginfo       0x00000000       0x18 c:/program files/microchip/xc32/v2.50/bin/bin/../../lib/gcc/pic32mx/4.8.3/../../../../pic32mx/lib\libc.a(_iob.o)
 .text          0x00000000        0x0 c:/program files/microchip/xc32/v2.50/bin/bin/../../lib/gcc/pic32mx/4.8.3/../../../../pic32mx/lib\libc.a(_flsbuf_simple.o)
 .data          0x00000000        0x0 c:/program files/microchip/xc32/v2.50/bin/bin/../../lib/gcc/pic32mx/4.8.3/../../../../pic32mx/lib\libc.a(_flsbuf_simple.o)
 .bss           0x00000000        0x0 c:/program files/microchip/xc32/v2.50/bin/bin/../../lib/gcc/pic32mx/4.8.3/../../../../pic32mx/lib\libc.a(_flsbuf_simple.o)
 .reginfo       0x00000000       0x18 c:/program files/microchip/xc32/v2.50/bin/bin/../../lib/gcc/pic32mx/4.8.3/../../../../pic32mx/lib\libc.a(_flsbuf_simple.o)
 .data          0x00000000        0x0 c:/program files/microchip/xc32/v2.50/bin/bin/../../lib/gcc/pic32mx/4.8.3\libgcc.a(_umoddi3.o)
 .bss           0x00000000        0x0 c:/program files/microchip/xc32/v2.50/bin/bin/../../lib/gcc/pic32mx/4.8.3\libgcc.a(_umoddi3.o)
 .reginfo       0x00000000       0x18 c:/program files/microchip/xc32/v2.50/bin/bin/../../lib/gcc/pic32mx/4.8.3\libgcc.a(_umoddi3.o)
 .text          0x00000000        0x0 c:/program files/microchip/xc32/v2.50/bin/bin/../../lib/gcc/pic32mx/4.8.3/../../../../pic32mx/lib\libpic32.a(sbrk.o)
 .data          0x00000000        0x0 c:/program files/microchip/xc32/v2.50/bin/bin/../../lib/gcc/pic32mx/4.8.3/../../../../pic32mx/lib\libpic32.a(sbrk.o)
 .reginfo       0x00000000       0x18 c:/program files/microchip/xc32/v2.50/bin/bin/../../lib/gcc/pic32mx/4.8.3/../../../../pic32mx/lib\libpic32.a(sbrk.o)
 .text.getpagesize
                0x00000000        0x8 c:/program files/microchip/xc32/v2.50/bin/bin/../../lib/gcc/pic32mx/4.8.3/../../../../pic32mx/lib\libpic32.a(sbrk.o)
 .text          0x00000000        0x0 c:/program files/microchip/xc32/v2.50/bin/bin/../../lib/gcc/pic32mx/4.8.3/../../../../pic32mx/lib\libpic32.a(write.o)
 .data          0x00000000        0x0 c:/program files/microchip/xc32/v2.50/bin/bin/../../lib/gcc/pic32mx/4.8.3/../../../../pic32mx/lib\libpic32.a(write.o)
 .bss           0x00000000        0x0 c:/program files/microchip/xc32/v2.50/bin/bin/../../lib/gcc/pic32mx/4.8.3/../../../../pic32mx/lib\libpic32.a(write.o)
 .reginfo       0x00000000       0x18 c:/program files/microchip/xc32/v2.50/bin/bin/../../lib/gcc/pic32mx/4.8.3/../../../../pic32mx/lib\libpic32.a(write.o)

Memory Configuration

Name             Origin             Length             Attributes
kseg0_program_mem 0x9d000000         0x00080000         xr
kseg0_boot_mem   0x9fc00490         0x00000970
exception_mem    0x9fc01000         0x00001000
kseg1_boot_mem   0xbfc00000         0x00000490
debug_exec_mem   0xbfc02000         0x00000ff0
config3          0xbfc02ff0         0x00000004
config2          0xbfc02ff4         0x00000004
config1          0xbfc02ff8         0x00000004
config0          0xbfc02ffc         0x00000004
kseg1_data_mem   0xa0000000         0x00020000         w !x
sfrs             0xbf800000         0x00100000
configsfrs       0xbfc02ff0         0x00000010
*default*        0x00000000         0xffffffff

Linker script and memory map

LOAD c:/program files/microchip/xc32/v2.50/bin/bin/../../lib/gcc/pic32mx/4.8.3/../../../../pic32mx/lib\debug-exception-return.o
LOAD build/default/production/_ext/60165520/plib_clk.o
LOAD build/default/production/_ext/1865200349/plib_evic.o
LOAD build/default/production/_ext/1865254177/plib_gpio.o
LOAD build/default/production/_ext/298189674/plib_spi4_master.o
LOAD build/default/production/_ext/163028504/xc32_monitor.o
LOAD build/default/production/_ext/1171490990/initialization.o
LOAD build/default/production/_ext/1171490990/interrupts.o
LOAD build/default/production/_ext/1171490990/exceptions.o
LOAD build/default/production/_ext/1360937237/main.o
LOAD build/default/production/_ext/60181895/plib_tmr2.o
LOAD build/default/production/_ext/732082881/drv_ethmac.o
LOAD build/default/production/_ext/732082881/drv_ethmac_lib.o
LOAD build/default/production/_ext/732082881/drv_eth_pic32_lib.o
LOAD build/default/production/_ext/1033058136/tcp.o
LOAD build/default/production/_ext/1033058136/arp.o
LOAD build/default/production/_ext/101884895/sys_time.o
LOAD build/default/production/_ext/1249264884/plib_coretimer.o
LOAD build/default/production/_ext/298189674/plib_spi1_master.o
LOAD build/default/production/_ext/1033058136/ipv4.o
LOAD build/default/production/_ext/1033058136/dhcps.o
LOAD build/default/production/_ext/1033058136/tcpip_heap_alloc.o
LOAD build/default/production/_ext/1033058136/tcpip_heap_internal.o
LOAD build/default/production/_ext/1033058136/dhcp.o
LOAD build/default/production/_ext/1033058136/dns.o
LOAD build/default/production/_ext/1033058136/helpers.o
LOAD build/default/production/_ext/1033058136/hash_fnv.o
LOAD build/default/production/_ext/1033058136/oahash.o
LOAD build/default/production/_ext/1033058136/tcpip_helpers.o
LOAD build/default/production/_ext/1033058136/tcpip_helper_c32.o
LOAD build/default/production/_ext/1033058136/tcpip_manager.o
LOAD build/default/production/_ext/1033058136/tcpip_notify.o
LOAD build/default/production/_ext/1033058136/tcpip_packet.o
LOAD build/default/production/_ext/753841488/sys_time_h2_adapter.o
LOAD build/default/production/_ext/753841488/sys_random_h2_adapter.o
LOAD build/default/production/_ext/1881668453/sys_int.o
LOAD build/default/production/_ext/1529399856/osal_freertos.o
LOAD build/default/production/_ext/1360937237/app.o
LOAD build/default/production/_ext/1171490990/tasks.o
LOAD build/default/production/_ext/1171490990/interrupts_a.o
LOAD build/default/production/_ext/1033058136/tcpip_announce.o
LOAD build/default/production/_ext/1033058136/udp.o
LOAD build/default/production/_ext/438849557/drv_miim.o
LOAD build/default/production/_ext/444070925/drv_ethphy.o
LOAD build/default/production/_ext/444070925/drv_extphy_smsc8720.o
LOAD build/default/production/_ext/1664057780/arc4.o
LOAD build/default/production/_ext/1664057780/asm.o
LOAD build/default/production/_ext/1664057780/asn.o
LOAD build/default/production/_ext/1664057780/blake2b.o
LOAD build/default/production/_ext/1664057780/blake2s.o
LOAD build/default/production/_ext/1664057780/camellia.o
LOAD build/default/production/_ext/1664057780/chacha.o
LOAD build/default/production/_ext/1664057780/chacha20_poly1305.o
LOAD build/default/production/_ext/1664057780/cmac.o
LOAD build/default/production/_ext/1664057780/coding.o
LOAD build/default/production/_ext/1664057780/compress.o
LOAD build/default/production/_ext/1664057780/cpuid.o
LOAD build/default/production/_ext/1664057780/cryptocb.o
LOAD build/default/production/_ext/1664057780/curve25519.o
LOAD build/default/production/_ext/1664057780/curve448.o
LOAD build/default/production/_ext/1664057780/dh.o
LOAD build/default/production/_ext/1664057780/dsa.o
LOAD build/default/production/_ext/1664057780/ecc.o
LOAD build/default/production/_ext/1664057780/ecc_fp.o
LOAD build/default/production/_ext/1664057780/ed25519.o
LOAD build/default/production/_ext/1664057780/ed448.o
LOAD build/default/production/_ext/1664057780/error.o
LOAD build/default/production/_ext/1664057780/fe_448.o
LOAD build/default/production/_ext/1664057780/fe_low_mem.o
LOAD build/default/production/_ext/1664057780/fe_operations.o
LOAD build/default/production/_ext/1664057780/ge_448.o
LOAD build/default/production/_ext/1664057780/ge_low_mem.o
LOAD build/default/production/_ext/1664057780/ge_operations.o
LOAD build/default/production/_ext/1664057780/hash.o
LOAD build/default/production/_ext/1664057780/hc128.o
LOAD build/default/production/_ext/1664057780/hmac.o
LOAD build/default/production/_ext/1664057780/idea.o
LOAD build/default/production/_ext/1664057780/integer.o
LOAD build/default/production/_ext/1664057780/logging.o
LOAD build/default/production/_ext/1664057780/md2.o
LOAD build/default/production/_ext/1664057780/md4.o
LOAD build/default/production/_ext/1664057780/md5.o
LOAD build/default/production/_ext/1664057780/memory.o
LOAD build/default/production/_ext/1664057780/pkcs12.o
LOAD build/default/production/_ext/1664057780/pkcs7.o
LOAD build/default/production/_ext/1664057780/poly1305.o
LOAD build/default/production/_ext/1664057780/pwdbased.o
LOAD build/default/production/_ext/1664057780/rabbit.o
LOAD build/default/production/_ext/1664057780/rc2.o
LOAD build/default/production/_ext/1664057780/ripemd.o
LOAD build/default/production/_ext/1664057780/rsa.o
LOAD build/default/production/_ext/1664057780/sha3.o
LOAD build/default/production/_ext/1664057780/signature.o
LOAD build/default/production/_ext/1664057780/sp_arm32.o
LOAD build/default/production/_ext/1664057780/sp_arm64.o
LOAD build/default/production/_ext/1664057780/sp_armthumb.o
LOAD build/default/production/_ext/1664057780/sp_c32.o
LOAD build/default/production/_ext/1664057780/sp_c64.o
LOAD build/default/production/_ext/1664057780/sp_cortexm.o
LOAD build/default/production/_ext/1664057780/sp_dsp32.o
LOAD build/default/production/_ext/1664057780/sp_int.o
LOAD build/default/production/_ext/1664057780/sp_x86_64.o
LOAD build/default/production/_ext/1664057780/srp.o
LOAD build/default/production/_ext/1664057780/tfm.o
LOAD build/default/production/_ext/1664057780/wc_dsp.o
LOAD build/default/production/_ext/1664057780/wc_encrypt.o
LOAD build/default/production/_ext/1664057780/wc_pkcs11.o
LOAD build/default/production/_ext/1664057780/wc_port.o
LOAD build/default/production/_ext/1664057780/wolfevent.o
LOAD build/default/production/_ext/1664057780/wolfmath.o
LOAD build/default/production/_ext/172253694/pic32mz-crypt.o
LOAD build/default/production/_ext/172253694/crypt_aes_sam6149.o
LOAD build/default/production/_ext/172253694/crypt_aes_u2238.o
LOAD build/default/production/_ext/172253694/crypt_ecc_ba414e.o
LOAD build/default/production/_ext/172253694/crypt_ecc_pukcl.o
LOAD build/default/production/_ext/172253694/crypt_pukcl_functions.o
LOAD build/default/production/_ext/172253694/crypt_rng_sam6334.o
LOAD build/default/production/_ext/172253694/crypt_rng_u2242.o
LOAD build/default/production/_ext/172253694/crypt_rsa_pukcl.o
LOAD build/default/production/_ext/172253694/crypt_sam_u2803.o
LOAD build/default/production/_ext/172253694/crypt_sha1_sam11105.o
LOAD build/default/production/_ext/172253694/crypt_sha1_sam6156.o
LOAD build/default/production/_ext/172253694/crypt_sha224_sam11105.o
LOAD build/default/production/_ext/172253694/crypt_sha224_sam6156.o
LOAD build/default/production/_ext/172253694/crypt_sha256_sam11105.o
LOAD build/default/production/_ext/172253694/crypt_sha256_sam6156.o
LOAD build/default/production/_ext/172253694/crypt_sha384_sam6156.o
LOAD build/default/production/_ext/172253694/crypt_sha512_sam6156.o
LOAD build/default/production/_ext/172253694/crypt_tdes_sam6150.o
LOAD build/default/production/_ext/172253694/crypt_wolfcryptcb.o
LOAD build/default/production/_ext/1664057780/aes.o
LOAD build/default/production/_ext/1664057780/des3.o
LOAD build/default/production/_ext/1664057780/random.o
LOAD build/default/production/_ext/1664057780/sha.o
LOAD build/default/production/_ext/1664057780/sha256.o
LOAD build/default/production/_ext/1664057780/sha512.o
LOAD build/default/production/_ext/1664057780/misc.o
LOAD build/default/production/_ext/1664057780/evp.o
LOAD build/default/production/_ext/1645245335/crypto.o
LOAD build/default/production/_ext/1171490990/freertos_hooks.o
LOAD build/default/production/_ext/404212886/croutine.o
LOAD build/default/production/_ext/404212886/list.o
LOAD build/default/production/_ext/404212886/queue.o
LOAD build/default/production/_ext/404212886/FreeRTOS_tasks.o
LOAD build/default/production/_ext/404212886/timers.o
LOAD build/default/production/_ext/404212886/event_groups.o
LOAD build/default/production/_ext/404212886/stream_buffer.o
LOAD build/default/production/_ext/1665200909/heap_1.o
LOAD build/default/production/_ext/951553248/port.o
LOAD build/default/production/_ext/951553248/port_asm.o
                0x00000001                __MPLAB_BUILD = 0x1
                0x00000400                PROVIDE (_min_stack_size, 0x400)
START GROUP
LOAD libmchp_peripheral.a
END GROUP
START GROUP
LOAD libmchp_peripheral_32MX795F512L.a
END GROUP
                0x00000001                PROVIDE (_vector_spacing, 0x1)
                0x9fc01000                PROVIDE (_ebase_address, 0x9fc01000)
                0xbfc00000                _RESET_ADDR = 0xbfc00000
                0xbfc00380                _BEV_EXCPT_ADDR = 0xbfc00380
                0xbfc00480                _DBG_EXCPT_ADDR = 0xbfc00480
                0xbfc02000                _DBG_CODE_ADDR = 0xbfc02000
                0x00000ff0                _DBG_CODE_SIZE = 0xff0
                0x9fc01180                _GEN_EXCPT_ADDR = (_ebase_address + 0x180)

.config_BFC02FF0
                0xbfc02ff0        0x4
 *(.config_BFC02FF0)
 .config_BFC02FF0
                0xbfc02ff0        0x4 build/default/production/_ext/1171490990/initialization.o

.config_BFC02FF4
                0xbfc02ff4        0x4
 *(.config_BFC02FF4)
 .config_BFC02FF4
                0xbfc02ff4        0x4 build/default/production/_ext/1171490990/initialization.o

.config_BFC02FF8
                0xbfc02ff8        0x4
 *(.config_BFC02FF8)
 .config_BFC02FF8
                0xbfc02ff8        0x4 build/default/production/_ext/1171490990/initialization.o

.config_BFC02FFC
                0xbfc02ffc        0x4
 *(.config_BFC02FFC)
 .config_BFC02FFC
                0xbfc02ffc        0x4 build/default/production/_ext/1171490990/initialization.o

.reset          0xbfc00000      0x19c
 *(.reset)
 .reset         0xbfc00000        0x8 C:\Users\user\AppData\Local\Temp\ccWnVuPa.o
                0xbfc00000                _reset
 *(.reset.startup)
 .reset.startup
                0xbfc00008      0x194 C:\Users\user\AppData\Local\Temp\ccWnVuPa.o
                0xbfc00008                _startup

.bev_excpt      0xbfc00380       0x10
 *(.bev_handler)
 .bev_handler   0xbfc00380       0x10 C:\Users\user\AppData\Local\Temp\ccWnVuPa.o

.dbg_excpt      0xbfc00480        0x0
                0xbfc00480                . = (. + DEFINED (_DEBUGGER)?0x8:0x0)

.dbg_code       0xbfc02000        0x0
                0xbfc02000                . = (. + DEFINED (_DEBUGGER)?_DBG_CODE_SIZE:0x0)

.app_excpt      0x9fc01180       0x10
 *(.gen_handler)
 .gen_handler   0x9fc01180       0x10 C:\Users\user\AppData\Local\Temp\ccWnVuPa.o

.vector_0       0x9fc01200       0x10
 *(.vector_0)
 .vector_0      0x9fc01200       0x10 build/default/production/_ext/1171490990/interrupts_a.o
                0x9fc01200                __vector_dispatch_0
                0x00000001                ASSERT (((_vector_spacing == 0x0) || (SIZEOF (.vector_0) <= (_vector_spacing << 0x5))), function at exception vector 0 too large)

.vector_1       0x9fc01220        0x8
 *(.vector_1)
 .vector_1      0x9fc01220        0x8 build/default/production/_ext/951553248/port.o
                0x9fc01220                __vector_dispatch_1
                0x00000001                ASSERT (((_vector_spacing == 0x0) || (SIZEOF (.vector_1) <= (_vector_spacing << 0x5))), function at exception vector 1 too large)

.vector_2       0x9fc01240        0x8
 *(.vector_2)
 .vector_2      0x9fc01240        0x8 c:/program files/microchip/xc32/v2.50/bin/bin/../../lib/gcc/pic32mx/4.8.3/../../../../pic32mx/lib\libpic32.a(vector2.o)
                0x9fc01240                __vector_dispatch_2
                0x00000001                ASSERT (((_vector_spacing == 0x0) || (SIZEOF (.vector_2) <= (_vector_spacing << 0x5))), function at exception vector 2 too large)

.vector_3       0x9fc01260        0x8
 *(.vector_3)
 .vector_3      0x9fc01260        0x8 c:/program files/microchip/xc32/v2.50/bin/bin/../../lib/gcc/pic32mx/4.8.3/../../../../pic32mx/lib\libpic32.a(vector3.o)
                0x9fc01260                __vector_dispatch_3
                0x00000001                ASSERT (((_vector_spacing == 0x0) || (SIZEOF (.vector_3) <= (_vector_spacing << 0x5))), function at exception vector 3 too large)

.vector_4       0x9fc01280        0x8
 *(.vector_4)
 .vector_4      0x9fc01280        0x8 build/default/production/_ext/951553248/port.o
                0x9fc01280                __vector_dispatch_4
                0x00000001                ASSERT (((_vector_spacing == 0x0) || (SIZEOF (.vector_4) <= (_vector_spacing << 0x5))), function at exception vector 4 too large)

.vector_5       0x9fc012a0        0x8
 *(.vector_5)
 .vector_5      0x9fc012a0        0x8 c:/program files/microchip/xc32/v2.50/bin/bin/../../lib/gcc/pic32mx/4.8.3/../../../../pic32mx/lib\libpic32.a(vector5.o)
                0x9fc012a0                __vector_dispatch_5
                0x00000001                ASSERT (((_vector_spacing == 0x0) || (SIZEOF (.vector_5) <= (_vector_spacing << 0x5))), function at exception vector 5 too large)

.vector_6       0x9fc012c0        0x8
 *(.vector_6)
 .vector_6      0x9fc012c0        0x8 c:/program files/microchip/xc32/v2.50/bin/bin/../../lib/gcc/pic32mx/4.8.3/../../../../pic32mx/lib\libpic32.a(vector6.o)
                0x9fc012c0                __vector_dispatch_6
                0x00000001                ASSERT (((_vector_spacing == 0x0) || (SIZEOF (.vector_6) <= (_vector_spacing << 0x5))), function at exception vector 6 too large)

.vector_7       0x9fc012e0        0x8
 *(.vector_7)
 .vector_7      0x9fc012e0        0x8 c:/program files/microchip/xc32/v2.50/bin/bin/../../lib/gcc/pic32mx/4.8.3/../../../../pic32mx/lib\libpic32.a(vector7.o)
                0x9fc012e0                __vector_dispatch_7
                0x00000001                ASSERT (((_vector_spacing == 0x0) || (SIZEOF (.vector_7) <= (_vector_spacing << 0x5))), function at exception vector 7 too large)

.vector_8       0x9fc01300       0x10
 *(.vector_8)
 .vector_8      0x9fc01300       0x10 build/default/production/_ext/1171490990/interrupts_a.o
                0x9fc01300                __vector_dispatch_8
                0x00000001                ASSERT (((_vector_spacing == 0x0) || (SIZEOF (.vector_8) <= (_vector_spacing << 0x5))), function at exception vector 8 too large)

.vector_9       0x9fc01320        0x8
 *(.vector_9)
 .vector_9      0x9fc01320        0x8 c:/program files/microchip/xc32/v2.50/bin/bin/../../lib/gcc/pic32mx/4.8.3/../../../../pic32mx/lib\libpic32.a(vector9.o)
                0x9fc01320                __vector_dispatch_9
                0x00000001                ASSERT (((_vector_spacing == 0x0) || (SIZEOF (.vector_9) <= (_vector_spacing << 0x5))), function at exception vector 9 too large)

.vector_10      0x9fc01340        0x8
 *(.vector_10)
 .vector_10     0x9fc01340        0x8 c:/program files/microchip/xc32/v2.50/bin/bin/../../lib/gcc/pic32mx/4.8.3/../../../../pic32mx/lib\libpic32.a(vector10.o)
                0x9fc01340                __vector_dispatch_10
                0x00000001                ASSERT (((_vector_spacing == 0x0) || (SIZEOF (.vector_10) <= (_vector_spacing << 0x5))), function at exception vector 10 too large)

.vector_11      0x9fc01360        0x8
 *(.vector_11)
 .vector_11     0x9fc01360        0x8 c:/program files/microchip/xc32/v2.50/bin/bin/../../lib/gcc/pic32mx/4.8.3/../../../../pic32mx/lib\libpic32.a(vector11.o)
                0x9fc01360                __vector_dispatch_11
                0x00000001                ASSERT (((_vector_spacing == 0x0) || (SIZEOF (.vector_11) <= (_vector_spacing << 0x5))), function at exception vector 11 too large)

.vector_12      0x9fc01380        0x8
 *(.vector_12)
 .vector_12     0x9fc01380        0x8 c:/program files/microchip/xc32/v2.50/bin/bin/../../lib/gcc/pic32mx/4.8.3/../../../../pic32mx/lib\libpic32.a(vector12.o)
                0x9fc01380                __vector_dispatch_12
                0x00000001                ASSERT (((_vector_spacing == 0x0) || (SIZEOF (.vector_12) <= (_vector_spacing << 0x5))), function at exception vector 12 too large)

.vector_13      0x9fc013a0        0x8
 *(.vector_13)
 .vector_13     0x9fc013a0        0x8 c:/program files/microchip/xc32/v2.50/bin/bin/../../lib/gcc/pic32mx/4.8.3/../../../../pic32mx/lib\libpic32.a(vector13.o)
                0x9fc013a0                __vector_dispatch_13
                0x00000001                ASSERT (((_vector_spacing == 0x0) || (SIZEOF (.vector_13) <= (_vector_spacing << 0x5))), function at exception vector 13 too large)

.vector_14      0x9fc013c0        0x8
 *(.vector_14)
 .vector_14     0x9fc013c0        0x8 c:/program files/microchip/xc32/v2.50/bin/bin/../../lib/gcc/pic32mx/4.8.3/../../../../pic32mx/lib\libpic32.a(vector14.o)
                0x9fc013c0                __vector_dispatch_14
                0x00000001                ASSERT (((_vector_spacing == 0x0) || (SIZEOF (.vector_14) <= (_vector_spacing << 0x5))), function at exception vector 14 too large)

.vector_15      0x9fc013e0        0x8
 *(.vector_15)
 .vector_15     0x9fc013e0        0x8 c:/program files/microchip/xc32/v2.50/bin/bin/../../lib/gcc/pic32mx/4.8.3/../../../../pic32mx/lib\libpic32.a(vector15.o)
                0x9fc013e0                __vector_dispatch_15
                0x00000001                ASSERT (((_vector_spacing == 0x0) || (SIZEOF (.vector_15) <= (_vector_spacing << 0x5))), function at exception vector 15 too large)

.vector_16      0x9fc01400        0x8
 *(.vector_16)
 .vector_16     0x9fc01400        0x8 c:/program files/microchip/xc32/v2.50/bin/bin/../../lib/gcc/pic32mx/4.8.3/../../../../pic32mx/lib\libpic32.a(vector16.o)
                0x9fc01400                __vector_dispatch_16
                0x00000001                ASSERT (((_vector_spacing == 0x0) || (SIZEOF (.vector_16) <= (_vector_spacing << 0x5))), function at exception vector 16 too large)

.vector_17      0x9fc01420        0x8
 *(.vector_17)
 .vector_17     0x9fc01420        0x8 c:/program files/microchip/xc32/v2.50/bin/bin/../../lib/gcc/pic32mx/4.8.3/../../../../pic32mx/lib\libpic32.a(vector17.o)
                0x9fc01420                __vector_dispatch_17
                0x00000001                ASSERT (((_vector_spacing == 0x0) || (SIZEOF (.vector_17) <= (_vector_spacing << 0x5))), function at exception vector 17 too large)

.vector_18      0x9fc01440        0x8
 *(.vector_18)
 .vector_18     0x9fc01440        0x8 c:/program files/microchip/xc32/v2.50/bin/bin/../../lib/gcc/pic32mx/4.8.3/../../../../pic32mx/lib\libpic32.a(vector18.o)
                0x9fc01440                __vector_dispatch_18
                0x00000001                ASSERT (((_vector_spacing == 0x0) || (SIZEOF (.vector_18) <= (_vector_spacing << 0x5))), function at exception vector 18 too large)

.vector_19      0x9fc01460        0x8
 *(.vector_19)
 .vector_19     0x9fc01460        0x8 c:/program files/microchip/xc32/v2.50/bin/bin/../../lib/gcc/pic32mx/4.8.3/../../../../pic32mx/lib\libpic32.a(vector19.o)
                0x9fc01460                __vector_dispatch_19
                0x00000001                ASSERT (((_vector_spacing == 0x0) || (SIZEOF (.vector_19) <= (_vector_spacing << 0x5))), function at exception vector 19 too large)

.vector_20      0x9fc01480        0x8
 *(.vector_20)
 .vector_20     0x9fc01480        0x8 c:/program files/microchip/xc32/v2.50/bin/bin/../../lib/gcc/pic32mx/4.8.3/../../../../pic32mx/lib\libpic32.a(vector20.o)
                0x9fc01480                __vector_dispatch_20
                0x00000001                ASSERT (((_vector_spacing == 0x0) || (SIZEOF (.vector_20) <= (_vector_spacing << 0x5))), function at exception vector 20 too large)

.vector_21      0x9fc014a0        0x8
 *(.vector_21)
 .vector_21     0x9fc014a0        0x8 c:/program files/microchip/xc32/v2.50/bin/bin/../../lib/gcc/pic32mx/4.8.3/../../../../pic32mx/lib\libpic32.a(vector21.o)
                0x9fc014a0                __vector_dispatch_21
                0x00000001                ASSERT (((_vector_spacing == 0x0) || (SIZEOF (.vector_21) <= (_vector_spacing << 0x5))), function at exception vector 21 too large)

.vector_22      0x9fc014c0        0x8
 *(.vector_22)
 .vector_22     0x9fc014c0        0x8 c:/program files/microchip/xc32/v2.50/bin/bin/../../lib/gcc/pic32mx/4.8.3/../../../../pic32mx/lib\libpic32.a(vector22.o)
                0x9fc014c0                __vector_dispatch_22
                0x00000001                ASSERT (((_vector_spacing == 0x0) || (SIZEOF (.vector_22) <= (_vector_spacing << 0x5))), function at exception vector 22 too large)

.vector_23      0x9fc014e0       0x10
 *(.vector_23)
 .vector_23     0x9fc014e0       0x10 build/default/production/_ext/1171490990/interrupts_a.o
                0x9fc014e0                __vector_dispatch_23
                0x00000001                ASSERT (((_vector_spacing == 0x0) || (SIZEOF (.vector_23) <= (_vector_spacing << 0x5))), function at exception vector 23 too large)

.vector_24      0x9fc01500        0x8
 *(.vector_24)
 .vector_24     0x9fc01500        0x8 c:/program files/microchip/xc32/v2.50/bin/bin/../../lib/gcc/pic32mx/4.8.3/../../../../pic32mx/lib\libpic32.a(vector24.o)
                0x9fc01500                __vector_dispatch_24
                0x00000001                ASSERT (((_vector_spacing == 0x0) || (SIZEOF (.vector_24) <= (_vector_spacing << 0x5))), function at exception vector 24 too large)

.vector_25      0x9fc01520        0x8
 *(.vector_25)
 .vector_25     0x9fc01520        0x8 c:/program files/microchip/xc32/v2.50/bin/bin/../../lib/gcc/pic32mx/4.8.3/../../../../pic32mx/lib\libpic32.a(vector25.o)
                0x9fc01520                __vector_dispatch_25
                0x00000001                ASSERT (((_vector_spacing == 0x0) || (SIZEOF (.vector_25) <= (_vector_spacing << 0x5))), function at exception vector 25 too large)

.vector_26      0x9fc01540        0x8
 *(.vector_26)
 .vector_26     0x9fc01540        0x8 c:/program files/microchip/xc32/v2.50/bin/bin/../../lib/gcc/pic32mx/4.8.3/../../../../pic32mx/lib\libpic32.a(vector26.o)
                0x9fc01540                __vector_dispatch_26
                0x00000001                ASSERT (((_vector_spacing == 0x0) || (SIZEOF (.vector_26) <= (_vector_spacing << 0x5))), function at exception vector 26 too large)

.vector_27      0x9fc01560        0x8
 *(.vector_27)
 .vector_27     0x9fc01560        0x8 c:/program files/microchip/xc32/v2.50/bin/bin/../../lib/gcc/pic32mx/4.8.3/../../../../pic32mx/lib\libpic32.a(vector27.o)
                0x9fc01560                __vector_dispatch_27
                0x00000001                ASSERT (((_vector_spacing == 0x0) || (SIZEOF (.vector_27) <= (_vector_spacing << 0x5))), function at exception vector 27 too large)

.vector_28      0x9fc01580        0x8
 *(.vector_28)
 .vector_28     0x9fc01580        0x8 c:/program files/microchip/xc32/v2.50/bin/bin/../../lib/gcc/pic32mx/4.8.3/../../../../pic32mx/lib\libpic32.a(vector28.o)
                0x9fc01580                __vector_dispatch_28
                0x00000001                ASSERT (((_vector_spacing == 0x0) || (SIZEOF (.vector_28) <= (_vector_spacing << 0x5))), function at exception vector 28 too large)

.vector_29      0x9fc015a0        0x8
 *(.vector_29)
 .vector_29     0x9fc015a0        0x8 c:/program files/microchip/xc32/v2.50/bin/bin/../../lib/gcc/pic32mx/4.8.3/../../../../pic32mx/lib\libpic32.a(vector29.o)
                0x9fc015a0                __vector_dispatch_29
                0x00000001                ASSERT (((_vector_spacing == 0x0) || (SIZEOF (.vector_29) <= (_vector_spacing << 0x5))), function at exception vector 29 too large)

.vector_30      0x9fc015c0        0x8
 *(.vector_30)
 .vector_30     0x9fc015c0        0x8 c:/program files/microchip/xc32/v2.50/bin/bin/../../lib/gcc/pic32mx/4.8.3/../../../../pic32mx/lib\libpic32.a(vector30.o)
                0x9fc015c0                __vector_dispatch_30
                0x00000001                ASSERT (((_vector_spacing == 0x0) || (SIZEOF (.vector_30) <= (_vector_spacing << 0x5))), function at exception vector 30 too large)

.vector_31      0x9fc015e0        0x8
 *(.vector_31)
 .vector_31     0x9fc015e0        0x8 c:/program files/microchip/xc32/v2.50/bin/bin/../../lib/gcc/pic32mx/4.8.3/../../../../pic32mx/lib\libpic32.a(vector31.o)
                0x9fc015e0                __vector_dispatch_31
                0x00000001                ASSERT (((_vector_spacing == 0x0) || (SIZEOF (.vector_31) <= (_vector_spacing << 0x5))), function at exception vector 31 too large)

.vector_32      0x9fc01600       0x10
 *(.vector_32)
 .vector_32     0x9fc01600       0x10 build/default/production/_ext/1171490990/interrupts_a.o
                0x9fc01600                __vector_dispatch_32
                0x00000001                ASSERT (((_vector_spacing == 0x0) || (SIZEOF (.vector_32) <= (_vector_spacing << 0x5))), function at exception vector 32 too large)

.vector_33      0x9fc01620        0x8
 *(.vector_33)
 .vector_33     0x9fc01620        0x8 c:/program files/microchip/xc32/v2.50/bin/bin/../../lib/gcc/pic32mx/4.8.3/../../../../pic32mx/lib\libpic32.a(vector33.o)
                0x9fc01620                __vector_dispatch_33
                0x00000001                ASSERT (((_vector_spacing == 0x0) || (SIZEOF (.vector_33) <= (_vector_spacing << 0x5))), function at exception vector 33 too large)

.vector_34      0x9fc01640        0x8
 *(.vector_34)
 .vector_34     0x9fc01640        0x8 c:/program files/microchip/xc32/v2.50/bin/bin/../../lib/gcc/pic32mx/4.8.3/../../../../pic32mx/lib\libpic32.a(vector34.o)
                0x9fc01640                __vector_dispatch_34
                0x00000001                ASSERT (((_vector_spacing == 0x0) || (SIZEOF (.vector_34) <= (_vector_spacing << 0x5))), function at exception vector 34 too large)

.vector_35      0x9fc01660        0x8
 *(.vector_35)
 .vector_35     0x9fc01660        0x8 c:/program files/microchip/xc32/v2.50/bin/bin/../../lib/gcc/pic32mx/4.8.3/../../../../pic32mx/lib\libpic32.a(vector35.o)
                0x9fc01660                __vector_dispatch_35
                0x00000001                ASSERT (((_vector_spacing == 0x0) || (SIZEOF (.vector_35) <= (_vector_spacing << 0x5))), function at exception vector 35 too large)

.vector_36      0x9fc01680        0x8
 *(.vector_36)
 .vector_36     0x9fc01680        0x8 c:/program files/microchip/xc32/v2.50/bin/bin/../../lib/gcc/pic32mx/4.8.3/../../../../pic32mx/lib\libpic32.a(vector36.o)
                0x9fc01680                __vector_dispatch_36
                0x00000001                ASSERT (((_vector_spacing == 0x0) || (SIZEOF (.vector_36) <= (_vector_spacing << 0x5))), function at exception vector 36 too large)

.vector_37      0x9fc016a0        0x8
 *(.vector_37)
 .vector_37     0x9fc016a0        0x8 c:/program files/microchip/xc32/v2.50/bin/bin/../../lib/gcc/pic32mx/4.8.3/../../../../pic32mx/lib\libpic32.a(vector37.o)
                0x9fc016a0                __vector_dispatch_37
                0x00000001                ASSERT (((_vector_spacing == 0x0) || (SIZEOF (.vector_37) <= (_vector_spacing << 0x5))), function at exception vector 37 too large)

.vector_38      0x9fc016c0        0x8
 *(.vector_38)
 .vector_38     0x9fc016c0        0x8 c:/program files/microchip/xc32/v2.50/bin/bin/../../lib/gcc/pic32mx/4.8.3/../../../../pic32mx/lib\libpic32.a(vector38.o)
                0x9fc016c0                __vector_dispatch_38
                0x00000001                ASSERT (((_vector_spacing == 0x0) || (SIZEOF (.vector_38) <= (_vector_spacing << 0x5))), function at exception vector 38 too large)

.vector_39      0x9fc016e0        0x8
 *(.vector_39)
 .vector_39     0x9fc016e0        0x8 c:/program files/microchip/xc32/v2.50/bin/bin/../../lib/gcc/pic32mx/4.8.3/../../../../pic32mx/lib\libpic32.a(vector39.o)
                0x9fc016e0                __vector_dispatch_39
                0x00000001                ASSERT (((_vector_spacing == 0x0) || (SIZEOF (.vector_39) <= (_vector_spacing << 0x5))), function at exception vector 39 too large)

.vector_40      0x9fc01700        0x8
 *(.vector_40)
 .vector_40     0x9fc01700        0x8 c:/program files/microchip/xc32/v2.50/bin/bin/../../lib/gcc/pic32mx/4.8.3/../../../../pic32mx/lib\libpic32.a(vector40.o)
                0x9fc01700                __vector_dispatch_40
                0x00000001                ASSERT (((_vector_spacing == 0x0) || (SIZEOF (.vector_40) <= (_vector_spacing << 0x5))), function at exception vector 40 too large)

.vector_41      0x9fc01720        0x8
 *(.vector_41)
 .vector_41     0x9fc01720        0x8 c:/program files/microchip/xc32/v2.50/bin/bin/../../lib/gcc/pic32mx/4.8.3/../../../../pic32mx/lib\libpic32.a(vector41.o)
                0x9fc01720                __vector_dispatch_41
                0x00000001                ASSERT (((_vector_spacing == 0x0) || (SIZEOF (.vector_41) <= (_vector_spacing << 0x5))), function at exception vector 41 too large)

.vector_42      0x9fc01740        0x8
 *(.vector_42)
 .vector_42     0x9fc01740        0x8 c:/program files/microchip/xc32/v2.50/bin/bin/../../lib/gcc/pic32mx/4.8.3/../../../../pic32mx/lib\libpic32.a(vector42.o)
                0x9fc01740                __vector_dispatch_42
                0x00000001                ASSERT (((_vector_spacing == 0x0) || (SIZEOF (.vector_42) <= (_vector_spacing << 0x5))), function at exception vector 42 too large)

.vector_43      0x9fc01760        0x8
 *(.vector_43)
 .vector_43     0x9fc01760        0x8 c:/program files/microchip/xc32/v2.50/bin/bin/../../lib/gcc/pic32mx/4.8.3/../../../../pic32mx/lib\libpic32.a(vector43.o)
                0x9fc01760                __vector_dispatch_43
                0x00000001                ASSERT (((_vector_spacing == 0x0) || (SIZEOF (.vector_43) <= (_vector_spacing << 0x5))), function at exception vector 43 too large)

.vector_44      0x9fc01780        0x8
 *(.vector_44)
 .vector_44     0x9fc01780        0x8 c:/program files/microchip/xc32/v2.50/bin/bin/../../lib/gcc/pic32mx/4.8.3/../../../../pic32mx/lib\libpic32.a(vector44.o)
                0x9fc01780                __vector_dispatch_44
                0x00000001                ASSERT (((_vector_spacing == 0x0) || (SIZEOF (.vector_44) <= (_vector_spacing << 0x5))), function at exception vector 44 too large)

.vector_45      0x9fc017a0        0x8
 *(.vector_45)
 .vector_45     0x9fc017a0        0x8 c:/program files/microchip/xc32/v2.50/bin/bin/../../lib/gcc/pic32mx/4.8.3/../../../../pic32mx/lib\libpic32.a(vector45.o)
                0x9fc017a0                __vector_dispatch_45
                0x00000001                ASSERT (((_vector_spacing == 0x0) || (SIZEOF (.vector_45) <= (_vector_spacing << 0x5))), function at exception vector 45 too large)

.vector_46      0x9fc017c0        0x8
 *(.vector_46)
 .vector_46     0x9fc017c0        0x8 c:/program files/microchip/xc32/v2.50/bin/bin/../../lib/gcc/pic32mx/4.8.3/../../../../pic32mx/lib\libpic32.a(vector46.o)
                0x9fc017c0                __vector_dispatch_46
                0x00000001                ASSERT (((_vector_spacing == 0x0) || (SIZEOF (.vector_46) <= (_vector_spacing << 0x5))), function at exception vector 46 too large)

.vector_47      0x9fc017e0        0x8
 *(.vector_47)
 .vector_47     0x9fc017e0        0x8 c:/program files/microchip/xc32/v2.50/bin/bin/../../lib/gcc/pic32mx/4.8.3/../../../../pic32mx/lib\libpic32.a(vector47.o)
                0x9fc017e0                __vector_dispatch_47
                0x00000001                ASSERT (((_vector_spacing == 0x0) || (SIZEOF (.vector_47) <= (_vector_spacing << 0x5))), function at exception vector 47 too large)

.vector_48      0x9fc01800       0x10
 *(.vector_48)
 .vector_48     0x9fc01800       0x10 build/default/production/_ext/1171490990/interrupts_a.o
                0x9fc01800                __vector_dispatch_48
                0x00000001                ASSERT (((_vector_spacing == 0x0) || (SIZEOF (.vector_48) <= (_vector_spacing << 0x5))), function at exception vector 48 too large)

.vector_49      0x9fc01820        0x8
 *(.vector_49)
 .vector_49     0x9fc01820        0x8 c:/program files/microchip/xc32/v2.50/bin/bin/../../lib/gcc/pic32mx/4.8.3/../../../../pic32mx/lib\libpic32.a(vector49.o)
                0x9fc01820                __vector_dispatch_49
                0x00000001                ASSERT (((_vector_spacing == 0x0) || (SIZEOF (.vector_49) <= (_vector_spacing << 0x5))), function at exception vector 49 too large)

.vector_50      0x9fc01840        0x8
 *(.vector_50)
 .vector_50     0x9fc01840        0x8 c:/program files/microchip/xc32/v2.50/bin/bin/../../lib/gcc/pic32mx/4.8.3/../../../../pic32mx/lib\libpic32.a(vector50.o)
                0x9fc01840                __vector_dispatch_50
                0x00000001                ASSERT (((_vector_spacing == 0x0) || (SIZEOF (.vector_50) <= (_vector_spacing << 0x5))), function at exception vector 50 too large)

.vector_51      0x9fc01860        0x8
 *(.vector_51)
 .vector_51     0x9fc01860        0x8 c:/program files/microchip/xc32/v2.50/bin/bin/../../lib/gcc/pic32mx/4.8.3/../../../../pic32mx/lib\libpic32.a(vector51.o)
                0x9fc01860                __vector_dispatch_51
                0x00000001                ASSERT (((_vector_spacing == 0x0) || (SIZEOF (.vector_51) <= (_vector_spacing << 0x5))), function at exception vector 51 too large)

.vector_52      0x9fc01880        0x0
 *(.vector_52)
                0x00000001                ASSERT (((_vector_spacing == 0x0) || (SIZEOF (.vector_52) <= (_vector_spacing << 0x5))), function at exception vector 52 too large)

.vector_53      0x9fc018a0        0x0
 *(.vector_53)
                0x00000001                ASSERT (((_vector_spacing == 0x0) || (SIZEOF (.vector_53) <= (_vector_spacing << 0x5))), function at exception vector 53 too large)

.vector_54      0x9fc018c0        0x0
 *(.vector_54)
                0x00000001                ASSERT (((_vector_spacing == 0x0) || (SIZEOF (.vector_54) <= (_vector_spacing << 0x5))), function at exception vector 54 too large)

.vector_55      0x9fc018e0        0x0
 *(.vector_55)
                0x00000001                ASSERT (((_vector_spacing == 0x0) || (SIZEOF (.vector_55) <= (_vector_spacing << 0x5))), function at exception vector 55 too large)

.vector_56      0x9fc01900        0x0
 *(.vector_56)
                0x00000001                ASSERT (((_vector_spacing == 0x0) || (SIZEOF (.vector_56) <= (_vector_spacing << 0x5))), function at exception vector 56 too large)

.vector_57      0x9fc01920        0x0
 *(.vector_57)
                0x00000001                ASSERT (((_vector_spacing == 0x0) || (SIZEOF (.vector_57) <= (_vector_spacing << 0x5))), function at exception vector 57 too large)

.vector_58      0x9fc01940        0x0
 *(.vector_58)
                0x00000001                ASSERT (((_vector_spacing == 0x0) || (SIZEOF (.vector_58) <= (_vector_spacing << 0x5))), function at exception vector 58 too large)

.vector_59      0x9fc01960        0x0
 *(.vector_59)
                0x00000001                ASSERT (((_vector_spacing == 0x0) || (SIZEOF (.vector_59) <= (_vector_spacing << 0x5))), function at exception vector 59 too large)

.vector_60      0x9fc01980        0x0
 *(.vector_60)
                0x00000001                ASSERT (((_vector_spacing == 0x0) || (SIZEOF (.vector_60) <= (_vector_spacing << 0x5))), function at exception vector 60 too large)

.vector_61      0x9fc019a0        0x0
 *(.vector_61)
                0x00000001                ASSERT (((_vector_spacing == 0x0) || (SIZEOF (.vector_61) <= (_vector_spacing << 0x5))), function at exception vector 61 too large)

.vector_62      0x9fc019c0        0x0
 *(.vector_62)
                0x00000001                ASSERT (((_vector_spacing == 0x0) || (SIZEOF (.vector_62) <= (_vector_spacing << 0x5))), function at exception vector 62 too large)

.vector_63      0x9fc019e0        0x0
 *(.vector_63)
                0x00000001                ASSERT (((_vector_spacing == 0x0) || (SIZEOF (.vector_63) <= (_vector_spacing << 0x5))), function at exception vector 63 too large)

.startup
 *(.startup)

.text           0x9d000000        0x0
 *(.stub .gnu.linkonce.t.*)
 *(.text.*personality*)
 *(.mips16.fn.*)
 *(.mips16.call.*)
 *(.gnu.warning)
                0x9d000000                . = ALIGN (0x4)

.init           0x9d000000        0x0
 *crti.o(.init)
 *crtbegin.o(.init)
 *(EXCLUDE_FILE(*crtn.o *crtend?.o *crtend.o) .init)
 *crtend.o(.init)
 *crtn.o(.init)
                0x9d000000                . = ALIGN (0x4)

.fini           0x9d000000        0x0
 *(.fini)
                0x9d000000                . = ALIGN (0x4)

.preinit_array  0x9d000000        0x0
                0x9d000000                PROVIDE (__preinit_array_start, .)
 *(.preinit_array)
                0x9d000000                PROVIDE (__preinit_array_end, .)
                0x9d000000                . = ALIGN (0x4)

.init_array     0x9d000000        0x0
                0x9d000000                PROVIDE (__init_array_start, .)
 *(SORT(.init_array.*))
 *(.init_array)
                0x9d000000                PROVIDE (__init_array_end, .)
                0x9d000000                . = ALIGN (0x4)

.fini_array     0x9d000000        0x0
                0x9d000000                PROVIDE (__fini_array_start, .)
 *(SORT(.fini_array.*))
 *(.fini_array)
                0x9d000000                PROVIDE (__fini_array_end, .)
                0x9d000000                . = ALIGN (0x4)

.ctors          0x9d000000        0x0
 *crtbegin.o(.ctors)
 *crtbegin?.o(.ctors)
 *(EXCLUDE_FILE(*crtend?.o *crtend.o) .ctors)
 *(SORT(.ctors.*))
 *(.ctors)
                0x9d000000                . = ALIGN (0x4)

.dtors          0x9d000000        0x0
 *crtbegin.o(.dtors)
 *crtbegin?.o(.dtors)
 *(EXCLUDE_FILE(*crtend?.o *crtend.o) .dtors)
 *(SORT(.dtors.*))
 *(.dtors)
                0x9d000000                . = ALIGN (0x4)

.rodata         0x9d000000        0x0
 *(.gnu.linkonce.r.*)
 *(.rodata1)
                0x9d000000                . = ALIGN (0x4)

.sdata2         0x9fc00490        0x0
 *(.sdata2 .sdata2.* .gnu.linkonce.s2.*)
                0x9fc00490                . = ALIGN (0x4)

.sbss2          0x9fc00490        0x0
 *(.sbss2 .sbss2.* .gnu.linkonce.sb2.*)
                0x9fc00490                . = ALIGN (0x4)

.eh_frame_hdr
 *(.eh_frame_hdr)
                0x9fc00490                . = ALIGN (0x4)

.eh_frame
 *(.eh_frame)
                0x9fc00490                . = ALIGN (0x4)

.gcc_except_table
 *(.gcc_except_table .gcc_except_table.*)
                0x9fc00490                . = ALIGN (0x4)

.dbg_data       0xa0000000        0x0
                0xa0000000                . = (. + DEFINED (_DEBUGGER)?0x200:0x0)

.jcr            0xa0000000        0x0
 *(.jcr)
                0xa0000000                . = ALIGN (0x4)

.eh_frame
 *(.eh_frame)
                0xa0000000                . = ALIGN (0x4)

.gcc_except_table
 *(.gcc_except_table .gcc_except_table.*)
                0xa0000000                . = ALIGN (0x4)

.persist        0xa0000000        0x0
                0xa0000000                _persist_begin = .
 *(.persist .persist.*)
                0xa0000000                . = ALIGN (0x4)
                0xa0000000                _persist_end = .

.data           0xa0000000        0x0
 *(.gnu.linkonce.d.*)
 *(.data1)
                0xa0000000                . = ALIGN (0x4)
                0xa0000000                . = .
                0xa0007ff0                _gp = (ALIGN (0x10) + 0x7ff0)

.got            0xa0000000        0x0
 *(.got.plt)
 *(.got)
                0xa0000000                . = ALIGN (0x4)

.sdata          0xa0000000       0x20
                0xa0000000                _sdata_begin = .
 *(.sdata .sdata.* .gnu.linkonce.s.*)
 .sdata         0xa0000000        0x4 build/default/production/_ext/1033058136/tcp.o
                0xa0000000                led4
                0xa0000001                led3
                0xa0000002                led2
                0xa0000003                led1
 .sdata         0xa0000004        0x8 build/default/production/_ext/1033058136/arp.o
 .sdata         0xa000000c        0x2 build/default/production/_ext/101884895/sys_time.o
 *fill*         0xa000000e        0x2 
 .sdata         0xa0000010        0x4 build/default/production/_ext/1033058136/tcpip_manager.o
 .sdata         0xa0000014        0x8 build/default/production/_ext/1360937237/app.o
 .sdata         0xa000001c        0x4 build/default/production/_ext/951553248/port.o
                0xa000001c                uxInterruptNesting
                0xa0000020                . = ALIGN (0x4)
                0xa0000020                _sdata_end = .

.lit8
 *(.lit8)

.lit4
 *(.lit4)
                0xa0000020                . = ALIGN (0x4)
                0xa0000020                _data_end = .
                0xa0000020                _bss_begin = .

.sbss           0xa0000020      0x150
                0xa0000020                _sbss_begin = .
 *(.dynsbss)
 *(.sbss .sbss.* .gnu.linkonce.sb.*)
 .sbss          0xa0000020        0x8 build/default/production/_ext/1171490990/exceptions.o
 .sbss          0xa0000028        0x8 build/default/production/_ext/60181895/plib_tmr2.o
 .sbss          0xa0000030        0x4 build/default/production/_ext/732082881/drv_ethmac.o
 .sbss          0xa0000034       0x20 build/default/production/_ext/1033058136/tcp.o
 .sbss          0xa0000054       0x20 build/default/production/_ext/1033058136/ipv4.o
 .sbss          0xa0000074       0x14 build/default/production/_ext/1033058136/dhcps.o
 .sbss          0xa0000088       0x28 build/default/production/_ext/1033058136/tcpip_manager.o
 .sbss          0xa00000b0        0x4 build/default/production/_ext/1033058136/tcpip_packet.o
 .sbss          0xa00000b4        0x8 build/default/production/_ext/753841488/sys_time_h2_adapter.o
 .sbss          0xa00000bc        0x4 build/default/production/_ext/753841488/sys_random_h2_adapter.o
 .sbss          0xa00000c0        0x4 build/default/production/_ext/1033058136/tcpip_announce.o
 .sbss          0xa00000c4       0x1c build/default/production/_ext/1033058136/udp.o
 .sbss          0xa00000e0        0x4 build/default/production/_ext/1664057780/wc_port.o
 .sbss          0xa00000e4        0x1 build/default/production/_ext/172253694/crypt_pukcl_functions.o
                0xa00000e4                SelfTestState
 *fill*         0xa00000e5        0x3 
 .sbss          0xa00000e8       0x3c build/default/production/_ext/404212886/FreeRTOS_tasks.o
                0xa0000120                pxCurrentTCB
 .sbss          0xa0000124        0x8 build/default/production/_ext/1665200909/heap_1.o
 .sbss          0xa000012c        0x4 build/default/production/_ext/951553248/port.o
                0xa000012c                uxSavedTaskStackPointer
 *(.scommon)
 .scommon       0xa0000130        0x8 build/default/production/_ext/1249264884/plib_coretimer.o
                0xa0000130                coreTmr
 .scommon       0xa0000138        0x4 build/default/production/_ext/1033058136/dhcps.o
                0xa0000138                initTime
 .scommon       0xa000013c       0x2c build/default/production/_ext/1360937237/app.o
                0xa000013c                w2
                0xa0000140                ipAddr
                0xa0000144                appData
                0xa000014c                i
                0xa0000150                w
                0xa0000152                wCurrentChunk
                0xa0000154                netH
                0xa0000158                netName
                0xa000015c                nNets
                0xa0000160                wMaxPut
                0xa0000162                wMaxGet
                0xa0000164                netBiosName
 .scommon       0xa0000168        0x4 build/default/production/_ext/1171490990/tasks.o
                0xa0000168                xAPP_Tasks
 .scommon       0xa000016c        0x4 build/default/production/_ext/172253694/crypt_pukcl_functions.o
                0xa000016c                pvPUKCLParam
                0xa0000170                _sbss_end = .
                0xa0000170                . = ALIGN (0x4)

.bss            0xa0000170       0x80
 *(.dynbss)
 *(COMMON)
 COMMON         0xa0000170       0x28 build/default/production/_ext/298189674/plib_spi4_master.o
                0xa0000170                spi4Obj
 COMMON         0xa0000198        0xc build/default/production/_ext/1171490990/initialization.o
                0xa0000198                sysObj
 COMMON         0xa00001a4       0x28 build/default/production/_ext/298189674/plib_spi1_master.o
                0xa00001a4                spi1Obj
 COMMON         0xa00001cc       0x21 build/default/production/_ext/1360937237/app.o
                0xa00001cc                AppBuffer
                0xa00001f0                . = ALIGN ((. != 0x0)?0x4:0x1)
 *fill*         0xa00001ed        0x3 
                0xa00001f0                . = ALIGN (0x4)
                0xa00001f0                _end = .
                0xa00001f0                _bss_end = .
                0x00020000                _bmxdudba_address = 0x20000
                0x00020000                _bmxdupba_address = 0x20000

/DISCARD/
 *(.pdr)
 *(.rel.dyn)
 *(.note.GNU-stack)
 *(.note.GNU-stack)
 *(.gnu_debuglink)
 *(.gnu.lto_*)
 *(.discard)

.gptab.sdata
 *(.gptab.data)
 *(.gptab.sdata)

.gptab.sbss
 *(.gptab.bss)
 *(.gptab.sbss)

.mdebug.abi32   0x00000000        0x0
 *(.mdebug.abi32)
 .mdebug.abi32  0x00000000        0x0 build/default/production/_ext/60165520/plib_clk.o
 .mdebug.abi32  0x00000000        0x0 build/default/production/_ext/1865200349/plib_evic.o
 .mdebug.abi32  0x00000000        0x0 build/default/production/_ext/1865254177/plib_gpio.o
 .mdebug.abi32  0x00000000        0x0 build/default/production/_ext/298189674/plib_spi4_master.o
 .mdebug.abi32  0x00000000        0x0 build/default/production/_ext/163028504/xc32_monitor.o
 .mdebug.abi32  0x00000000        0x0 build/default/production/_ext/1171490990/initialization.o
 .mdebug.abi32  0x00000000        0x0 build/default/production/_ext/1171490990/interrupts.o
 .mdebug.abi32  0x00000000        0x0 build/default/production/_ext/1171490990/exceptions.o
 .mdebug.abi32  0x00000000        0x0 build/default/production/_ext/1360937237/main.o
 .mdebug.abi32  0x00000000        0x0 build/default/production/_ext/60181895/plib_tmr2.o
 .mdebug.abi32  0x00000000        0x0 build/default/production/_ext/732082881/drv_ethmac.o
 .mdebug.abi32  0x00000000        0x0 build/default/production/_ext/732082881/drv_ethmac_lib.o
 .mdebug.abi32  0x00000000        0x0 build/default/production/_ext/732082881/drv_eth_pic32_lib.o
 .mdebug.abi32  0x00000000        0x0 build/default/production/_ext/1033058136/tcp.o
 .mdebug.abi32  0x00000000        0x0 build/default/production/_ext/1033058136/arp.o
 .mdebug.abi32  0x00000000        0x0 build/default/production/_ext/101884895/sys_time.o
 .mdebug.abi32  0x00000000        0x0 build/default/production/_ext/1249264884/plib_coretimer.o
 .mdebug.abi32  0x00000000        0x0 build/default/production/_ext/298189674/plib_spi1_master.o
 .mdebug.abi32  0x00000000        0x0 build/default/production/_ext/1033058136/ipv4.o
 .mdebug.abi32  0x00000000        0x0 build/default/production/_ext/1033058136/dhcps.o
 .mdebug.abi32  0x00000000        0x0 build/default/production/_ext/1033058136/tcpip_heap_alloc.o
 .mdebug.abi32  0x00000000        0x0 build/default/production/_ext/1033058136/tcpip_heap_internal.o
 .mdebug.abi32  0x00000000        0x0 build/default/production/_ext/1033058136/dhcp.o
 .mdebug.abi32  0x00000000        0x0 build/default/production/_ext/1033058136/dns.o
 .mdebug.abi32  0x00000000        0x0 build/default/production/_ext/1033058136/helpers.o
 .mdebug.abi32  0x00000000        0x0 build/default/production/_ext/1033058136/hash_fnv.o
 .mdebug.abi32  0x00000000        0x0 build/default/production/_ext/1033058136/oahash.o
 .mdebug.abi32  0x00000000        0x0 build/default/production/_ext/1033058136/tcpip_helpers.o
 .mdebug.abi32  0x00000000        0x0 build/default/production/_ext/1033058136/tcpip_manager.o
 .mdebug.abi32  0x00000000        0x0 build/default/production/_ext/1033058136/tcpip_notify.o
 .mdebug.abi32  0x00000000        0x0 build/default/production/_ext/1033058136/tcpip_packet.o
 .mdebug.abi32  0x00000000        0x0 build/default/production/_ext/753841488/sys_time_h2_adapter.o
 .mdebug.abi32  0x00000000        0x0 build/default/production/_ext/753841488/sys_random_h2_adapter.o
 .mdebug.abi32  0x00000000        0x0 build/default/production/_ext/1881668453/sys_int.o
 .mdebug.abi32  0x00000000        0x0 build/default/production/_ext/1529399856/osal_freertos.o
 .mdebug.abi32  0x00000000        0x0 build/default/production/_ext/1360937237/app.o
 .mdebug.abi32  0x00000000        0x0 build/default/production/_ext/1171490990/tasks.o
 .mdebug.abi32  0x00000000        0x0 build/default/production/_ext/1033058136/tcpip_announce.o
 .mdebug.abi32  0x00000000        0x0 build/default/production/_ext/1033058136/udp.o
 .mdebug.abi32  0x00000000        0x0 build/default/production/_ext/438849557/drv_miim.o
 .mdebug.abi32  0x00000000        0x0 build/default/production/_ext/444070925/drv_ethphy.o
 .mdebug.abi32  0x00000000        0x0 build/default/production/_ext/444070925/drv_extphy_smsc8720.o
 .mdebug.abi32  0x00000000        0x0 build/default/production/_ext/1664057780/arc4.o
 .mdebug.abi32  0x00000000        0x0 build/default/production/_ext/1664057780/asm.o
 .mdebug.abi32  0x00000000        0x0 build/default/production/_ext/1664057780/asn.o
 .mdebug.abi32  0x00000000        0x0 build/default/production/_ext/1664057780/blake2b.o
 .mdebug.abi32  0x00000000        0x0 build/default/production/_ext/1664057780/blake2s.o
 .mdebug.abi32  0x00000000        0x0 build/default/production/_ext/1664057780/camellia.o
 .mdebug.abi32  0x00000000        0x0 build/default/production/_ext/1664057780/chacha.o
 .mdebug.abi32  0x00000000        0x0 build/default/production/_ext/1664057780/chacha20_poly1305.o
 .mdebug.abi32  0x00000000        0x0 build/default/production/_ext/1664057780/cmac.o
 .mdebug.abi32  0x00000000        0x0 build/default/production/_ext/1664057780/coding.o
 .mdebug.abi32  0x00000000        0x0 build/default/production/_ext/1664057780/compress.o
 .mdebug.abi32  0x00000000        0x0 build/default/production/_ext/1664057780/cpuid.o
 .mdebug.abi32  0x00000000        0x0 build/default/production/_ext/1664057780/cryptocb.o
 .mdebug.abi32  0x00000000        0x0 build/default/production/_ext/1664057780/curve25519.o
 .mdebug.abi32  0x00000000        0x0 build/default/production/_ext/1664057780/curve448.o
 .mdebug.abi32  0x00000000        0x0 build/default/production/_ext/1664057780/dh.o
 .mdebug.abi32  0x00000000        0x0 build/default/production/_ext/1664057780/dsa.o
 .mdebug.abi32  0x00000000        0x0 build/default/production/_ext/1664057780/ecc.o
 .mdebug.abi32  0x00000000        0x0 build/default/production/_ext/1664057780/ecc_fp.o
 .mdebug.abi32  0x00000000        0x0 build/default/production/_ext/1664057780/ed25519.o
 .mdebug.abi32  0x00000000        0x0 build/default/production/_ext/1664057780/ed448.o
 .mdebug.abi32  0x00000000        0x0 build/default/production/_ext/1664057780/error.o
 .mdebug.abi32  0x00000000        0x0 build/default/production/_ext/1664057780/fe_448.o
 .mdebug.abi32  0x00000000        0x0 build/default/production/_ext/1664057780/fe_low_mem.o
 .mdebug.abi32  0x00000000        0x0 build/default/production/_ext/1664057780/fe_operations.o
 .mdebug.abi32  0x00000000        0x0 build/default/production/_ext/1664057780/ge_448.o
 .mdebug.abi32  0x00000000        0x0 build/default/production/_ext/1664057780/ge_low_mem.o
 .mdebug.abi32  0x00000000        0x0 build/default/production/_ext/1664057780/ge_operations.o
 .mdebug.abi32  0x00000000        0x0 build/default/production/_ext/1664057780/hash.o
 .mdebug.abi32  0x00000000        0x0 build/default/production/_ext/1664057780/hc128.o
 .mdebug.abi32  0x00000000        0x0 build/default/production/_ext/1664057780/hmac.o
 .mdebug.abi32  0x00000000        0x0 build/default/production/_ext/1664057780/idea.o
 .mdebug.abi32  0x00000000        0x0 build/default/production/_ext/1664057780/integer.o
 .mdebug.abi32  0x00000000        0x0 build/default/production/_ext/1664057780/logging.o
 .mdebug.abi32  0x00000000        0x0 build/default/production/_ext/1664057780/md2.o
 .mdebug.abi32  0x00000000        0x0 build/default/production/_ext/1664057780/md4.o
 .mdebug.abi32  0x00000000        0x0 build/default/production/_ext/1664057780/md5.o
 .mdebug.abi32  0x00000000        0x0 build/default/production/_ext/1664057780/memory.o
 .mdebug.abi32  0x00000000        0x0 build/default/production/_ext/1664057780/pkcs12.o
 .mdebug.abi32  0x00000000        0x0 build/default/production/_ext/1664057780/pkcs7.o
 .mdebug.abi32  0x00000000        0x0 build/default/production/_ext/1664057780/poly1305.o
 .mdebug.abi32  0x00000000        0x0 build/default/production/_ext/1664057780/pwdbased.o
 .mdebug.abi32  0x00000000        0x0 build/default/production/_ext/1664057780/rabbit.o
 .mdebug.abi32  0x00000000        0x0 build/default/production/_ext/1664057780/rc2.o
 .mdebug.abi32  0x00000000        0x0 build/default/production/_ext/1664057780/ripemd.o
 .mdebug.abi32  0x00000000        0x0 build/default/production/_ext/1664057780/rsa.o
 .mdebug.abi32  0x00000000        0x0 build/default/production/_ext/1664057780/sha3.o
 .mdebug.abi32  0x00000000        0x0 build/default/production/_ext/1664057780/signature.o
 .mdebug.abi32  0x00000000        0x0 build/default/production/_ext/1664057780/sp_arm32.o
 .mdebug.abi32  0x00000000        0x0 build/default/production/_ext/1664057780/sp_arm64.o
 .mdebug.abi32  0x00000000        0x0 build/default/production/_ext/1664057780/sp_armthumb.o
 .mdebug.abi32  0x00000000        0x0 build/default/production/_ext/1664057780/sp_c32.o
 .mdebug.abi32  0x00000000        0x0 build/default/production/_ext/1664057780/sp_c64.o
 .mdebug.abi32  0x00000000        0x0 build/default/production/_ext/1664057780/sp_cortexm.o
 .mdebug.abi32  0x00000000        0x0 build/default/production/_ext/1664057780/sp_dsp32.o
 .mdebug.abi32  0x00000000        0x0 build/default/production/_ext/1664057780/sp_int.o
 .mdebug.abi32  0x00000000        0x0 build/default/production/_ext/1664057780/sp_x86_64.o
 .mdebug.abi32  0x00000000        0x0 build/default/production/_ext/1664057780/srp.o
 .mdebug.abi32  0x00000000        0x0 build/default/production/_ext/1664057780/tfm.o
 .mdebug.abi32  0x00000000        0x0 build/default/production/_ext/1664057780/wc_dsp.o
 .mdebug.abi32  0x00000000        0x0 build/default/production/_ext/1664057780/wc_encrypt.o
 .mdebug.abi32  0x00000000        0x0 build/default/production/_ext/1664057780/wc_pkcs11.o
 .mdebug.abi32  0x00000000        0x0 build/default/production/_ext/1664057780/wc_port.o
 .mdebug.abi32  0x00000000        0x0 build/default/production/_ext/1664057780/wolfevent.o
 .mdebug.abi32  0x00000000        0x0 build/default/production/_ext/1664057780/wolfmath.o
 .mdebug.abi32  0x00000000        0x0 build/default/production/_ext/172253694/pic32mz-crypt.o
 .mdebug.abi32  0x00000000        0x0 build/default/production/_ext/172253694/crypt_aes_sam6149.o
 .mdebug.abi32  0x00000000        0x0 build/default/production/_ext/172253694/crypt_aes_u2238.o
 .mdebug.abi32  0x00000000        0x0 build/default/production/_ext/172253694/crypt_ecc_ba414e.o
 .mdebug.abi32  0x00000000        0x0 build/default/production/_ext/172253694/crypt_ecc_pukcl.o
 .mdebug.abi32  0x00000000        0x0 build/default/production/_ext/172253694/crypt_pukcl_functions.o
 .mdebug.abi32  0x00000000        0x0 build/default/production/_ext/172253694/crypt_rng_sam6334.o
 .mdebug.abi32  0x00000000        0x0 build/default/production/_ext/172253694/crypt_rng_u2242.o
 .mdebug.abi32  0x00000000        0x0 build/default/production/_ext/172253694/crypt_rsa_pukcl.o
 .mdebug.abi32  0x00000000        0x0 build/default/production/_ext/172253694/crypt_sam_u2803.o
 .mdebug.abi32  0x00000000        0x0 build/default/production/_ext/172253694/crypt_sha1_sam11105.o
 .mdebug.abi32  0x00000000        0x0 build/default/production/_ext/172253694/crypt_sha1_sam6156.o
 .mdebug.abi32  0x00000000        0x0 build/default/production/_ext/172253694/crypt_sha224_sam11105.o
 .mdebug.abi32  0x00000000        0x0 build/default/production/_ext/172253694/crypt_sha224_sam6156.o
 .mdebug.abi32  0x00000000        0x0 build/default/production/_ext/172253694/crypt_sha256_sam11105.o
 .mdebug.abi32  0x00000000        0x0 build/default/production/_ext/172253694/crypt_sha256_sam6156.o
 .mdebug.abi32  0x00000000        0x0 build/default/production/_ext/172253694/crypt_sha384_sam6156.o
 .mdebug.abi32  0x00000000        0x0 build/default/production/_ext/172253694/crypt_sha512_sam6156.o
 .mdebug.abi32  0x00000000        0x0 build/default/production/_ext/172253694/crypt_tdes_sam6150.o
 .mdebug.abi32  0x00000000        0x0 build/default/production/_ext/172253694/crypt_wolfcryptcb.o
 .mdebug.abi32  0x00000000        0x0 build/default/production/_ext/1664057780/aes.o
 .mdebug.abi32  0x00000000        0x0 build/default/production/_ext/1664057780/des3.o
 .mdebug.abi32  0x00000000        0x0 build/default/production/_ext/1664057780/random.o
 .mdebug.abi32  0x00000000        0x0 build/default/production/_ext/1664057780/sha.o
 .mdebug.abi32  0x00000000        0x0 build/default/production/_ext/1664057780/sha256.o
 .mdebug.abi32  0x00000000        0x0 build/default/production/_ext/1664057780/sha512.o
 .mdebug.abi32  0x00000000        0x0 build/default/production/_ext/1664057780/misc.o
 .mdebug.abi32  0x00000000        0x0 build/default/production/_ext/1664057780/evp.o
 .mdebug.abi32  0x00000000        0x0 build/default/production/_ext/1645245335/crypto.o
 .mdebug.abi32  0x00000000        0x0 build/default/production/_ext/1171490990/freertos_hooks.o
 .mdebug.abi32  0x00000000        0x0 build/default/production/_ext/404212886/croutine.o
 .mdebug.abi32  0x00000000        0x0 build/default/production/_ext/404212886/list.o
 .mdebug.abi32  0x00000000        0x0 build/default/production/_ext/404212886/queue.o
 .mdebug.abi32  0x00000000        0x0 build/default/production/_ext/404212886/FreeRTOS_tasks.o
 .mdebug.abi32  0x00000000        0x0 build/default/production/_ext/404212886/timers.o
 .mdebug.abi32  0x00000000        0x0 build/default/production/_ext/404212886/event_groups.o
 .mdebug.abi32  0x00000000        0x0 build/default/production/_ext/404212886/stream_buffer.o
 .mdebug.abi32  0x00000000        0x0 build/default/production/_ext/1665200909/heap_1.o
 .mdebug.abi32  0x00000000        0x0 build/default/production/_ext/951553248/port.o
 .mdebug.abi32  0x00000000        0x0 c:/program files/microchip/xc32/v2.50/bin/bin/../../lib/gcc/pic32mx/4.8.3\libgcc.a(_udivdi3.o)
 .mdebug.abi32  0x00000000        0x0 c:/program files/microchip/xc32/v2.50/bin/bin/../../lib/gcc/pic32mx/4.8.3/../../../../pic32mx/lib\libpic32.a(default-on-reset.o)
 .mdebug.abi32  0x00000000        0x0 c:/program files/microchip/xc32/v2.50/bin/bin/../../lib/gcc/pic32mx/4.8.3/../../../../pic32mx/lib\libpic32.a(default-on-bootstrap.o)
 .mdebug.abi32  0x00000000        0x0 c:/program files/microchip/xc32/v2.50/bin/bin/../../lib/gcc/pic32mx/4.8.3/../../../../pic32mx/lib\libpic32.a(defaultinterrupt.o)
 .mdebug.abi32  0x00000000        0x0 c:/program files/microchip/xc32/v2.50/bin/bin/../../lib/gcc/pic32mx/4.8.3/../../../../pic32mx/lib\libc.a(calloc.o)
 .mdebug.abi32  0x00000000        0x0 c:/program files/microchip/xc32/v2.50/bin/bin/../../lib/gcc/pic32mx/4.8.3/../../../../pic32mx/lib\libc.a(ctime.o)
 .mdebug.abi32  0x00000000        0x0 c:/program files/microchip/xc32/v2.50/bin/bin/../../lib/gcc/pic32mx/4.8.3/../../../../pic32mx/lib\libc.a(ctype.o)
 .mdebug.abi32  0x00000000        0x0 c:/program files/microchip/xc32/v2.50/bin/bin/../../lib/gcc/pic32mx/4.8.3/../../../../pic32mx/lib\libc.a(ctypef.o)
 .mdebug.abi32  0x00000000        0x0 c:/program files/microchip/xc32/v2.50/bin/bin/../../lib/gcc/pic32mx/4.8.3/../../../../pic32mx/lib\libc.a(malloc.o)
 .mdebug.abi32  0x00000000        0x0 c:/program files/microchip/xc32/v2.50/bin/bin/../../lib/gcc/pic32mx/4.8.3/../../../../pic32mx/lib\libc.a(memmove.o)
 .mdebug.abi32  0x00000000        0x0 c:/program files/microchip/xc32/v2.50/bin/bin/../../lib/gcc/pic32mx/4.8.3/../../../../pic32mx/lib\libc.a(rand.o)
 .mdebug.abi32  0x00000000        0x0 c:/program files/microchip/xc32/v2.50/bin/bin/../../lib/gcc/pic32mx/4.8.3/../../../../pic32mx/lib\libc.a(strncmp.o)
 .mdebug.abi32  0x00000000        0x0 c:/program files/microchip/xc32/v2.50/bin/bin/../../lib/gcc/pic32mx/4.8.3/../../../../pic32mx/lib\libc.a(strncpy.o)
 .mdebug.abi32  0x00000000        0x0 c:/program files/microchip/xc32/v2.50/bin/bin/../../lib/gcc/pic32mx/4.8.3/../../../../pic32mx/lib\libc.a(strtol.o)
 .mdebug.abi32  0x00000000        0x0 c:/program files/microchip/xc32/v2.50/bin/bin/../../lib/gcc/pic32mx/4.8.3/../../../../pic32mx/lib\libc.a(time.o)
 .mdebug.abi32  0x00000000        0x0 c:/program files/microchip/xc32/v2.50/bin/bin/../../lib/gcc/pic32mx/4.8.3/../../../../pic32mx/lib\libc.a(snprintf_cdnopsuxX.eo)
 .mdebug.abi32  0x00000000        0x0 c:/program files/microchip/xc32/v2.50/bin/bin/../../lib/gcc/pic32mx/4.8.3/../../../../pic32mx/lib\libc.a(sprintf_cdnopuxX.eo)
 .mdebug.abi32  0x00000000        0x0 c:/program files/microchip/xc32/v2.50/bin/bin/../../lib/gcc/pic32mx/4.8.3/../../../../pic32mx/lib\libc.a(vsnprintf_cdnopsuxX.eo)
 .mdebug.abi32  0x00000000        0x0 c:/program files/microchip/xc32/v2.50/bin/bin/../../lib/gcc/pic32mx/4.8.3/../../../../pic32mx/lib\libc.a(errno.o)
 .mdebug.abi32  0x00000000        0x0 c:/program files/microchip/xc32/v2.50/bin/bin/../../lib/gcc/pic32mx/4.8.3/../../../../pic32mx/lib\libc.a(doprnt_cdnopsuxX.eo)
 .mdebug.abi32  0x00000000        0x0 c:/program files/microchip/xc32/v2.50/bin/bin/../../lib/gcc/pic32mx/4.8.3/../../../../pic32mx/lib\libc.a(_fputc_simple.o)
 .mdebug.abi32  0x00000000        0x0 c:/program files/microchip/xc32/v2.50/bin/bin/../../lib/gcc/pic32mx/4.8.3/../../../../pic32mx/lib\libc.a(_iob.o)
 .mdebug.abi32  0x00000000        0x0 c:/program files/microchip/xc32/v2.50/bin/bin/../../lib/gcc/pic32mx/4.8.3/../../../../pic32mx/lib\libc.a(_flsbuf_simple.o)
 .mdebug.abi32  0x00000000        0x0 c:/program files/microchip/xc32/v2.50/bin/bin/../../lib/gcc/pic32mx/4.8.3\libgcc.a(_umoddi3.o)
 .mdebug.abi32  0x00000000        0x0 c:/program files/microchip/xc32/v2.50/bin/bin/../../lib/gcc/pic32mx/4.8.3/../../../../pic32mx/lib\libpic32.a(sbrk.o)
 .mdebug.abi32  0x00000000        0x0 c:/program files/microchip/xc32/v2.50/bin/bin/../../lib/gcc/pic32mx/4.8.3/../../../../pic32mx/lib\libpic32.a(write.o)

.mdebug.abiN32
 *(.mdebug.abiN32)

.mdebug.abi64
 *(.mdebug.abi64)

.mdebug.abiO64
 *(.mdebug.abiO64)

.mdebug.eabi32
 *(.mdebug.eabi32)

.mdebug.eabi64
 *(.mdebug.eabi64)

.gcc_compiled_long32
 *(.gcc_compiled_long32)

.gcc_compiled_long64
 *(.gcc_compiled_long64)

.stab
 *(.stab)

.stabstr
 *(.stabstr)

.stab.excl
 *(.stab.excl)

.stab.exclstr
 *(.stab.exclstr)

.stab.index
 *(.stab.index)

.stab.indexstr
 *(.stab.indexstr)

.comment        0x00000000      0x19f
 *(.comment)
 .comment       0x00000000       0x3c build/default/production/_ext/60165520/plib_clk.o
                                 0x3d (size before relaxing)
 .comment       0x00000000       0x3d build/default/production/_ext/1865200349/plib_evic.o
 .comment       0x00000000       0x3d build/default/production/_ext/1865254177/plib_gpio.o
 .comment       0x00000000       0x3d build/default/production/_ext/298189674/plib_spi4_master.o
 .comment       0x00000000       0x3d build/default/production/_ext/163028504/xc32_monitor.o
 .comment       0x00000000       0x3d build/default/production/_ext/1171490990/initialization.o
 .comment       0x00000000       0x3d build/default/production/_ext/1171490990/interrupts.o
 .comment       0x00000000       0x3d build/default/production/_ext/1171490990/exceptions.o
 .comment       0x00000000       0x3d build/default/production/_ext/1360937237/main.o
 .comment       0x00000000       0x3d build/default/production/_ext/60181895/plib_tmr2.o
 .comment       0x00000000       0x3d build/default/production/_ext/732082881/drv_ethmac.o
 .comment       0x00000000       0x3d build/default/production/_ext/732082881/drv_ethmac_lib.o
 .comment       0x00000000       0x3d build/default/production/_ext/732082881/drv_eth_pic32_lib.o
 .comment       0x00000000       0x3d build/default/production/_ext/1033058136/tcp.o
 .comment       0x00000000       0x3d build/default/production/_ext/1033058136/arp.o
 .comment       0x00000000       0x3d build/default/production/_ext/101884895/sys_time.o
 .comment       0x00000000       0x3d build/default/production/_ext/1249264884/plib_coretimer.o
 .comment       0x00000000       0x3d build/default/production/_ext/298189674/plib_spi1_master.o
 .comment       0x00000000       0x3d build/default/production/_ext/1033058136/ipv4.o
 .comment       0x00000000       0x3d build/default/production/_ext/1033058136/dhcps.o
 .comment       0x00000000       0x3d build/default/production/_ext/1033058136/tcpip_heap_alloc.o
 .comment       0x00000000       0x3d build/default/production/_ext/1033058136/tcpip_heap_internal.o
 .comment       0x00000000       0x3d build/default/production/_ext/1033058136/dhcp.o
 .comment       0x00000000       0x3d build/default/production/_ext/1033058136/dns.o
 .comment       0x00000000       0x3d build/default/production/_ext/1033058136/helpers.o
 .comment       0x00000000       0x3d build/default/production/_ext/1033058136/hash_fnv.o
 .comment       0x00000000       0x3d build/default/production/_ext/1033058136/oahash.o
 .comment       0x00000000       0x3d build/default/production/_ext/1033058136/tcpip_helpers.o
 .comment       0x00000000       0x3d build/default/production/_ext/1033058136/tcpip_manager.o
 .comment       0x00000000       0x3d build/default/production/_ext/1033058136/tcpip_notify.o
 .comment       0x00000000       0x3d build/default/production/_ext/1033058136/tcpip_packet.o
 .comment       0x00000000       0x3d build/default/production/_ext/753841488/sys_time_h2_adapter.o
 .comment       0x00000000       0x3d build/default/production/_ext/753841488/sys_random_h2_adapter.o
 .comment       0x00000000       0x3d build/default/production/_ext/1881668453/sys_int.o
 .comment       0x00000000       0x3d build/default/production/_ext/1529399856/osal_freertos.o
 .comment       0x00000000       0x3d build/default/production/_ext/1360937237/app.o
 .comment       0x00000000       0x3d build/default/production/_ext/1171490990/tasks.o
 .comment       0x00000000       0x3d build/default/production/_ext/1033058136/tcpip_announce.o
 .comment       0x00000000       0x3d build/default/production/_ext/1033058136/udp.o
 .comment       0x00000000       0x3d build/default/production/_ext/438849557/drv_miim.o
 .comment       0x00000000       0x3d build/default/production/_ext/444070925/drv_ethphy.o
 .comment       0x00000000       0x3d build/default/production/_ext/444070925/drv_extphy_smsc8720.o
 .comment       0x00000000       0x3d build/default/production/_ext/1664057780/arc4.o
 .comment       0x00000000       0x3d build/default/production/_ext/1664057780/asm.o
 .comment       0x00000000       0x3d build/default/production/_ext/1664057780/asn.o
 .comment       0x00000000       0x3d build/default/production/_ext/1664057780/blake2b.o
 .comment       0x00000000       0x3d build/default/production/_ext/1664057780/blake2s.o
 .comment       0x00000000       0x3d build/default/production/_ext/1664057780/camellia.o
 .comment       0x00000000       0x3d build/default/production/_ext/1664057780/chacha.o
 .comment       0x00000000       0x3d build/default/production/_ext/1664057780/chacha20_poly1305.o
 .comment       0x00000000       0x3d build/default/production/_ext/1664057780/cmac.o
 .comment       0x00000000       0x3d build/default/production/_ext/1664057780/coding.o
 .comment       0x00000000       0x3d build/default/production/_ext/1664057780/compress.o
 .comment       0x00000000       0x3d build/default/production/_ext/1664057780/cpuid.o
 .comment       0x00000000       0x3d build/default/production/_ext/1664057780/cryptocb.o
 .comment       0x00000000       0x3d build/default/production/_ext/1664057780/curve25519.o
 .comment       0x00000000       0x3d build/default/production/_ext/1664057780/curve448.o
 .comment       0x00000000       0x3d build/default/production/_ext/1664057780/dh.o
 .comment       0x00000000       0x3d build/default/production/_ext/1664057780/dsa.o
 .comment       0x00000000       0x3d build/default/production/_ext/1664057780/ecc.o
 .comment       0x00000000       0x3d build/default/production/_ext/1664057780/ecc_fp.o
 .comment       0x00000000       0x3d build/default/production/_ext/1664057780/ed25519.o
 .comment       0x00000000       0x3d build/default/production/_ext/1664057780/ed448.o
 .comment       0x00000000       0x3d build/default/production/_ext/1664057780/error.o
 .comment       0x00000000       0x3d build/default/production/_ext/1664057780/fe_448.o
 .comment       0x00000000       0x3d build/default/production/_ext/1664057780/fe_low_mem.o
 .comment       0x00000000       0x3d build/default/production/_ext/1664057780/fe_operations.o
 .comment       0x00000000       0x3d build/default/production/_ext/1664057780/ge_448.o
 .comment       0x00000000       0x3d build/default/production/_ext/1664057780/ge_low_mem.o
 .comment       0x00000000       0x3d build/default/production/_ext/1664057780/ge_operations.o
 .comment       0x00000000       0x3d build/default/production/_ext/1664057780/hash.o
 .comment       0x00000000       0x3d build/default/production/_ext/1664057780/hc128.o
 .comment       0x00000000       0x3d build/default/production/_ext/1664057780/hmac.o
 .comment       0x00000000       0x3d build/default/production/_ext/1664057780/idea.o
 .comment       0x00000000       0x3d build/default/production/_ext/1664057780/integer.o
 .comment       0x00000000       0x3d build/default/production/_ext/1664057780/logging.o
 .comment       0x00000000       0x3d build/default/production/_ext/1664057780/md2.o
 .comment       0x00000000       0x3d build/default/production/_ext/1664057780/md4.o
 .comment       0x00000000       0x3d build/default/production/_ext/1664057780/md5.o
 .comment       0x00000000       0x3d build/default/production/_ext/1664057780/memory.o
 .comment       0x00000000       0x3d build/default/production/_ext/1664057780/pkcs12.o
 .comment       0x00000000       0x3d build/default/production/_ext/1664057780/pkcs7.o
 .comment       0x00000000       0x3d build/default/production/_ext/1664057780/poly1305.o
 .comment       0x00000000       0x3d build/default/production/_ext/1664057780/pwdbased.o
 .comment       0x00000000       0x3d build/default/production/_ext/1664057780/rabbit.o
 .comment       0x00000000       0x3d build/default/production/_ext/1664057780/rc2.o
 .comment       0x00000000       0x3d build/default/production/_ext/1664057780/ripemd.o
 .comment       0x00000000       0x3d build/default/production/_ext/1664057780/rsa.o
 .comment       0x00000000       0x3d build/default/production/_ext/1664057780/sha3.o
 .comment       0x00000000       0x3d build/default/production/_ext/1664057780/signature.o
 .comment       0x00000000       0x3d build/default/production/_ext/1664057780/sp_arm32.o
 .comment       0x00000000       0x3d build/default/production/_ext/1664057780/sp_arm64.o
 .comment       0x00000000       0x3d build/default/production/_ext/1664057780/sp_armthumb.o
 .comment       0x00000000       0x3d build/default/production/_ext/1664057780/sp_c32.o
 .comment       0x00000000       0x3d build/default/production/_ext/1664057780/sp_c64.o
 .comment       0x00000000       0x3d build/default/production/_ext/1664057780/sp_cortexm.o
 .comment       0x00000000       0x3d build/default/production/_ext/1664057780/sp_dsp32.o
 .comment       0x00000000       0x3d build/default/production/_ext/1664057780/sp_int.o
 .comment       0x00000000       0x3d build/default/production/_ext/1664057780/sp_x86_64.o
 .comment       0x00000000       0x3d build/default/production/_ext/1664057780/srp.o
 .comment       0x00000000       0x3d build/default/production/_ext/1664057780/tfm.o
 .comment       0x00000000       0x3d build/default/production/_ext/1664057780/wc_dsp.o
 .comment       0x00000000       0x3d build/default/production/_ext/1664057780/wc_encrypt.o
 .comment       0x00000000       0x3d build/default/production/_ext/1664057780/wc_pkcs11.o
 .comment       0x00000000       0x3d build/default/production/_ext/1664057780/wc_port.o
 .comment       0x00000000       0x3d build/default/production/_ext/1664057780/wolfevent.o
 .comment       0x00000000       0x3d build/default/production/_ext/1664057780/wolfmath.o
 .comment       0x00000000       0x3d build/default/production/_ext/172253694/pic32mz-crypt.o
 .comment       0x00000000       0x3d build/default/production/_ext/172253694/crypt_aes_sam6149.o
 .comment       0x00000000       0x3d build/default/production/_ext/172253694/crypt_aes_u2238.o
 .comment       0x00000000       0x3d build/default/production/_ext/172253694/crypt_ecc_ba414e.o
 .comment       0x00000000       0x3d build/default/production/_ext/172253694/crypt_ecc_pukcl.o
 .comment       0x00000000       0x3d build/default/production/_ext/172253694/crypt_pukcl_functions.o
 .comment       0x00000000       0x3d build/default/production/_ext/172253694/crypt_rng_sam6334.o
 .comment       0x00000000       0x3d build/default/production/_ext/172253694/crypt_rng_u2242.o
 .comment       0x00000000       0x3d build/default/production/_ext/172253694/crypt_rsa_pukcl.o
 .comment       0x00000000       0x3d build/default/production/_ext/172253694/crypt_sam_u2803.o
 .comment       0x00000000       0x3d build/default/production/_ext/172253694/crypt_sha1_sam11105.o
 .comment       0x00000000       0x3d build/default/production/_ext/172253694/crypt_sha1_sam6156.o
 .comment       0x00000000       0x3d build/default/production/_ext/172253694/crypt_sha224_sam11105.o
 .comment       0x00000000       0x3d build/default/production/_ext/172253694/crypt_sha224_sam6156.o
 .comment       0x00000000       0x3d build/default/production/_ext/172253694/crypt_sha256_sam11105.o
 .comment       0x00000000       0x3d build/default/production/_ext/172253694/crypt_sha256_sam6156.o
 .comment       0x00000000       0x3d build/default/production/_ext/172253694/crypt_sha384_sam6156.o
 .comment       0x00000000       0x3d build/default/production/_ext/172253694/crypt_sha512_sam6156.o
 .comment       0x00000000       0x3d build/default/production/_ext/172253694/crypt_tdes_sam6150.o
 .comment       0x00000000       0x3d build/default/production/_ext/172253694/crypt_wolfcryptcb.o
 .comment       0x00000000       0x3d build/default/production/_ext/1664057780/aes.o
 .comment       0x00000000       0x3d build/default/production/_ext/1664057780/des3.o
 .comment       0x00000000       0x3d build/default/production/_ext/1664057780/random.o
 .comment       0x00000000       0x3d build/default/production/_ext/1664057780/sha.o
 .comment       0x00000000       0x3d build/default/production/_ext/1664057780/sha256.o
 .comment       0x00000000       0x3d build/default/production/_ext/1664057780/sha512.o
 .comment       0x00000000       0x3d build/default/production/_ext/1664057780/misc.o
 .comment       0x00000000       0x3d build/default/production/_ext/1664057780/evp.o
 .comment       0x00000000       0x3d build/default/production/_ext/1645245335/crypto.o
 .comment       0x00000000       0x3d build/default/production/_ext/1171490990/freertos_hooks.o
 .comment       0x00000000       0x3d build/default/production/_ext/404212886/croutine.o
 .comment       0x00000000       0x3d build/default/production/_ext/404212886/list.o
 .comment       0x00000000       0x3d build/default/production/_ext/404212886/queue.o
 .comment       0x00000000       0x3d build/default/production/_ext/404212886/FreeRTOS_tasks.o
 .comment       0x00000000       0x3d build/default/production/_ext/404212886/timers.o
 .comment       0x00000000       0x3d build/default/production/_ext/404212886/event_groups.o
 .comment       0x00000000       0x3d build/default/production/_ext/404212886/stream_buffer.o
 .comment       0x00000000       0x3d build/default/production/_ext/1665200909/heap_1.o
 .comment       0x00000000       0x3d build/default/production/_ext/951553248/port.o
 .comment       0x00000000       0x3d c:/program files/microchip/xc32/v2.50/bin/bin/../../lib/gcc/pic32mx/4.8.3\libgcc.a(_udivdi3.o)
 .comment       0x0000003c       0x18 c:/program files/microchip/xc32/v2.50/bin/bin/../../lib/gcc/pic32mx/4.8.3/../../../../pic32mx/lib\libpic32.a(memcmp.o)
                                 0x19 (size before relaxing)
 .comment       0x00000054       0x18 c:/program files/microchip/xc32/v2.50/bin/bin/../../lib/gcc/pic32mx/4.8.3/../../../../pic32mx/lib\libpic32.a(memset.o)
                                 0x19 (size before relaxing)
 .comment       0x0000006c       0x19 c:/program files/microchip/xc32/v2.50/bin/bin/../../lib/gcc/pic32mx/4.8.3/../../../../pic32mx/lib\libpic32.a(strcmp.o)
                                 0x1a (size before relaxing)
 .comment       0x00000085       0x19 c:/program files/microchip/xc32/v2.50/bin/bin/../../lib/gcc/pic32mx/4.8.3/../../../../pic32mx/lib\libpic32.a(strcpy.o)
                                 0x1a (size before relaxing)
 .comment       0x0000009e       0x19 c:/program files/microchip/xc32/v2.50/bin/bin/../../lib/gcc/pic32mx/4.8.3/../../../../pic32mx/lib\libpic32.a(strlen.o)
                                 0x1a (size before relaxing)
 .comment       0x00000000       0x3d c:/program files/microchip/xc32/v2.50/bin/bin/../../lib/gcc/pic32mx/4.8.3/../../../../pic32mx/lib\libpic32.a(default-on-reset.o)
 .comment       0x00000000       0x3d c:/program files/microchip/xc32/v2.50/bin/bin/../../lib/gcc/pic32mx/4.8.3/../../../../pic32mx/lib\libpic32.a(default-on-bootstrap.o)
 .comment       0x00000000       0x3d c:/program files/microchip/xc32/v2.50/bin/bin/../../lib/gcc/pic32mx/4.8.3/../../../../pic32mx/lib\libpic32.a(defaultinterrupt.o)
 .comment       0x00000000       0x3d c:/program files/microchip/xc32/v2.50/bin/bin/../../lib/gcc/pic32mx/4.8.3/../../../../pic32mx/lib\libc.a(calloc.o)
 .comment       0x00000000       0x3d c:/program files/microchip/xc32/v2.50/bin/bin/../../lib/gcc/pic32mx/4.8.3/../../../../pic32mx/lib\libc.a(ctime.o)
 .comment       0x000000b7       0x4e c:/program files/microchip/xc32/v2.50/bin/bin/../../lib/gcc/pic32mx/4.8.3/../../../../pic32mx/lib\libc.a(ctype.o)
                                 0x8b (size before relaxing)
 .comment       0x00000105       0x4f c:/program files/microchip/xc32/v2.50/bin/bin/../../lib/gcc/pic32mx/4.8.3/../../../../pic32mx/lib\libc.a(ctypef.o)
                                 0x8c (size before relaxing)
 .comment       0x00000000       0x3d c:/program files/microchip/xc32/v2.50/bin/bin/../../lib/gcc/pic32mx/4.8.3/../../../../pic32mx/lib\libc.a(malloc.o)
 .comment       0x00000000       0x3d c:/program files/microchip/xc32/v2.50/bin/bin/../../lib/gcc/pic32mx/4.8.3/../../../../pic32mx/lib\libc.a(memmove.o)
 .comment       0x00000000       0x3d c:/program files/microchip/xc32/v2.50/bin/bin/../../lib/gcc/pic32mx/4.8.3/../../../../pic32mx/lib\libc.a(rand.o)
 .comment       0x00000000       0x3d c:/program files/microchip/xc32/v2.50/bin/bin/../../lib/gcc/pic32mx/4.8.3/../../../../pic32mx/lib\libc.a(strncmp.o)
 .comment       0x00000000       0x3d c:/program files/microchip/xc32/v2.50/bin/bin/../../lib/gcc/pic32mx/4.8.3/../../../../pic32mx/lib\libc.a(strncpy.o)
 .comment       0x00000000       0x3d c:/program files/microchip/xc32/v2.50/bin/bin/../../lib/gcc/pic32mx/4.8.3/../../../../pic32mx/lib\libc.a(strtol.o)
 .comment       0x00000000       0x3d c:/program files/microchip/xc32/v2.50/bin/bin/../../lib/gcc/pic32mx/4.8.3/../../../../pic32mx/lib\libc.a(time.o)
 .comment       0x00000000       0x3d c:/program files/microchip/xc32/v2.50/bin/bin/../../lib/gcc/pic32mx/4.8.3/../../../../pic32mx/lib\libc.a(snprintf_cdnopsuxX.eo)
 .comment       0x00000000       0x3d c:/program files/microchip/xc32/v2.50/bin/bin/../../lib/gcc/pic32mx/4.8.3/../../../../pic32mx/lib\libc.a(sprintf_cdnopuxX.eo)
 .comment       0x00000000       0x3d c:/program files/microchip/xc32/v2.50/bin/bin/../../lib/gcc/pic32mx/4.8.3/../../../../pic32mx/lib\libc.a(vsnprintf_cdnopsuxX.eo)
 .comment       0x00000000       0x3d c:/program files/microchip/xc32/v2.50/bin/bin/../../lib/gcc/pic32mx/4.8.3/../../../../pic32mx/lib\libc.a(errno.o)
 .comment       0x00000000       0x3d c:/program files/microchip/xc32/v2.50/bin/bin/../../lib/gcc/pic32mx/4.8.3/../../../../pic32mx/lib\libc.a(doprnt_cdnopsuxX.eo)
 .comment       0x00000000       0x3d c:/program files/microchip/xc32/v2.50/bin/bin/../../lib/gcc/pic32mx/4.8.3/../../../../pic32mx/lib\libc.a(_fputc_simple.o)
 .comment       0x00000000       0x3d c:/program files/microchip/xc32/v2.50/bin/bin/../../lib/gcc/pic32mx/4.8.3/../../../../pic32mx/lib\libc.a(_iob.o)
 .comment       0x00000000       0x3d c:/program files/microchip/xc32/v2.50/bin/bin/../../lib/gcc/pic32mx/4.8.3/../../../../pic32mx/lib\libc.a(_flsbuf_simple.o)
 .comment       0x00000000       0x3d c:/program files/microchip/xc32/v2.50/bin/bin/../../lib/gcc/pic32mx/4.8.3\libgcc.a(_umoddi3.o)
 .comment       0x00000154       0x4b c:/program files/microchip/xc32/v2.50/bin/bin/../../lib/gcc/pic32mx/4.8.3/../../../../pic32mx/lib\libpic32.a(sbrk.o)
                                 0x88 (size before relaxing)
 .comment       0x00000000       0x3d c:/program files/microchip/xc32/v2.50/bin/bin/../../lib/gcc/pic32mx/4.8.3/../../../../pic32mx/lib\libpic32.a(write.o)

.debug
 *.elf(.debug)
 *(.debug)

.line
 *.elf(.line)
 *(.line)

.debug_srcinfo
 *.elf(.debug_srcinfo)
 *(.debug_srcinfo)

.debug_sfnames
 *.elf(.debug_sfnames)
 *(.debug_sfnames)

.debug_aranges  0x00000000     0x42a0
 *.elf(.debug_aranges)
 *(.debug_aranges)
 .debug_aranges
                0x00000000       0x20 build/default/production/_ext/60165520/plib_clk.o
 .debug_aranges
                0x00000020       0x68 build/default/production/_ext/1865200349/plib_evic.o
 .debug_aranges
                0x00000088       0x60 build/default/production/_ext/1865254177/plib_gpio.o
 .debug_aranges
                0x000000e8       0x58 build/default/production/_ext/298189674/plib_spi4_master.o
 .debug_aranges
                0x00000140       0x28 build/default/production/_ext/163028504/xc32_monitor.o
 .debug_aranges
                0x00000168       0x28 build/default/production/_ext/1171490990/initialization.o
 .debug_aranges
                0x00000190       0x40 build/default/production/_ext/1171490990/interrupts.o
 .debug_aranges
                0x000001d0       0x28 build/default/production/_ext/1171490990/exceptions.o
 .debug_aranges
                0x000001f8       0x20 build/default/production/_ext/1360937237/main.o
 .debug_aranges
                0x00000218       0x70 build/default/production/_ext/60181895/plib_tmr2.o
 .debug_aranges
                0x00000288      0x188 build/default/production/_ext/732082881/drv_ethmac.o
 .debug_aranges
                0x00000410       0xe8 build/default/production/_ext/732082881/drv_ethmac_lib.o
 .debug_aranges
                0x000004f8      0x240 build/default/production/_ext/732082881/drv_eth_pic32_lib.o
 .debug_aranges
                0x00000738      0x238 build/default/production/_ext/1033058136/tcp.o
 .debug_aranges
                0x00000970      0x110 build/default/production/_ext/1033058136/arp.o
 .debug_aranges
                0x00000a80      0x130 build/default/production/_ext/101884895/sys_time.o
 .debug_aranges
                0x00000bb0       0x68 build/default/production/_ext/1249264884/plib_coretimer.o
 .debug_aranges
                0x00000c18       0x58 build/default/production/_ext/298189674/plib_spi1_master.o
 .debug_aranges
                0x00000c70       0xe8 build/default/production/_ext/1033058136/ipv4.o
 .debug_aranges
                0x00000d58      0x110 build/default/production/_ext/1033058136/dhcps.o
 .debug_aranges
                0x00000e68       0x48 build/default/production/_ext/1033058136/tcpip_heap_alloc.o
 .debug_aranges
                0x00000eb0       0x68 build/default/production/_ext/1033058136/tcpip_heap_internal.o
 .debug_aranges
                0x00000f18       0x50 build/default/production/_ext/1033058136/dhcp.o
 .debug_aranges
                0x00000f68       0x68 build/default/production/_ext/1033058136/dns.o
 .debug_aranges
                0x00000fd0       0x48 build/default/production/_ext/1033058136/helpers.o
 .debug_aranges
                0x00001018       0x28 build/default/production/_ext/1033058136/hash_fnv.o
 .debug_aranges
                0x00001040       0x50 build/default/production/_ext/1033058136/oahash.o
 .debug_aranges
                0x00001090      0x210 build/default/production/_ext/1033058136/tcpip_helpers.o
 .debug_aranges
                0x000012a0       0x20 build/default/production/_ext/1033058136/tcpip_helper_c32.o
 .debug_aranges
                0x000012c0      0x398 build/default/production/_ext/1033058136/tcpip_manager.o
 .debug_aranges
                0x00001658       0x48 build/default/production/_ext/1033058136/tcpip_notify.o
 .debug_aranges
                0x000016a0       0x80 build/default/production/_ext/1033058136/tcpip_packet.o
 .debug_aranges
                0x00001720       0x40 build/default/production/_ext/753841488/sys_time_h2_adapter.o
 .debug_aranges
                0x00001760       0x48 build/default/production/_ext/753841488/sys_random_h2_adapter.o
 .debug_aranges
                0x000017a8       0x40 build/default/production/_ext/1881668453/sys_int.o
 .debug_aranges
                0x000017e8       0x90 build/default/production/_ext/1529399856/osal_freertos.o
 .debug_aranges
                0x00001878       0x28 build/default/production/_ext/1360937237/app.o
 .debug_aranges
                0x000018a0       0x38 build/default/production/_ext/1171490990/tasks.o
 .debug_aranges
                0x000018d8       0x68 build/default/production/_ext/1171490990/interrupts_a.o
 .debug_aranges
                0x00001940       0x88 build/default/production/_ext/1033058136/tcpip_announce.o
 .debug_aranges
                0x000019c8      0x1c0 build/default/production/_ext/1033058136/udp.o
 .debug_aranges
                0x00001b88       0xe0 build/default/production/_ext/438849557/drv_miim.o
 .debug_aranges
                0x00001c68      0x240 build/default/production/_ext/444070925/drv_ethphy.o
 .debug_aranges
                0x00001ea8       0x30 build/default/production/_ext/444070925/drv_extphy_smsc8720.o
 .debug_aranges
                0x00001ed8       0x18 build/default/production/_ext/1664057780/arc4.o
 .debug_aranges
                0x00001ef0       0x18 build/default/production/_ext/1664057780/asm.o
 .debug_aranges
                0x00001f08      0x358 build/default/production/_ext/1664057780/asn.o
 .debug_aranges
                0x00002260       0x18 build/default/production/_ext/1664057780/blake2b.o
 .debug_aranges
                0x00002278       0x18 build/default/production/_ext/1664057780/blake2s.o
 .debug_aranges
                0x00002290       0x18 build/default/production/_ext/1664057780/camellia.o
 .debug_aranges
                0x000022a8       0x18 build/default/production/_ext/1664057780/chacha.o
 .debug_aranges
                0x000022c0       0x18 build/default/production/_ext/1664057780/chacha20_poly1305.o
 .debug_aranges
                0x000022d8       0x18 build/default/production/_ext/1664057780/cmac.o
 .debug_aranges
                0x000022f0       0x20 build/default/production/_ext/1664057780/coding.o
 .debug_aranges
                0x00002310       0x18 build/default/production/_ext/1664057780/compress.o
 .debug_aranges
                0x00002328       0x18 build/default/production/_ext/1664057780/cpuid.o
 .debug_aranges
                0x00002340       0xd8 build/default/production/_ext/1664057780/cryptocb.o
 .debug_aranges
                0x00002418       0x18 build/default/production/_ext/1664057780/curve25519.o
 .debug_aranges
                0x00002430       0x18 build/default/production/_ext/1664057780/curve448.o
 .debug_aranges
                0x00002448       0x18 build/default/production/_ext/1664057780/dh.o
 .debug_aranges
                0x00002460       0x18 build/default/production/_ext/1664057780/dsa.o
 .debug_aranges
                0x00002478      0x2c0 build/default/production/_ext/1664057780/ecc.o
 .debug_aranges
                0x00002738       0x18 build/default/production/_ext/1664057780/ed25519.o
 .debug_aranges
                0x00002750       0x18 build/default/production/_ext/1664057780/ed448.o
 .debug_aranges
                0x00002768       0x18 build/default/production/_ext/1664057780/error.o
 .debug_aranges
                0x00002780       0x18 build/default/production/_ext/1664057780/fe_448.o
 .debug_aranges
                0x00002798       0x18 build/default/production/_ext/1664057780/fe_low_mem.o
 .debug_aranges
                0x000027b0       0x18 build/default/production/_ext/1664057780/fe_operations.o
 .debug_aranges
                0x000027c8       0x18 build/default/production/_ext/1664057780/ge_448.o
 .debug_aranges
                0x000027e0       0x18 build/default/production/_ext/1664057780/ge_low_mem.o
 .debug_aranges
                0x000027f8       0x18 build/default/production/_ext/1664057780/ge_operations.o
 .debug_aranges
                0x00002810       0xa0 build/default/production/_ext/1664057780/hash.o
 .debug_aranges
                0x000028b0       0x18 build/default/production/_ext/1664057780/hc128.o
 .debug_aranges
                0x000028c8       0x60 build/default/production/_ext/1664057780/hmac.o
 .debug_aranges
                0x00002928       0x18 build/default/production/_ext/1664057780/idea.o
 .debug_aranges
                0x00002940       0x18 build/default/production/_ext/1664057780/integer.o
 .debug_aranges
                0x00002958       0x38 build/default/production/_ext/1664057780/logging.o
 .debug_aranges
                0x00002990       0x18 build/default/production/_ext/1664057780/md2.o
 .debug_aranges
                0x000029a8       0x18 build/default/production/_ext/1664057780/md4.o
 .debug_aranges
                0x000029c0       0x68 build/default/production/_ext/1664057780/md5.o
 .debug_aranges
                0x00002a28       0x18 build/default/production/_ext/1664057780/memory.o
 .debug_aranges
                0x00002a40       0x18 build/default/production/_ext/1664057780/pkcs12.o
 .debug_aranges
                0x00002a58       0x18 build/default/production/_ext/1664057780/pkcs7.o
 .debug_aranges
                0x00002a70       0x18 build/default/production/_ext/1664057780/poly1305.o
 .debug_aranges
                0x00002a88       0x18 build/default/production/_ext/1664057780/pwdbased.o
 .debug_aranges
                0x00002aa0       0x18 build/default/production/_ext/1664057780/rabbit.o
 .debug_aranges
                0x00002ab8       0x18 build/default/production/_ext/1664057780/rc2.o
 .debug_aranges
                0x00002ad0       0x18 build/default/production/_ext/1664057780/ripemd.o
 .debug_aranges
                0x00002ae8      0x100 build/default/production/_ext/1664057780/rsa.o
 .debug_aranges
                0x00002be8       0x18 build/default/production/_ext/1664057780/sha3.o
 .debug_aranges
                0x00002c00       0x18 build/default/production/_ext/1664057780/signature.o
 .debug_aranges
                0x00002c18       0x18 build/default/production/_ext/1664057780/sp_arm32.o
 .debug_aranges
                0x00002c30       0x18 build/default/production/_ext/1664057780/sp_arm64.o
 .debug_aranges
                0x00002c48       0x18 build/default/production/_ext/1664057780/sp_armthumb.o
 .debug_aranges
                0x00002c60       0x18 build/default/production/_ext/1664057780/sp_c32.o
 .debug_aranges
                0x00002c78       0x18 build/default/production/_ext/1664057780/sp_c64.o
 .debug_aranges
                0x00002c90       0x18 build/default/production/_ext/1664057780/sp_cortexm.o
 .debug_aranges
                0x00002ca8       0x18 build/default/production/_ext/1664057780/sp_dsp32.o
 .debug_aranges
                0x00002cc0       0x18 build/default/production/_ext/1664057780/sp_int.o
 .debug_aranges
                0x00002cd8       0x18 build/default/production/_ext/1664057780/sp_x86_64.o
 .debug_aranges
                0x00002cf0       0x18 build/default/production/_ext/1664057780/srp.o
 .debug_aranges
                0x00002d08      0x438 build/default/production/_ext/1664057780/tfm.o
 .debug_aranges
                0x00003140       0x18 build/default/production/_ext/1664057780/wc_dsp.o
 .debug_aranges
                0x00003158       0x48 build/default/production/_ext/1664057780/wc_encrypt.o
 .debug_aranges
                0x000031a0       0x18 build/default/production/_ext/1664057780/wc_pkcs11.o
 .debug_aranges
                0x000031b8       0x58 build/default/production/_ext/1664057780/wc_port.o
 .debug_aranges
                0x00003210       0x18 build/default/production/_ext/1664057780/wolfevent.o
 .debug_aranges
                0x00003228       0x40 build/default/production/_ext/1664057780/wolfmath.o
 .debug_aranges
                0x00003268       0x18 build/default/production/_ext/172253694/pic32mz-crypt.o
 .debug_aranges
                0x00003280       0x18 build/default/production/_ext/172253694/crypt_aes_sam6149.o
 .debug_aranges
                0x00003298       0x18 build/default/production/_ext/172253694/crypt_aes_u2238.o
 .debug_aranges
                0x000032b0       0x18 build/default/production/_ext/172253694/crypt_ecc_ba414e.o
 .debug_aranges
                0x000032c8       0x18 build/default/production/_ext/172253694/crypt_ecc_pukcl.o
 .debug_aranges
                0x000032e0       0x28 build/default/production/_ext/172253694/crypt_pukcl_functions.o
 .debug_aranges
                0x00003308       0x18 build/default/production/_ext/172253694/crypt_rng_sam6334.o
 .debug_aranges
                0x00003320       0x18 build/default/production/_ext/172253694/crypt_rng_u2242.o
 .debug_aranges
                0x00003338       0x18 build/default/production/_ext/172253694/crypt_rsa_pukcl.o
 .debug_aranges
                0x00003350       0x18 build/default/production/_ext/172253694/crypt_sam_u2803.o
 .debug_aranges
                0x00003368       0x18 build/default/production/_ext/172253694/crypt_sha1_sam11105.o
 .debug_aranges
                0x00003380       0x18 build/default/production/_ext/172253694/crypt_sha1_sam6156.o
 .debug_aranges
                0x00003398       0x18 build/default/production/_ext/172253694/crypt_sha224_sam11105.o
 .debug_aranges
                0x000033b0       0x18 build/default/production/_ext/172253694/crypt_sha224_sam6156.o
 .debug_aranges
                0x000033c8       0x18 build/default/production/_ext/172253694/crypt_sha256_sam11105.o
 .debug_aranges
                0x000033e0       0x18 build/default/production/_ext/172253694/crypt_sha256_sam6156.o
 .debug_aranges
                0x000033f8       0x18 build/default/production/_ext/172253694/crypt_sha384_sam6156.o
 .debug_aranges
                0x00003410       0x18 build/default/production/_ext/172253694/crypt_sha512_sam6156.o
 .debug_aranges
                0x00003428       0x18 build/default/production/_ext/172253694/crypt_tdes_sam6150.o
 .debug_aranges
                0x00003440       0x28 build/default/production/_ext/172253694/crypt_wolfcryptcb.o
 .debug_aranges
                0x00003468      0x138 build/default/production/_ext/1664057780/aes.o
 .debug_aranges
                0x000035a0       0x88 build/default/production/_ext/1664057780/des3.o
 .debug_aranges
                0x00003628       0xb8 build/default/production/_ext/1664057780/random.o
 .debug_aranges
                0x000036e0       0x70 build/default/production/_ext/1664057780/sha.o
 .debug_aranges
                0x00003750       0xb8 build/default/production/_ext/1664057780/sha256.o
 .debug_aranges
                0x00003808       0x18 build/default/production/_ext/1664057780/sha512.o
 .debug_aranges
                0x00003820       0x18 build/default/production/_ext/1664057780/misc.o
 .debug_aranges
                0x00003838       0x18 build/default/production/_ext/1664057780/evp.o
 .debug_aranges
                0x00003850      0x1d0 build/default/production/_ext/1645245335/crypto.o
 .debug_aranges
                0x00003a20       0x40 build/default/production/_ext/1171490990/freertos_hooks.o
 .debug_aranges
                0x00003a60       0x18 build/default/production/_ext/404212886/croutine.o
 .debug_aranges
                0x00003a78       0x40 build/default/production/_ext/404212886/list.o
 .debug_aranges
                0x00003ab8       0xc8 build/default/production/_ext/404212886/queue.o
 .debug_aranges
                0x00003b80      0x188 build/default/production/_ext/404212886/FreeRTOS_tasks.o
 .debug_aranges
                0x00003d08       0x18 build/default/production/_ext/404212886/timers.o
 .debug_aranges
                0x00003d20       0x60 build/default/production/_ext/404212886/event_groups.o
 .debug_aranges
                0x00003d80       0xb0 build/default/production/_ext/404212886/stream_buffer.o
 .debug_aranges
                0x00003e30       0x38 build/default/production/_ext/1665200909/heap_1.o
 .debug_aranges
                0x00003e68       0x58 build/default/production/_ext/951553248/port.o
 .debug_aranges
                0x00003ec0       0x20 build/default/production/_ext/951553248/port_asm.o
 .debug_aranges
                0x00003ee0       0x20 c:/program files/microchip/xc32/v2.50/bin/bin/../../lib/gcc/pic32mx/4.8.3\libgcc.a(_udivdi3.o)
 .debug_aranges
                0x00003f00       0x20 c:/program files/microchip/xc32/v2.50/bin/bin/../../lib/gcc/pic32mx/4.8.3/../../../../pic32mx/lib\libpic32.a(default-on-reset.o)
 .debug_aranges
                0x00003f20       0x20 c:/program files/microchip/xc32/v2.50/bin/bin/../../lib/gcc/pic32mx/4.8.3/../../../../pic32mx/lib\libpic32.a(default-on-bootstrap.o)
 .debug_aranges
                0x00003f40       0x20 c:/program files/microchip/xc32/v2.50/bin/bin/../../lib/gcc/pic32mx/4.8.3/../../../../pic32mx/lib\libpic32.a(defaultinterrupt.o)
 .debug_aranges
                0x00003f60       0x20 c:/program files/microchip/xc32/v2.50/bin/bin/../../lib/gcc/pic32mx/4.8.3/../../../../pic32mx/lib\libc.a(calloc.o)
 .debug_aranges
                0x00003f80       0x40 c:/program files/microchip/xc32/v2.50/bin/bin/../../lib/gcc/pic32mx/4.8.3/../../../../pic32mx/lib\libc.a(ctime.o)
 .debug_aranges
                0x00003fc0       0xa0 c:/program files/microchip/xc32/v2.50/bin/bin/../../lib/gcc/pic32mx/4.8.3/../../../../pic32mx/lib\libc.a(ctypef.o)
 .debug_aranges
                0x00004060       0x30 c:/program files/microchip/xc32/v2.50/bin/bin/../../lib/gcc/pic32mx/4.8.3/../../../../pic32mx/lib\libc.a(malloc.o)
 .debug_aranges
                0x00004090       0x20 c:/program files/microchip/xc32/v2.50/bin/bin/../../lib/gcc/pic32mx/4.8.3/../../../../pic32mx/lib\libc.a(memmove.o)
 .debug_aranges
                0x000040b0       0x28 c:/program files/microchip/xc32/v2.50/bin/bin/../../lib/gcc/pic32mx/4.8.3/../../../../pic32mx/lib\libc.a(rand.o)
 .debug_aranges
                0x000040d8       0x20 c:/program files/microchip/xc32/v2.50/bin/bin/../../lib/gcc/pic32mx/4.8.3/../../../../pic32mx/lib\libc.a(strncmp.o)
 .debug_aranges
                0x000040f8       0x20 c:/program files/microchip/xc32/v2.50/bin/bin/../../lib/gcc/pic32mx/4.8.3/../../../../pic32mx/lib\libc.a(strncpy.o)
 .debug_aranges
                0x00004118       0x28 c:/program files/microchip/xc32/v2.50/bin/bin/../../lib/gcc/pic32mx/4.8.3/../../../../pic32mx/lib\libc.a(strtol.o)
 .debug_aranges
                0x00004140       0x20 c:/program files/microchip/xc32/v2.50/bin/bin/../../lib/gcc/pic32mx/4.8.3/../../../../pic32mx/lib\libc.a(time.o)
 .debug_aranges
                0x00004160       0x20 c:/program files/microchip/xc32/v2.50/bin/bin/../../lib/gcc/pic32mx/4.8.3/../../../../pic32mx/lib\libc.a(snprintf_cdnopsuxX.eo)
 .debug_aranges
                0x00004180       0x20 c:/program files/microchip/xc32/v2.50/bin/bin/../../lib/gcc/pic32mx/4.8.3/../../../../pic32mx/lib\libc.a(sprintf_cdnopuxX.eo)
 .debug_aranges
                0x000041a0       0x20 c:/program files/microchip/xc32/v2.50/bin/bin/../../lib/gcc/pic32mx/4.8.3/../../../../pic32mx/lib\libc.a(vsnprintf_cdnopsuxX.eo)
 .debug_aranges
                0x000041c0       0x20 c:/program files/microchip/xc32/v2.50/bin/bin/../../lib/gcc/pic32mx/4.8.3/../../../../pic32mx/lib\libc.a(doprnt_cdnopsuxX.eo)
 .debug_aranges
                0x000041e0       0x20 c:/program files/microchip/xc32/v2.50/bin/bin/../../lib/gcc/pic32mx/4.8.3/../../../../pic32mx/lib\libc.a(_fputc_simple.o)
 .debug_aranges
                0x00004200       0x20 c:/program files/microchip/xc32/v2.50/bin/bin/../../lib/gcc/pic32mx/4.8.3/../../../../pic32mx/lib\libc.a(_flsbuf_simple.o)
 .debug_aranges
                0x00004220       0x20 c:/program files/microchip/xc32/v2.50/bin/bin/../../lib/gcc/pic32mx/4.8.3\libgcc.a(_umoddi3.o)
 .debug_aranges
                0x00004240       0x40 c:/program files/microchip/xc32/v2.50/bin/bin/../../lib/gcc/pic32mx/4.8.3/../../../../pic32mx/lib\libpic32.a(sbrk.o)
 .debug_aranges
                0x00004280       0x20 c:/program files/microchip/xc32/v2.50/bin/bin/../../lib/gcc/pic32mx/4.8.3/../../../../pic32mx/lib\libpic32.a(write.o)

.debug_pubnames
 *.elf(.debug_pubnames)
 *(.debug_pubnames)

.debug_info     0x00000000    0xde7a7
 *.elf(.debug_info .gnu.linkonce.wi.*)
 *(.debug_info .gnu.linkonce.wi.*)
 .debug_info    0x00000000      0x4fb build/default/production/_ext/60165520/plib_clk.o
 .debug_info    0x000004fb      0xdea build/default/production/_ext/1865200349/plib_evic.o
 .debug_info    0x000012e5      0x52d build/default/production/_ext/1865254177/plib_gpio.o
 .debug_info    0x00001812      0x96c build/default/production/_ext/298189674/plib_spi4_master.o
 .debug_info    0x0000217e      0x15a build/default/production/_ext/163028504/xc32_monitor.o
 .debug_info    0x000022d8     0x5eb3 build/default/production/_ext/1171490990/initialization.o
 .debug_info    0x0000818b      0x323 build/default/production/_ext/1171490990/interrupts.o
 .debug_info    0x000084ae      0x3b1 build/default/production/_ext/1171490990/exceptions.o
 .debug_info    0x0000885f      0x1fd build/default/production/_ext/1360937237/main.o
 .debug_info    0x00008a5c      0x943 build/default/production/_ext/60181895/plib_tmr2.o
 .debug_info    0x0000939f     0xb747 build/default/production/_ext/732082881/drv_ethmac.o
 .debug_info    0x00014ae6     0x970f build/default/production/_ext/732082881/drv_ethmac_lib.o
 .debug_info    0x0001e1f5     0x3d23 build/default/production/_ext/732082881/drv_eth_pic32_lib.o
 .debug_info    0x00021f18     0xb0c6 build/default/production/_ext/1033058136/tcp.o
 .debug_info    0x0002cfde     0x6a47 build/default/production/_ext/1033058136/arp.o
 .debug_info    0x00033a25     0x2b55 build/default/production/_ext/101884895/sys_time.o
 .debug_info    0x0003657a      0x973 build/default/production/_ext/1249264884/plib_coretimer.o
 .debug_info    0x00036eed      0x96c build/default/production/_ext/298189674/plib_spi1_master.o
 .debug_info    0x00037859     0x7622 build/default/production/_ext/1033058136/ipv4.o
 .debug_info    0x0003ee7b     0x7d79 build/default/production/_ext/1033058136/dhcps.o
 .debug_info    0x00046bf4      0xbf2 build/default/production/_ext/1033058136/tcpip_heap_alloc.o
 .debug_info    0x000477e6     0x1530 build/default/production/_ext/1033058136/tcpip_heap_internal.o
 .debug_info    0x00048d16      0x6ef build/default/production/_ext/1033058136/dhcp.o
 .debug_info    0x00049405      0xabd build/default/production/_ext/1033058136/dns.o
 .debug_info    0x00049ec2      0x542 build/default/production/_ext/1033058136/helpers.o
 .debug_info    0x0004a404      0x2b2 build/default/production/_ext/1033058136/hash_fnv.o
 .debug_info    0x0004a6b6      0x8d4 build/default/production/_ext/1033058136/oahash.o
 .debug_info    0x0004af8a     0x397b build/default/production/_ext/1033058136/tcpip_helpers.o
 .debug_info    0x0004e905       0xe1 build/default/production/_ext/1033058136/tcpip_helper_c32.o
 .debug_info    0x0004e9e6     0xaf34 build/default/production/_ext/1033058136/tcpip_manager.o
 .debug_info    0x0005991a      0xd80 build/default/production/_ext/1033058136/tcpip_notify.o
 .debug_info    0x0005a69a     0x3363 build/default/production/_ext/1033058136/tcpip_packet.o
 .debug_info    0x0005d9fd      0x59d build/default/production/_ext/753841488/sys_time_h2_adapter.o
 .debug_info    0x0005df9a      0x55f build/default/production/_ext/753841488/sys_random_h2_adapter.o
 .debug_info    0x0005e4f9      0xd31 build/default/production/_ext/1881668453/sys_int.o
 .debug_info    0x0005f22a      0xb1d build/default/production/_ext/1529399856/osal_freertos.o
 .debug_info    0x0005fd47      0xa52 build/default/production/_ext/1360937237/app.o
 .debug_info    0x00060799      0x648 build/default/production/_ext/1171490990/tasks.o
 .debug_info    0x00060de1       0xc7 build/default/production/_ext/1171490990/interrupts_a.o
 .debug_info    0x00060ea8     0x4e43 build/default/production/_ext/1033058136/tcpip_announce.o
 .debug_info    0x00065ceb     0x882a build/default/production/_ext/1033058136/udp.o
 .debug_info    0x0006e515     0x61cb build/default/production/_ext/438849557/drv_miim.o
 .debug_info    0x000746e0     0x6343 build/default/production/_ext/444070925/drv_ethphy.o
 .debug_info    0x0007aa23     0x18e6 build/default/production/_ext/444070925/drv_extphy_smsc8720.o
 .debug_info    0x0007c309      0x1a7 build/default/production/_ext/1664057780/arc4.o
 .debug_info    0x0007c4b0      0x1a6 build/default/production/_ext/1664057780/asm.o
 .debug_info    0x0007c656     0xe9c6 build/default/production/_ext/1664057780/asn.o
 .debug_info    0x0008b01c      0x1aa build/default/production/_ext/1664057780/blake2b.o
 .debug_info    0x0008b1c6      0x1aa build/default/production/_ext/1664057780/blake2s.o
 .debug_info    0x0008b370      0x1ab build/default/production/_ext/1664057780/camellia.o
 .debug_info    0x0008b51b      0x1a9 build/default/production/_ext/1664057780/chacha.o
 .debug_info    0x0008b6c4      0x1b4 build/default/production/_ext/1664057780/chacha20_poly1305.o
 .debug_info    0x0008b878      0x1a7 build/default/production/_ext/1664057780/cmac.o
 .debug_info    0x0008ba1f     0x1921 build/default/production/_ext/1664057780/coding.o
 .debug_info    0x0008d340      0x1ab build/default/production/_ext/1664057780/compress.o
 .debug_info    0x0008d4eb      0x1a8 build/default/production/_ext/1664057780/cpuid.o
 .debug_info    0x0008d693     0x3d8e build/default/production/_ext/1664057780/cryptocb.o
 .debug_info    0x00091421      0x1ad build/default/production/_ext/1664057780/curve25519.o
 .debug_info    0x000915ce      0x1ab build/default/production/_ext/1664057780/curve448.o
 .debug_info    0x00091779      0x1a5 build/default/production/_ext/1664057780/dh.o
 .debug_info    0x0009191e      0x1a6 build/default/production/_ext/1664057780/dsa.o
 .debug_info    0x00091ac4     0x9f61 build/default/production/_ext/1664057780/ecc.o
 .debug_info    0x0009ba25      0x1aa build/default/production/_ext/1664057780/ed25519.o
 .debug_info    0x0009bbcf      0x1a8 build/default/production/_ext/1664057780/ed448.o
 .debug_info    0x0009bd77      0x1a8 build/default/production/_ext/1664057780/error.o
 .debug_info    0x0009bf1f      0x1a9 build/default/production/_ext/1664057780/fe_448.o
 .debug_info    0x0009c0c8      0x1ad build/default/production/_ext/1664057780/fe_low_mem.o
 .debug_info    0x0009c275      0x1b0 build/default/production/_ext/1664057780/fe_operations.o
 .debug_info    0x0009c425      0x1a9 build/default/production/_ext/1664057780/ge_448.o
 .debug_info    0x0009c5ce      0x1ad build/default/production/_ext/1664057780/ge_low_mem.o
 .debug_info    0x0009c77b      0x1b0 build/default/production/_ext/1664057780/ge_operations.o
 .debug_info    0x0009c92b     0x22b9 build/default/production/_ext/1664057780/hash.o
 .debug_info    0x0009ebe4      0x1a8 build/default/production/_ext/1664057780/hc128.o
 .debug_info    0x0009ed8c     0x1fdc build/default/production/_ext/1664057780/hmac.o
 .debug_info    0x000a0d68      0x1a7 build/default/production/_ext/1664057780/idea.o
 .debug_info    0x000a0f0f      0x1aa build/default/production/_ext/1664057780/integer.o
 .debug_info    0x000a10b9      0xdc3 build/default/production/_ext/1664057780/logging.o
 .debug_info    0x000a1e7c      0x1a6 build/default/production/_ext/1664057780/md2.o
 .debug_info    0x000a2022      0x1a6 build/default/production/_ext/1664057780/md4.o
 .debug_info    0x000a21c8     0x1d45 build/default/production/_ext/1664057780/md5.o
 .debug_info    0x000a3f0d      0x1a9 build/default/production/_ext/1664057780/memory.o
 .debug_info    0x000a40b6      0x1a9 build/default/production/_ext/1664057780/pkcs12.o
 .debug_info    0x000a425f      0x1a8 build/default/production/_ext/1664057780/pkcs7.o
 .debug_info    0x000a4407      0x1ab build/default/production/_ext/1664057780/poly1305.o
 .debug_info    0x000a45b2      0x1ab build/default/production/_ext/1664057780/pwdbased.o
 .debug_info    0x000a475d      0x1a9 build/default/production/_ext/1664057780/rabbit.o
 .debug_info    0x000a4906      0x1a6 build/default/production/_ext/1664057780/rc2.o
 .debug_info    0x000a4aac      0x1a9 build/default/production/_ext/1664057780/ripemd.o
 .debug_info    0x000a4c55     0x495a build/default/production/_ext/1664057780/rsa.o
 .debug_info    0x000a95af      0x1a7 build/default/production/_ext/1664057780/sha3.o
 .debug_info    0x000a9756      0x1ac build/default/production/_ext/1664057780/signature.o
 .debug_info    0x000a9902      0x1ab build/default/production/_ext/1664057780/sp_arm32.o
 .debug_info    0x000a9aad      0x1ab build/default/production/_ext/1664057780/sp_arm64.o
 .debug_info    0x000a9c58      0x1ae build/default/production/_ext/1664057780/sp_armthumb.o
 .debug_info    0x000a9e06      0x1a9 build/default/production/_ext/1664057780/sp_c32.o
 .debug_info    0x000a9faf      0x1a9 build/default/production/_ext/1664057780/sp_c64.o
 .debug_info    0x000aa158      0x1ad build/default/production/_ext/1664057780/sp_cortexm.o
 .debug_info    0x000aa305      0x1ab build/default/production/_ext/1664057780/sp_dsp32.o
 .debug_info    0x000aa4b0      0x1a9 build/default/production/_ext/1664057780/sp_int.o
 .debug_info    0x000aa659      0x1ac build/default/production/_ext/1664057780/sp_x86_64.o
 .debug_info    0x000aa805      0x1a6 build/default/production/_ext/1664057780/srp.o
 .debug_info    0x000aa9ab     0x788f build/default/production/_ext/1664057780/tfm.o
 .debug_info    0x000b223a      0x1a9 build/default/production/_ext/1664057780/wc_dsp.o
 .debug_info    0x000b23e3     0x1973 build/default/production/_ext/1664057780/wc_encrypt.o
 .debug_info    0x000b3d56      0x1ac build/default/production/_ext/1664057780/wc_pkcs11.o
 .debug_info    0x000b3f02      0xc28 build/default/production/_ext/1664057780/wc_port.o
 .debug_info    0x000b4b2a      0x1ac build/default/production/_ext/1664057780/wolfevent.o
 .debug_info    0x000b4cd6     0x141b build/default/production/_ext/1664057780/wolfmath.o
 .debug_info    0x000b60f1      0x1bb build/default/production/_ext/172253694/pic32mz-crypt.o
 .debug_info    0x000b62ac      0x1bf build/default/production/_ext/172253694/crypt_aes_sam6149.o
 .debug_info    0x000b646b      0x1bd build/default/production/_ext/172253694/crypt_aes_u2238.o
 .debug_info    0x000b6628      0x1be build/default/production/_ext/172253694/crypt_ecc_ba414e.o
 .debug_info    0x000b67e6      0x1bd build/default/production/_ext/172253694/crypt_ecc_pukcl.o
 .debug_info    0x000b69a3     0x25d4 build/default/production/_ext/172253694/crypt_pukcl_functions.o
 .debug_info    0x000b8f77      0x1bf build/default/production/_ext/172253694/crypt_rng_sam6334.o
 .debug_info    0x000b9136      0x1bd build/default/production/_ext/172253694/crypt_rng_u2242.o
 .debug_info    0x000b92f3      0x1bd build/default/production/_ext/172253694/crypt_rsa_pukcl.o
 .debug_info    0x000b94b0      0x1bd build/default/production/_ext/172253694/crypt_sam_u2803.o
 .debug_info    0x000b966d      0x1c1 build/default/production/_ext/172253694/crypt_sha1_sam11105.o
 .debug_info    0x000b982e      0x1c0 build/default/production/_ext/172253694/crypt_sha1_sam6156.o
 .debug_info    0x000b99ee      0x1c3 build/default/production/_ext/172253694/crypt_sha224_sam11105.o
 .debug_info    0x000b9bb1      0x1c2 build/default/production/_ext/172253694/crypt_sha224_sam6156.o
 .debug_info    0x000b9d73      0x1c3 build/default/production/_ext/172253694/crypt_sha256_sam11105.o
 .debug_info    0x000b9f36      0x1c2 build/default/production/_ext/172253694/crypt_sha256_sam6156.o
 .debug_info    0x000ba0f8      0x1c2 build/default/production/_ext/172253694/crypt_sha384_sam6156.o
 .debug_info    0x000ba2ba      0x1c2 build/default/production/_ext/172253694/crypt_sha512_sam6156.o
 .debug_info    0x000ba47c      0x1c0 build/default/production/_ext/172253694/crypt_tdes_sam6150.o
 .debug_info    0x000ba63c     0x1fa3 build/default/production/_ext/172253694/crypt_wolfcryptcb.o
 .debug_info    0x000bc5df     0x5f79 build/default/production/_ext/1664057780/aes.o
 .debug_info    0x000c2558     0x29ae build/default/production/_ext/1664057780/des3.o
 .debug_info    0x000c4f06     0x3546 build/default/production/_ext/1664057780/random.o
 .debug_info    0x000c844c     0x38a6 build/default/production/_ext/1664057780/sha.o
 .debug_info    0x000cbcf2     0x316f build/default/production/_ext/1664057780/sha256.o
 .debug_info    0x000cee61      0x1a9 build/default/production/_ext/1664057780/sha512.o
 .debug_info    0x000cf00a      0x1a7 build/default/production/_ext/1664057780/misc.o
 .debug_info    0x000cf1b1      0x1a6 build/default/production/_ext/1664057780/evp.o
 .debug_info    0x000cf357     0x4066 build/default/production/_ext/1645245335/crypto.o
 .debug_info    0x000d33bd      0x396 build/default/production/_ext/1171490990/freertos_hooks.o
 .debug_info    0x000d3753      0x1a2 build/default/production/_ext/404212886/croutine.o
 .debug_info    0x000d38f5      0x4ab build/default/production/_ext/404212886/list.o
 .debug_info    0x000d3da0     0x1eef build/default/production/_ext/404212886/queue.o
 .debug_info    0x000d5c8f     0x2a9b build/default/production/_ext/404212886/FreeRTOS_tasks.o
 .debug_info    0x000d872a      0x1a0 build/default/production/_ext/404212886/timers.o
 .debug_info    0x000d88ca      0xd8e build/default/production/_ext/404212886/event_groups.o
 .debug_info    0x000d9658     0x18e7 build/default/production/_ext/404212886/stream_buffer.o
 .debug_info    0x000daf3f      0x3a6 build/default/production/_ext/1665200909/heap_1.o
 .debug_info    0x000db2e5     0x11ca build/default/production/_ext/951553248/port.o
 .debug_info    0x000dc4af       0xf0 build/default/production/_ext/951553248/port_asm.o
 .debug_info    0x000dc59f      0x74b c:/program files/microchip/xc32/v2.50/bin/bin/../../lib/gcc/pic32mx/4.8.3\libgcc.a(_udivdi3.o)
 .debug_info    0x000dccea       0xcd c:/program files/microchip/xc32/v2.50/bin/bin/../../lib/gcc/pic32mx/4.8.3/../../../../pic32mx/lib\libpic32.a(default-on-reset.o)
 .debug_info    0x000dcdb7       0xd5 c:/program files/microchip/xc32/v2.50/bin/bin/../../lib/gcc/pic32mx/4.8.3/../../../../pic32mx/lib\libpic32.a(default-on-bootstrap.o)
 .debug_info    0x000dce8c       0xe7 c:/program files/microchip/xc32/v2.50/bin/bin/../../lib/gcc/pic32mx/4.8.3/../../../../pic32mx/lib\libpic32.a(defaultinterrupt.o)
 .debug_info    0x000dcf73       0xc4 c:/program files/microchip/xc32/v2.50/bin/bin/../../lib/gcc/pic32mx/4.8.3/../../../../pic32mx/lib\libc.a(calloc.o)
 .debug_info    0x000dd037      0x132 c:/program files/microchip/xc32/v2.50/bin/bin/../../lib/gcc/pic32mx/4.8.3/../../../../pic32mx/lib\libc.a(ctime.o)
 .debug_info    0x000dd169      0x238 c:/program files/microchip/xc32/v2.50/bin/bin/../../lib/gcc/pic32mx/4.8.3/../../../../pic32mx/lib\libc.a(ctypef.o)
 .debug_info    0x000dd3a1       0xf5 c:/program files/microchip/xc32/v2.50/bin/bin/../../lib/gcc/pic32mx/4.8.3/../../../../pic32mx/lib\libc.a(malloc.o)
 .debug_info    0x000dd496       0xc6 c:/program files/microchip/xc32/v2.50/bin/bin/../../lib/gcc/pic32mx/4.8.3/../../../../pic32mx/lib\libc.a(memmove.o)
 .debug_info    0x000dd55c       0xdb c:/program files/microchip/xc32/v2.50/bin/bin/../../lib/gcc/pic32mx/4.8.3/../../../../pic32mx/lib\libc.a(rand.o)
 .debug_info    0x000dd637       0xc6 c:/program files/microchip/xc32/v2.50/bin/bin/../../lib/gcc/pic32mx/4.8.3/../../../../pic32mx/lib\libc.a(strncmp.o)
 .debug_info    0x000dd6fd       0xc6 c:/program files/microchip/xc32/v2.50/bin/bin/../../lib/gcc/pic32mx/4.8.3/../../../../pic32mx/lib\libc.a(strncpy.o)
 .debug_info    0x000dd7c3       0xdb c:/program files/microchip/xc32/v2.50/bin/bin/../../lib/gcc/pic32mx/4.8.3/../../../../pic32mx/lib\libc.a(strtol.o)
 .debug_info    0x000dd89e       0xc0 c:/program files/microchip/xc32/v2.50/bin/bin/../../lib/gcc/pic32mx/4.8.3/../../../../pic32mx/lib\libc.a(time.o)
 .debug_info    0x000dd95e       0xd3 c:/program files/microchip/xc32/v2.50/bin/bin/../../lib/gcc/pic32mx/4.8.3/../../../../pic32mx/lib\libc.a(snprintf_cdnopsuxX.eo)
 .debug_info    0x000dda31       0xd0 c:/program files/microchip/xc32/v2.50/bin/bin/../../lib/gcc/pic32mx/4.8.3/../../../../pic32mx/lib\libc.a(sprintf_cdnopuxX.eo)
 .debug_info    0x000ddb01       0xd5 c:/program files/microchip/xc32/v2.50/bin/bin/../../lib/gcc/pic32mx/4.8.3/../../../../pic32mx/lib\libc.a(vsnprintf_cdnopsuxX.eo)
 .debug_info    0x000ddbd6       0xd2 c:/program files/microchip/xc32/v2.50/bin/bin/../../lib/gcc/pic32mx/4.8.3/../../../../pic32mx/lib\libc.a(doprnt_cdnopsuxX.eo)
 .debug_info    0x000ddca8       0xc2 c:/program files/microchip/xc32/v2.50/bin/bin/../../lib/gcc/pic32mx/4.8.3/../../../../pic32mx/lib\libc.a(_fputc_simple.o)
 .debug_info    0x000ddd6a       0xc5 c:/program files/microchip/xc32/v2.50/bin/bin/../../lib/gcc/pic32mx/4.8.3/../../../../pic32mx/lib\libc.a(_flsbuf_simple.o)
 .debug_info    0x000dde2f      0x788 c:/program files/microchip/xc32/v2.50/bin/bin/../../lib/gcc/pic32mx/4.8.3\libgcc.a(_umoddi3.o)
 .debug_info    0x000de5b7      0x131 c:/program files/microchip/xc32/v2.50/bin/bin/../../lib/gcc/pic32mx/4.8.3/../../../../pic32mx/lib\libpic32.a(sbrk.o)
 .debug_info    0x000de6e8       0xbf c:/program files/microchip/xc32/v2.50/bin/bin/../../lib/gcc/pic32mx/4.8.3/../../../../pic32mx/lib\libpic32.a(write.o)

.debug_abbrev   0x00000000     0xc955
 *.elf(.debug_abbrev)
 *(.debug_abbrev)
 .debug_abbrev  0x00000000       0xa4 build/default/production/_ext/60165520/plib_clk.o
 .debug_abbrev  0x000000a4      0x10b build/default/production/_ext/1865200349/plib_evic.o
 .debug_abbrev  0x000001af       0xd7 build/default/production/_ext/1865254177/plib_gpio.o
 .debug_abbrev  0x00000286      0x219 build/default/production/_ext/298189674/plib_spi4_master.o
 .debug_abbrev  0x0000049f       0x66 build/default/production/_ext/163028504/xc32_monitor.o
 .debug_abbrev  0x00000505      0x323 build/default/production/_ext/1171490990/initialization.o
 .debug_abbrev  0x00000828       0x57 build/default/production/_ext/1171490990/interrupts.o
 .debug_abbrev  0x0000087f       0x6b build/default/production/_ext/1171490990/exceptions.o
 .debug_abbrev  0x000008ea       0x93 build/default/production/_ext/1360937237/main.o
 .debug_abbrev  0x0000097d      0x183 build/default/production/_ext/60181895/plib_tmr2.o
 .debug_abbrev  0x00000b00      0x553 build/default/production/_ext/732082881/drv_ethmac.o
 .debug_abbrev  0x00001053      0x4fc build/default/production/_ext/732082881/drv_ethmac_lib.o
 .debug_abbrev  0x0000154f      0x1b2 build/default/production/_ext/732082881/drv_eth_pic32_lib.o
 .debug_abbrev  0x00001701      0x5f6 build/default/production/_ext/1033058136/tcp.o
 .debug_abbrev  0x00001cf7      0x4de build/default/production/_ext/1033058136/arp.o
 .debug_abbrev  0x000021d5      0x4f4 build/default/production/_ext/101884895/sys_time.o
 .debug_abbrev  0x000026c9      0x1ce build/default/production/_ext/1249264884/plib_coretimer.o
 .debug_abbrev  0x00002897      0x219 build/default/production/_ext/298189674/plib_spi1_master.o
 .debug_abbrev  0x00002ab0      0x4c7 build/default/production/_ext/1033058136/ipv4.o
 .debug_abbrev  0x00002f77      0x5bd build/default/production/_ext/1033058136/dhcps.o
 .debug_abbrev  0x00003534      0x12f build/default/production/_ext/1033058136/tcpip_heap_alloc.o
 .debug_abbrev  0x00003663      0x306 build/default/production/_ext/1033058136/tcpip_heap_internal.o
 .debug_abbrev  0x00003969       0xdb build/default/production/_ext/1033058136/dhcp.o
 .debug_abbrev  0x00003a44      0x111 build/default/production/_ext/1033058136/dns.o
 .debug_abbrev  0x00003b55      0x173 build/default/production/_ext/1033058136/helpers.o
 .debug_abbrev  0x00003cc8       0xb5 build/default/production/_ext/1033058136/hash_fnv.o
 .debug_abbrev  0x00003d7d      0x277 build/default/production/_ext/1033058136/oahash.o
 .debug_abbrev  0x00003ff4      0x42f build/default/production/_ext/1033058136/tcpip_helpers.o
 .debug_abbrev  0x00004423       0x14 build/default/production/_ext/1033058136/tcpip_helper_c32.o
 .debug_abbrev  0x00004437      0x60c build/default/production/_ext/1033058136/tcpip_manager.o
 .debug_abbrev  0x00004a43      0x21b build/default/production/_ext/1033058136/tcpip_notify.o
 .debug_abbrev  0x00004c5e      0x403 build/default/production/_ext/1033058136/tcpip_packet.o
 .debug_abbrev  0x00005061      0x158 build/default/production/_ext/753841488/sys_time_h2_adapter.o
 .debug_abbrev  0x000051b9      0x17b build/default/production/_ext/753841488/sys_random_h2_adapter.o
 .debug_abbrev  0x00005334      0x184 build/default/production/_ext/1881668453/sys_int.o
 .debug_abbrev  0x000054b8      0x21c build/default/production/_ext/1529399856/osal_freertos.o
 .debug_abbrev  0x000056d4      0x173 build/default/production/_ext/1360937237/app.o
 .debug_abbrev  0x00005847      0x154 build/default/production/_ext/1171490990/tasks.o
 .debug_abbrev  0x0000599b       0x12 build/default/production/_ext/1171490990/interrupts_a.o
 .debug_abbrev  0x000059ad      0x43e build/default/production/_ext/1033058136/tcpip_announce.o
 .debug_abbrev  0x00005deb      0x588 build/default/production/_ext/1033058136/udp.o
 .debug_abbrev  0x00006373      0x593 build/default/production/_ext/438849557/drv_miim.o
 .debug_abbrev  0x00006906      0x470 build/default/production/_ext/444070925/drv_ethphy.o
 .debug_abbrev  0x00006d76      0x1c9 build/default/production/_ext/444070925/drv_extphy_smsc8720.o
 .debug_abbrev  0x00006f3f       0x1b build/default/production/_ext/1664057780/arc4.o
 .debug_abbrev  0x00006f5a       0x1b build/default/production/_ext/1664057780/asm.o
 .debug_abbrev  0x00006f75      0x545 build/default/production/_ext/1664057780/asn.o
 .debug_abbrev  0x000074ba       0x1b build/default/production/_ext/1664057780/blake2b.o
 .debug_abbrev  0x000074d5       0x1b build/default/production/_ext/1664057780/blake2s.o
 .debug_abbrev  0x000074f0       0x1b build/default/production/_ext/1664057780/camellia.o
 .debug_abbrev  0x0000750b       0x1b build/default/production/_ext/1664057780/chacha.o
 .debug_abbrev  0x00007526       0x1b build/default/production/_ext/1664057780/chacha20_poly1305.o
 .debug_abbrev  0x00007541       0x1b build/default/production/_ext/1664057780/cmac.o
 .debug_abbrev  0x0000755c      0x170 build/default/production/_ext/1664057780/coding.o
 .debug_abbrev  0x000076cc       0x1b build/default/production/_ext/1664057780/compress.o
 .debug_abbrev  0x000076e7       0x1b build/default/production/_ext/1664057780/cpuid.o
 .debug_abbrev  0x00007702      0x323 build/default/production/_ext/1664057780/cryptocb.o
 .debug_abbrev  0x00007a25       0x1b build/default/production/_ext/1664057780/curve25519.o
 .debug_abbrev  0x00007a40       0x1b build/default/production/_ext/1664057780/curve448.o
 .debug_abbrev  0x00007a5b       0x1b build/default/production/_ext/1664057780/dh.o
 .debug_abbrev  0x00007a76       0x1b build/default/production/_ext/1664057780/dsa.o
 .debug_abbrev  0x00007a91      0x3ea build/default/production/_ext/1664057780/ecc.o
 .debug_abbrev  0x00007e7b       0x1b build/default/production/_ext/1664057780/ed25519.o
 .debug_abbrev  0x00007e96       0x1b build/default/production/_ext/1664057780/ed448.o
 .debug_abbrev  0x00007eb1       0x1b build/default/production/_ext/1664057780/error.o
 .debug_abbrev  0x00007ecc       0x1b build/default/production/_ext/1664057780/fe_448.o
 .debug_abbrev  0x00007ee7       0x1b build/default/production/_ext/1664057780/fe_low_mem.o
 .debug_abbrev  0x00007f02       0x1b build/default/production/_ext/1664057780/fe_operations.o
 .debug_abbrev  0x00007f1d       0x1b build/default/production/_ext/1664057780/ge_448.o
 .debug_abbrev  0x00007f38       0x1b build/default/production/_ext/1664057780/ge_low_mem.o
 .debug_abbrev  0x00007f53       0x1b build/default/production/_ext/1664057780/ge_operations.o
 .debug_abbrev  0x00007f6e      0x21e build/default/production/_ext/1664057780/hash.o
 .debug_abbrev  0x0000818c       0x1b build/default/production/_ext/1664057780/hc128.o
 .debug_abbrev  0x000081a7      0x2ba build/default/production/_ext/1664057780/hmac.o
 .debug_abbrev  0x00008461       0x1b build/default/production/_ext/1664057780/idea.o
 .debug_abbrev  0x0000847c       0x1b build/default/production/_ext/1664057780/integer.o
 .debug_abbrev  0x00008497       0xc1 build/default/production/_ext/1664057780/logging.o
 .debug_abbrev  0x00008558       0x1b build/default/production/_ext/1664057780/md2.o
 .debug_abbrev  0x00008573       0x1b build/default/production/_ext/1664057780/md4.o
 .debug_abbrev  0x0000858e      0x274 build/default/production/_ext/1664057780/md5.o
 .debug_abbrev  0x00008802       0x1b build/default/production/_ext/1664057780/memory.o
 .debug_abbrev  0x0000881d       0x1b build/default/production/_ext/1664057780/pkcs12.o
 .debug_abbrev  0x00008838       0x1b build/default/production/_ext/1664057780/pkcs7.o
 .debug_abbrev  0x00008853       0x1b build/default/production/_ext/1664057780/poly1305.o
 .debug_abbrev  0x0000886e       0x1b build/default/production/_ext/1664057780/pwdbased.o
 .debug_abbrev  0x00008889       0x1b build/default/production/_ext/1664057780/rabbit.o
 .debug_abbrev  0x000088a4       0x1b build/default/production/_ext/1664057780/rc2.o
 .debug_abbrev  0x000088bf       0x1b build/default/production/_ext/1664057780/ripemd.o
 .debug_abbrev  0x000088da      0x358 build/default/production/_ext/1664057780/rsa.o
 .debug_abbrev  0x00008c32       0x1b build/default/production/_ext/1664057780/sha3.o
 .debug_abbrev  0x00008c4d       0x1b build/default/production/_ext/1664057780/signature.o
 .debug_abbrev  0x00008c68       0x1b build/default/production/_ext/1664057780/sp_arm32.o
 .debug_abbrev  0x00008c83       0x1b build/default/production/_ext/1664057780/sp_arm64.o
 .debug_abbrev  0x00008c9e       0x1b build/default/production/_ext/1664057780/sp_armthumb.o
 .debug_abbrev  0x00008cb9       0x1b build/default/production/_ext/1664057780/sp_c32.o
 .debug_abbrev  0x00008cd4       0x1b build/default/production/_ext/1664057780/sp_c64.o
 .debug_abbrev  0x00008cef       0x1b build/default/production/_ext/1664057780/sp_cortexm.o
 .debug_abbrev  0x00008d0a       0x1b build/default/production/_ext/1664057780/sp_dsp32.o
 .debug_abbrev  0x00008d25       0x1b build/default/production/_ext/1664057780/sp_int.o
 .debug_abbrev  0x00008d40       0x1b build/default/production/_ext/1664057780/sp_x86_64.o
 .debug_abbrev  0x00008d5b       0x1b build/default/production/_ext/1664057780/srp.o
 .debug_abbrev  0x00008d76      0x492 build/default/production/_ext/1664057780/tfm.o
 .debug_abbrev  0x00009208       0x1b build/default/production/_ext/1664057780/wc_dsp.o
 .debug_abbrev  0x00009223      0x18d build/default/production/_ext/1664057780/wc_encrypt.o
 .debug_abbrev  0x000093b0       0x1b build/default/production/_ext/1664057780/wc_pkcs11.o
 .debug_abbrev  0x000093cb      0x1bd build/default/production/_ext/1664057780/wc_port.o
 .debug_abbrev  0x00009588       0x1b build/default/production/_ext/1664057780/wolfevent.o
 .debug_abbrev  0x000095a3      0x1ac build/default/production/_ext/1664057780/wolfmath.o
 .debug_abbrev  0x0000974f       0x1b build/default/production/_ext/172253694/pic32mz-crypt.o
 .debug_abbrev  0x0000976a       0x1b build/default/production/_ext/172253694/crypt_aes_sam6149.o
 .debug_abbrev  0x00009785       0x1b build/default/production/_ext/172253694/crypt_aes_u2238.o
 .debug_abbrev  0x000097a0       0x1b build/default/production/_ext/172253694/crypt_ecc_ba414e.o
 .debug_abbrev  0x000097bb       0x1b build/default/production/_ext/172253694/crypt_ecc_pukcl.o
 .debug_abbrev  0x000097d6      0x14c build/default/production/_ext/172253694/crypt_pukcl_functions.o
 .debug_abbrev  0x00009922       0x1b build/default/production/_ext/172253694/crypt_rng_sam6334.o
 .debug_abbrev  0x0000993d       0x1b build/default/production/_ext/172253694/crypt_rng_u2242.o
 .debug_abbrev  0x00009958       0x1b build/default/production/_ext/172253694/crypt_rsa_pukcl.o
 .debug_abbrev  0x00009973       0x1b build/default/production/_ext/172253694/crypt_sam_u2803.o
 .debug_abbrev  0x0000998e       0x1b build/default/production/_ext/172253694/crypt_sha1_sam11105.o
 .debug_abbrev  0x000099a9       0x1b build/default/production/_ext/172253694/crypt_sha1_sam6156.o
 .debug_abbrev  0x000099c4       0x1b build/default/production/_ext/172253694/crypt_sha224_sam11105.o
 .debug_abbrev  0x000099df       0x1b build/default/production/_ext/172253694/crypt_sha224_sam6156.o
 .debug_abbrev  0x000099fa       0x1b build/default/production/_ext/172253694/crypt_sha256_sam11105.o
 .debug_abbrev  0x00009a15       0x1b build/default/production/_ext/172253694/crypt_sha256_sam6156.o
 .debug_abbrev  0x00009a30       0x1b build/default/production/_ext/172253694/crypt_sha384_sam6156.o
 .debug_abbrev  0x00009a4b       0x1b build/default/production/_ext/172253694/crypt_sha512_sam6156.o
 .debug_abbrev  0x00009a66       0x1b build/default/production/_ext/172253694/crypt_tdes_sam6150.o
 .debug_abbrev  0x00009a81      0x1e4 build/default/production/_ext/172253694/crypt_wolfcryptcb.o
 .debug_abbrev  0x00009c65      0x444 build/default/production/_ext/1664057780/aes.o
 .debug_abbrev  0x0000a0a9      0x2ce build/default/production/_ext/1664057780/des3.o
 .debug_abbrev  0x0000a377      0x391 build/default/production/_ext/1664057780/random.o
 .debug_abbrev  0x0000a708      0x2ad build/default/production/_ext/1664057780/sha.o
 .debug_abbrev  0x0000a9b5      0x31c build/default/production/_ext/1664057780/sha256.o
 .debug_abbrev  0x0000acd1       0x1b build/default/production/_ext/1664057780/sha512.o
 .debug_abbrev  0x0000acec       0x1b build/default/production/_ext/1664057780/misc.o
 .debug_abbrev  0x0000ad07       0x1b build/default/production/_ext/1664057780/evp.o
 .debug_abbrev  0x0000ad22      0x2ed build/default/production/_ext/1645245335/crypto.o
 .debug_abbrev  0x0000b00f       0xe1 build/default/production/_ext/1171490990/freertos_hooks.o
 .debug_abbrev  0x0000b0f0       0x1b build/default/production/_ext/404212886/croutine.o
 .debug_abbrev  0x0000b10b       0xf8 build/default/production/_ext/404212886/list.o
 .debug_abbrev  0x0000b203      0x353 build/default/production/_ext/404212886/queue.o
 .debug_abbrev  0x0000b556      0x37a build/default/production/_ext/404212886/FreeRTOS_tasks.o
 .debug_abbrev  0x0000b8d0       0x1b build/default/production/_ext/404212886/timers.o
 .debug_abbrev  0x0000b8eb      0x27d build/default/production/_ext/404212886/event_groups.o
 .debug_abbrev  0x0000bb68      0x348 build/default/production/_ext/404212886/stream_buffer.o
 .debug_abbrev  0x0000beb0      0x13f build/default/production/_ext/1665200909/heap_1.o
 .debug_abbrev  0x0000bfef      0x2cf build/default/production/_ext/951553248/port.o
 .debug_abbrev  0x0000c2be       0x14 build/default/production/_ext/951553248/port_asm.o
 .debug_abbrev  0x0000c2d2      0x138 c:/program files/microchip/xc32/v2.50/bin/bin/../../lib/gcc/pic32mx/4.8.3\libgcc.a(_udivdi3.o)
 .debug_abbrev  0x0000c40a       0x28 c:/program files/microchip/xc32/v2.50/bin/bin/../../lib/gcc/pic32mx/4.8.3/../../../../pic32mx/lib\libpic32.a(default-on-reset.o)
 .debug_abbrev  0x0000c432       0x28 c:/program files/microchip/xc32/v2.50/bin/bin/../../lib/gcc/pic32mx/4.8.3/../../../../pic32mx/lib\libpic32.a(default-on-bootstrap.o)
 .debug_abbrev  0x0000c45a       0x28 c:/program files/microchip/xc32/v2.50/bin/bin/../../lib/gcc/pic32mx/4.8.3/../../../../pic32mx/lib\libpic32.a(defaultinterrupt.o)
 .debug_abbrev  0x0000c482       0x28 c:/program files/microchip/xc32/v2.50/bin/bin/../../lib/gcc/pic32mx/4.8.3/../../../../pic32mx/lib\libc.a(calloc.o)
 .debug_abbrev  0x0000c4aa       0x7a c:/program files/microchip/xc32/v2.50/bin/bin/../../lib/gcc/pic32mx/4.8.3/../../../../pic32mx/lib\libc.a(ctime.o)
 .debug_abbrev  0x0000c524       0x28 c:/program files/microchip/xc32/v2.50/bin/bin/../../lib/gcc/pic32mx/4.8.3/../../../../pic32mx/lib\libc.a(ctypef.o)
 .debug_abbrev  0x0000c54c       0x47 c:/program files/microchip/xc32/v2.50/bin/bin/../../lib/gcc/pic32mx/4.8.3/../../../../pic32mx/lib\libc.a(malloc.o)
 .debug_abbrev  0x0000c593       0x28 c:/program files/microchip/xc32/v2.50/bin/bin/../../lib/gcc/pic32mx/4.8.3/../../../../pic32mx/lib\libc.a(memmove.o)
 .debug_abbrev  0x0000c5bb       0x47 c:/program files/microchip/xc32/v2.50/bin/bin/../../lib/gcc/pic32mx/4.8.3/../../../../pic32mx/lib\libc.a(rand.o)
 .debug_abbrev  0x0000c602       0x28 c:/program files/microchip/xc32/v2.50/bin/bin/../../lib/gcc/pic32mx/4.8.3/../../../../pic32mx/lib\libc.a(strncmp.o)
 .debug_abbrev  0x0000c62a       0x28 c:/program files/microchip/xc32/v2.50/bin/bin/../../lib/gcc/pic32mx/4.8.3/../../../../pic32mx/lib\libc.a(strncpy.o)
 .debug_abbrev  0x0000c652       0x28 c:/program files/microchip/xc32/v2.50/bin/bin/../../lib/gcc/pic32mx/4.8.3/../../../../pic32mx/lib\libc.a(strtol.o)
 .debug_abbrev  0x0000c67a       0x28 c:/program files/microchip/xc32/v2.50/bin/bin/../../lib/gcc/pic32mx/4.8.3/../../../../pic32mx/lib\libc.a(time.o)
 .debug_abbrev  0x0000c6a2       0x28 c:/program files/microchip/xc32/v2.50/bin/bin/../../lib/gcc/pic32mx/4.8.3/../../../../pic32mx/lib\libc.a(snprintf_cdnopsuxX.eo)
 .debug_abbrev  0x0000c6ca       0x28 c:/program files/microchip/xc32/v2.50/bin/bin/../../lib/gcc/pic32mx/4.8.3/../../../../pic32mx/lib\libc.a(sprintf_cdnopuxX.eo)
 .debug_abbrev  0x0000c6f2       0x28 c:/program files/microchip/xc32/v2.50/bin/bin/../../lib/gcc/pic32mx/4.8.3/../../../../pic32mx/lib\libc.a(vsnprintf_cdnopsuxX.eo)
 .debug_abbrev  0x0000c71a       0x28 c:/program files/microchip/xc32/v2.50/bin/bin/../../lib/gcc/pic32mx/4.8.3/../../../../pic32mx/lib\libc.a(doprnt_cdnopsuxX.eo)
 .debug_abbrev  0x0000c742       0x28 c:/program files/microchip/xc32/v2.50/bin/bin/../../lib/gcc/pic32mx/4.8.3/../../../../pic32mx/lib\libc.a(_fputc_simple.o)
 .debug_abbrev  0x0000c76a       0x28 c:/program files/microchip/xc32/v2.50/bin/bin/../../lib/gcc/pic32mx/4.8.3/../../../../pic32mx/lib\libc.a(_flsbuf_simple.o)
 .debug_abbrev  0x0000c792      0x147 c:/program files/microchip/xc32/v2.50/bin/bin/../../lib/gcc/pic32mx/4.8.3\libgcc.a(_umoddi3.o)
 .debug_abbrev  0x0000c8d9       0x54 c:/program files/microchip/xc32/v2.50/bin/bin/../../lib/gcc/pic32mx/4.8.3/../../../../pic32mx/lib\libpic32.a(sbrk.o)
 .debug_abbrev  0x0000c92d       0x28 c:/program files/microchip/xc32/v2.50/bin/bin/../../lib/gcc/pic32mx/4.8.3/../../../../pic32mx/lib\libpic32.a(write.o)

.debug_line     0x00000000    0x1f974
 *.elf(.debug_line)
 *(.debug_line)
 .debug_line    0x00000000      0x190 build/default/production/_ext/60165520/plib_clk.o
 .debug_line    0x00000190      0x24f build/default/production/_ext/1865200349/plib_evic.o
 .debug_line    0x000003df      0x231 build/default/production/_ext/1865254177/plib_gpio.o
 .debug_line    0x00000610      0x36e build/default/production/_ext/298189674/plib_spi4_master.o
 .debug_line    0x0000097e       0xde build/default/production/_ext/163028504/xc32_monitor.o
 .debug_line    0x00000a5c      0xcac build/default/production/_ext/1171490990/initialization.o
 .debug_line    0x00001708      0x111 build/default/production/_ext/1171490990/interrupts.o
 .debug_line    0x00001819      0x17f build/default/production/_ext/1171490990/exceptions.o
 .debug_line    0x00001998      0x14e build/default/production/_ext/1360937237/main.o
 .debug_line    0x00001ae6      0x258 build/default/production/_ext/60181895/plib_tmr2.o
 .debug_line    0x00001d3e      0xe55 build/default/production/_ext/732082881/drv_ethmac.o
 .debug_line    0x00002b93      0xc21 build/default/production/_ext/732082881/drv_ethmac_lib.o
 .debug_line    0x000037b4      0x654 build/default/production/_ext/732082881/drv_eth_pic32_lib.o
 .debug_line    0x00003e08     0x189b build/default/production/_ext/1033058136/tcp.o
 .debug_line    0x000056a3      0xbb6 build/default/production/_ext/1033058136/arp.o
 .debug_line    0x00006259      0x9bc build/default/production/_ext/101884895/sys_time.o
 .debug_line    0x00006c15      0x261 build/default/production/_ext/1249264884/plib_coretimer.o
 .debug_line    0x00006e76      0x36e build/default/production/_ext/298189674/plib_spi1_master.o
 .debug_line    0x000071e4      0xbca build/default/production/_ext/1033058136/ipv4.o
 .debug_line    0x00007dae      0xb35 build/default/production/_ext/1033058136/dhcps.o
 .debug_line    0x000088e3      0x23f build/default/production/_ext/1033058136/tcpip_heap_alloc.o
 .debug_line    0x00008b22      0x512 build/default/production/_ext/1033058136/tcpip_heap_internal.o
 .debug_line    0x00009034      0x242 build/default/production/_ext/1033058136/dhcp.o
 .debug_line    0x00009276      0x271 build/default/production/_ext/1033058136/dns.o
 .debug_line    0x000094e7      0x223 build/default/production/_ext/1033058136/helpers.o
 .debug_line    0x0000970a      0x192 build/default/production/_ext/1033058136/hash_fnv.o
 .debug_line    0x0000989c      0x241 build/default/production/_ext/1033058136/oahash.o
 .debug_line    0x00009add      0xc86 build/default/production/_ext/1033058136/tcpip_helpers.o
 .debug_line    0x0000a763      0x102 build/default/production/_ext/1033058136/tcpip_helper_c32.o
 .debug_line    0x0000a865     0x169d build/default/production/_ext/1033058136/tcpip_manager.o
 .debug_line    0x0000bf02      0x3e2 build/default/production/_ext/1033058136/tcpip_notify.o
 .debug_line    0x0000c2e4      0x53d build/default/production/_ext/1033058136/tcpip_packet.o
 .debug_line    0x0000c821      0x230 build/default/production/_ext/753841488/sys_time_h2_adapter.o
 .debug_line    0x0000ca51      0x280 build/default/production/_ext/753841488/sys_random_h2_adapter.o
 .debug_line    0x0000ccd1      0x21b build/default/production/_ext/1881668453/sys_int.o
 .debug_line    0x0000ceec      0x437 build/default/production/_ext/1529399856/osal_freertos.o
 .debug_line    0x0000d323      0x2d3 build/default/production/_ext/1360937237/app.o
 .debug_line    0x0000d5f6      0x600 build/default/production/_ext/1171490990/tasks.o
 .debug_line    0x0000dbf6      0x117 build/default/production/_ext/1171490990/interrupts_a.o
 .debug_line    0x0000dd0d      0x786 build/default/production/_ext/1033058136/tcpip_announce.o
 .debug_line    0x0000e493     0x102f build/default/production/_ext/1033058136/udp.o
 .debug_line    0x0000f4c2      0xb32 build/default/production/_ext/438849557/drv_miim.o
 .debug_line    0x0000fff4      0xf51 build/default/production/_ext/444070925/drv_ethphy.o
 .debug_line    0x00010f45      0x444 build/default/production/_ext/444070925/drv_extphy_smsc8720.o
 .debug_line    0x00011389       0x1d build/default/production/_ext/1664057780/arc4.o
 .debug_line    0x000113a6       0x1d build/default/production/_ext/1664057780/asm.o
 .debug_line    0x000113c3     0x19e1 build/default/production/_ext/1664057780/asn.o
 .debug_line    0x00012da4       0x1d build/default/production/_ext/1664057780/blake2b.o
 .debug_line    0x00012dc1       0x1d build/default/production/_ext/1664057780/blake2s.o
 .debug_line    0x00012dde       0x1d build/default/production/_ext/1664057780/camellia.o
 .debug_line    0x00012dfb       0x1d build/default/production/_ext/1664057780/chacha.o
 .debug_line    0x00012e18       0x1d build/default/production/_ext/1664057780/chacha20_poly1305.o
 .debug_line    0x00012e35       0x1d build/default/production/_ext/1664057780/cmac.o
 .debug_line    0x00012e52      0x2ed build/default/production/_ext/1664057780/coding.o
 .debug_line    0x0001313f       0x1d build/default/production/_ext/1664057780/compress.o
 .debug_line    0x0001315c       0x1d build/default/production/_ext/1664057780/cpuid.o
 .debug_line    0x00013179      0x599 build/default/production/_ext/1664057780/cryptocb.o
 .debug_line    0x00013712       0x1d build/default/production/_ext/1664057780/curve25519.o
 .debug_line    0x0001372f       0x1d build/default/production/_ext/1664057780/curve448.o
 .debug_line    0x0001374c       0x1d build/default/production/_ext/1664057780/dh.o
 .debug_line    0x00013769       0x1d build/default/production/_ext/1664057780/dsa.o
 .debug_line    0x00013786     0x11ab build/default/production/_ext/1664057780/ecc.o
 .debug_line    0x00014931        0x0 build/default/production/_ext/1664057780/ecc_fp.o
 .debug_line    0x00014931       0x1d build/default/production/_ext/1664057780/ed25519.o
 .debug_line    0x0001494e       0x1d build/default/production/_ext/1664057780/ed448.o
 .debug_line    0x0001496b       0x1d build/default/production/_ext/1664057780/error.o
 .debug_line    0x00014988       0x1d build/default/production/_ext/1664057780/fe_448.o
 .debug_line    0x000149a5       0x1d build/default/production/_ext/1664057780/fe_low_mem.o
 .debug_line    0x000149c2       0x1d build/default/production/_ext/1664057780/fe_operations.o
 .debug_line    0x000149df       0x1d build/default/production/_ext/1664057780/ge_448.o
 .debug_line    0x000149fc       0x1d build/default/production/_ext/1664057780/ge_low_mem.o
 .debug_line    0x00014a19       0x1d build/default/production/_ext/1664057780/ge_operations.o
 .debug_line    0x00014a36      0x3e3 build/default/production/_ext/1664057780/hash.o
 .debug_line    0x00014e19       0x1d build/default/production/_ext/1664057780/hc128.o
 .debug_line    0x00014e36      0x3a9 build/default/production/_ext/1664057780/hmac.o
 .debug_line    0x000151df       0x1d build/default/production/_ext/1664057780/idea.o
 .debug_line    0x000151fc       0x1d build/default/production/_ext/1664057780/integer.o
 .debug_line    0x00015219      0x1d3 build/default/production/_ext/1664057780/logging.o
 .debug_line    0x000153ec       0x1d build/default/production/_ext/1664057780/md2.o
 .debug_line    0x00015409       0x1d build/default/production/_ext/1664057780/md4.o
 .debug_line    0x00015426      0x67c build/default/production/_ext/1664057780/md5.o
 .debug_line    0x00015aa2       0x1d build/default/production/_ext/1664057780/memory.o
 .debug_line    0x00015abf       0x1d build/default/production/_ext/1664057780/pkcs12.o
 .debug_line    0x00015adc       0x1d build/default/production/_ext/1664057780/pkcs7.o
 .debug_line    0x00015af9       0x1d build/default/production/_ext/1664057780/poly1305.o
 .debug_line    0x00015b16       0x1d build/default/production/_ext/1664057780/pwdbased.o
 .debug_line    0x00015b33       0x1d build/default/production/_ext/1664057780/rabbit.o
 .debug_line    0x00015b50       0x1d build/default/production/_ext/1664057780/rc2.o
 .debug_line    0x00015b6d       0x1d build/default/production/_ext/1664057780/ripemd.o
 .debug_line    0x00015b8a      0x806 build/default/production/_ext/1664057780/rsa.o
 .debug_line    0x00016390       0x1d build/default/production/_ext/1664057780/sha3.o
 .debug_line    0x000163ad       0x1d build/default/production/_ext/1664057780/signature.o
 .debug_line    0x000163ca       0x1d build/default/production/_ext/1664057780/sp_arm32.o
 .debug_line    0x000163e7       0x1d build/default/production/_ext/1664057780/sp_arm64.o
 .debug_line    0x00016404       0x1d build/default/production/_ext/1664057780/sp_armthumb.o
 .debug_line    0x00016421       0x1d build/default/production/_ext/1664057780/sp_c32.o
 .debug_line    0x0001643e       0x1d build/default/production/_ext/1664057780/sp_c64.o
 .debug_line    0x0001645b       0x1d build/default/production/_ext/1664057780/sp_cortexm.o
 .debug_line    0x00016478       0x1d build/default/production/_ext/1664057780/sp_dsp32.o
 .debug_line    0x00016495       0x1d build/default/production/_ext/1664057780/sp_int.o
 .debug_line    0x000164b2       0x1d build/default/production/_ext/1664057780/sp_x86_64.o
 .debug_line    0x000164cf       0x1d build/default/production/_ext/1664057780/srp.o
 .debug_line    0x000164ec     0x14e4 build/default/production/_ext/1664057780/tfm.o
 .debug_line    0x000179d0       0x1d build/default/production/_ext/1664057780/wc_dsp.o
 .debug_line    0x000179ed      0x24f build/default/production/_ext/1664057780/wc_encrypt.o
 .debug_line    0x00017c3c       0x1d build/default/production/_ext/1664057780/wc_pkcs11.o
 .debug_line    0x00017c59      0x2d8 build/default/production/_ext/1664057780/wc_port.o
 .debug_line    0x00017f31       0x1d build/default/production/_ext/1664057780/wolfevent.o
 .debug_line    0x00017f4e      0x250 build/default/production/_ext/1664057780/wolfmath.o
 .debug_line    0x0001819e       0x1d build/default/production/_ext/172253694/pic32mz-crypt.o
 .debug_line    0x000181bb       0x1d build/default/production/_ext/172253694/crypt_aes_sam6149.o
 .debug_line    0x000181d8       0x1d build/default/production/_ext/172253694/crypt_aes_u2238.o
 .debug_line    0x000181f5       0x1d build/default/production/_ext/172253694/crypt_ecc_ba414e.o
 .debug_line    0x00018212       0x1d build/default/production/_ext/172253694/crypt_ecc_pukcl.o
 .debug_line    0x0001822f      0x56a build/default/production/_ext/172253694/crypt_pukcl_functions.o
 .debug_line    0x00018799       0x1d build/default/production/_ext/172253694/crypt_rng_sam6334.o
 .debug_line    0x000187b6       0x1d build/default/production/_ext/172253694/crypt_rng_u2242.o
 .debug_line    0x000187d3       0x1d build/default/production/_ext/172253694/crypt_rsa_pukcl.o
 .debug_line    0x000187f0       0x1d build/default/production/_ext/172253694/crypt_sam_u2803.o
 .debug_line    0x0001880d       0x1d build/default/production/_ext/172253694/crypt_sha1_sam11105.o
 .debug_line    0x0001882a       0x1d build/default/production/_ext/172253694/crypt_sha1_sam6156.o
 .debug_line    0x00018847       0x1d build/default/production/_ext/172253694/crypt_sha224_sam11105.o
 .debug_line    0x00018864       0x1d build/default/production/_ext/172253694/crypt_sha224_sam6156.o
 .debug_line    0x00018881       0x1d build/default/production/_ext/172253694/crypt_sha256_sam11105.o
 .debug_line    0x0001889e       0x1d build/default/production/_ext/172253694/crypt_sha256_sam6156.o
 .debug_line    0x000188bb       0x1d build/default/production/_ext/172253694/crypt_sha384_sam6156.o
 .debug_line    0x000188d8       0x1d build/default/production/_ext/172253694/crypt_sha512_sam6156.o
 .debug_line    0x000188f5       0x1d build/default/production/_ext/172253694/crypt_tdes_sam6150.o
 .debug_line    0x00018912      0x236 build/default/production/_ext/172253694/crypt_wolfcryptcb.o
 .debug_line    0x00018b48      0xf6f build/default/production/_ext/1664057780/aes.o
 .debug_line    0x00019ab7      0x5e5 build/default/production/_ext/1664057780/des3.o
 .debug_line    0x0001a09c      0x745 build/default/production/_ext/1664057780/random.o
 .debug_line    0x0001a7e1      0xea0 build/default/production/_ext/1664057780/sha.o
 .debug_line    0x0001b681      0x7cd build/default/production/_ext/1664057780/sha256.o
 .debug_line    0x0001be4e       0x1d build/default/production/_ext/1664057780/sha512.o
 .debug_line    0x0001be6b       0x1d build/default/production/_ext/1664057780/misc.o
 .debug_line    0x0001be88       0x1d build/default/production/_ext/1664057780/evp.o
 .debug_line    0x0001bea5      0x802 build/default/production/_ext/1645245335/crypto.o
 .debug_line    0x0001c6a7      0x2d3 build/default/production/_ext/1171490990/freertos_hooks.o
 .debug_line    0x0001c97a       0x1d build/default/production/_ext/404212886/croutine.o
 .debug_line    0x0001c997      0x2f5 build/default/production/_ext/404212886/list.o
 .debug_line    0x0001cc8c      0x635 build/default/production/_ext/404212886/queue.o
 .debug_line    0x0001d2c1      0x919 build/default/production/_ext/404212886/FreeRTOS_tasks.o
 .debug_line    0x0001dbda       0x1d build/default/production/_ext/404212886/timers.o
 .debug_line    0x0001dbf7      0x439 build/default/production/_ext/404212886/event_groups.o
 .debug_line    0x0001e030      0x552 build/default/production/_ext/404212886/stream_buffer.o
 .debug_line    0x0001e582      0x329 build/default/production/_ext/1665200909/heap_1.o
 .debug_line    0x0001e8ab      0x30c build/default/production/_ext/951553248/port.o
 .debug_line    0x0001ebb7       0xfc build/default/production/_ext/951553248/port_asm.o
 .debug_line    0x0001ecb3       0xf7 c:/program files/microchip/xc32/v2.50/bin/bin/../../lib/gcc/pic32mx/4.8.3\libgcc.a(_udivdi3.o)
 .debug_line    0x0001edaa       0x93 c:/program files/microchip/xc32/v2.50/bin/bin/../../lib/gcc/pic32mx/4.8.3/../../../../pic32mx/lib\libpic32.a(default-on-reset.o)
 .debug_line    0x0001ee3d       0x97 c:/program files/microchip/xc32/v2.50/bin/bin/../../lib/gcc/pic32mx/4.8.3/../../../../pic32mx/lib\libpic32.a(default-on-bootstrap.o)
 .debug_line    0x0001eed4       0xa5 c:/program files/microchip/xc32/v2.50/bin/bin/../../lib/gcc/pic32mx/4.8.3/../../../../pic32mx/lib\libpic32.a(defaultinterrupt.o)
 .debug_line    0x0001ef79       0x7e c:/program files/microchip/xc32/v2.50/bin/bin/../../lib/gcc/pic32mx/4.8.3/../../../../pic32mx/lib\libc.a(calloc.o)
 .debug_line    0x0001eff7       0x7d c:/program files/microchip/xc32/v2.50/bin/bin/../../lib/gcc/pic32mx/4.8.3/../../../../pic32mx/lib\libc.a(ctime.o)
 .debug_line    0x0001f074        0x0 c:/program files/microchip/xc32/v2.50/bin/bin/../../lib/gcc/pic32mx/4.8.3/../../../../pic32mx/lib\libc.a(ctype.o)
 .debug_line    0x0001f074       0x7e c:/program files/microchip/xc32/v2.50/bin/bin/../../lib/gcc/pic32mx/4.8.3/../../../../pic32mx/lib\libc.a(ctypef.o)
 .debug_line    0x0001f0f2       0x7e c:/program files/microchip/xc32/v2.50/bin/bin/../../lib/gcc/pic32mx/4.8.3/../../../../pic32mx/lib\libc.a(malloc.o)
 .debug_line    0x0001f170       0x7f c:/program files/microchip/xc32/v2.50/bin/bin/../../lib/gcc/pic32mx/4.8.3/../../../../pic32mx/lib\libc.a(memmove.o)
 .debug_line    0x0001f1ef       0x7c c:/program files/microchip/xc32/v2.50/bin/bin/../../lib/gcc/pic32mx/4.8.3/../../../../pic32mx/lib\libc.a(rand.o)
 .debug_line    0x0001f26b       0x7f c:/program files/microchip/xc32/v2.50/bin/bin/../../lib/gcc/pic32mx/4.8.3/../../../../pic32mx/lib\libc.a(strncmp.o)
 .debug_line    0x0001f2ea       0x7f c:/program files/microchip/xc32/v2.50/bin/bin/../../lib/gcc/pic32mx/4.8.3/../../../../pic32mx/lib\libc.a(strncpy.o)
 .debug_line    0x0001f369       0x7e c:/program files/microchip/xc32/v2.50/bin/bin/../../lib/gcc/pic32mx/4.8.3/../../../../pic32mx/lib\libc.a(strtol.o)
 .debug_line    0x0001f3e7       0x7c c:/program files/microchip/xc32/v2.50/bin/bin/../../lib/gcc/pic32mx/4.8.3/../../../../pic32mx/lib\libc.a(time.o)
 .debug_line    0x0001f463       0x80 c:/program files/microchip/xc32/v2.50/bin/bin/../../lib/gcc/pic32mx/4.8.3/../../../../pic32mx/lib\libc.a(snprintf_cdnopsuxX.eo)
 .debug_line    0x0001f4e3       0x7f c:/program files/microchip/xc32/v2.50/bin/bin/../../lib/gcc/pic32mx/4.8.3/../../../../pic32mx/lib\libc.a(sprintf_cdnopuxX.eo)
 .debug_line    0x0001f562       0x81 c:/program files/microchip/xc32/v2.50/bin/bin/../../lib/gcc/pic32mx/4.8.3/../../../../pic32mx/lib\libc.a(vsnprintf_cdnopsuxX.eo)
 .debug_line    0x0001f5e3        0x0 c:/program files/microchip/xc32/v2.50/bin/bin/../../lib/gcc/pic32mx/4.8.3/../../../../pic32mx/lib\libc.a(errno.o)
 .debug_line    0x0001f5e3       0x7e c:/program files/microchip/xc32/v2.50/bin/bin/../../lib/gcc/pic32mx/4.8.3/../../../../pic32mx/lib\libc.a(doprnt_cdnopsuxX.eo)
 .debug_line    0x0001f661       0x7d c:/program files/microchip/xc32/v2.50/bin/bin/../../lib/gcc/pic32mx/4.8.3/../../../../pic32mx/lib\libc.a(_fputc_simple.o)
 .debug_line    0x0001f6de        0x0 c:/program files/microchip/xc32/v2.50/bin/bin/../../lib/gcc/pic32mx/4.8.3/../../../../pic32mx/lib\libc.a(_iob.o)
 .debug_line    0x0001f6de       0x7e c:/program files/microchip/xc32/v2.50/bin/bin/../../lib/gcc/pic32mx/4.8.3/../../../../pic32mx/lib\libc.a(_flsbuf_simple.o)
 .debug_line    0x0001f75c      0x109 c:/program files/microchip/xc32/v2.50/bin/bin/../../lib/gcc/pic32mx/4.8.3\libgcc.a(_umoddi3.o)
 .debug_line    0x0001f865       0x87 c:/program files/microchip/xc32/v2.50/bin/bin/../../lib/gcc/pic32mx/4.8.3/../../../../pic32mx/lib\libpic32.a(sbrk.o)
 .debug_line    0x0001f8ec       0x88 c:/program files/microchip/xc32/v2.50/bin/bin/../../lib/gcc/pic32mx/4.8.3/../../../../pic32mx/lib\libpic32.a(write.o)

.debug_frame    0x00000000     0xb7b0
 *.elf(.debug_frame)
 *(.debug_frame)
 .debug_frame   0x00000000       0x20 build/default/production/_ext/60165520/plib_clk.o
 .debug_frame   0x00000020       0xd4 build/default/production/_ext/1865200349/plib_evic.o
 .debug_frame   0x000000f4       0xa0 build/default/production/_ext/1865254177/plib_gpio.o
 .debug_frame   0x00000194       0xb4 build/default/production/_ext/298189674/plib_spi4_master.o
 .debug_frame   0x00000248       0x30 build/default/production/_ext/163028504/xc32_monitor.o
 .debug_frame   0x00000278       0x4c build/default/production/_ext/1171490990/initialization.o
 .debug_frame   0x000002c4       0x9c build/default/production/_ext/1171490990/interrupts.o
 .debug_frame   0x00000360       0x40 build/default/production/_ext/1171490990/exceptions.o
 .debug_frame   0x000003a0       0x28 build/default/production/_ext/1360937237/main.o
 .debug_frame   0x000003c8       0xcc build/default/production/_ext/60181895/plib_tmr2.o
 .debug_frame   0x00000494      0x55c build/default/production/_ext/732082881/drv_ethmac.o
 .debug_frame   0x000009f0      0x2f8 build/default/production/_ext/732082881/drv_ethmac_lib.o
 .debug_frame   0x00000ce8      0x460 build/default/production/_ext/732082881/drv_eth_pic32_lib.o
 .debug_frame   0x00001148      0x834 build/default/production/_ext/1033058136/tcp.o
 .debug_frame   0x0000197c      0x448 build/default/production/_ext/1033058136/arp.o
 .debug_frame   0x00001dc4      0x3e4 build/default/production/_ext/101884895/sys_time.o
 .debug_frame   0x000021a8      0x110 build/default/production/_ext/1249264884/plib_coretimer.o
 .debug_frame   0x000022b8       0xb4 build/default/production/_ext/298189674/plib_spi1_master.o
 .debug_frame   0x0000236c      0x32c build/default/production/_ext/1033058136/ipv4.o
 .debug_frame   0x00002698      0x3c8 build/default/production/_ext/1033058136/dhcps.o
 .debug_frame   0x00002a60       0xa8 build/default/production/_ext/1033058136/tcpip_heap_alloc.o
 .debug_frame   0x00002b08      0x120 build/default/production/_ext/1033058136/tcpip_heap_internal.o
 .debug_frame   0x00002c28       0x80 build/default/production/_ext/1033058136/dhcp.o
 .debug_frame   0x00002ca8       0xb0 build/default/production/_ext/1033058136/dns.o
 .debug_frame   0x00002d58       0x9c build/default/production/_ext/1033058136/helpers.o
 .debug_frame   0x00002df4       0x30 build/default/production/_ext/1033058136/hash_fnv.o
 .debug_frame   0x00002e24       0xc0 build/default/production/_ext/1033058136/oahash.o
 .debug_frame   0x00002ee4      0x6ec build/default/production/_ext/1033058136/tcpip_helpers.o
 .debug_frame   0x000035d0      0xabc build/default/production/_ext/1033058136/tcpip_manager.o
 .debug_frame   0x0000408c       0xd0 build/default/production/_ext/1033058136/tcpip_notify.o
 .debug_frame   0x0000415c      0x170 build/default/production/_ext/1033058136/tcpip_packet.o
 .debug_frame   0x000042cc       0x9c build/default/production/_ext/753841488/sys_time_h2_adapter.o
 .debug_frame   0x00004368       0xb0 build/default/production/_ext/753841488/sys_random_h2_adapter.o
 .debug_frame   0x00004418       0xa0 build/default/production/_ext/1881668453/sys_int.o
 .debug_frame   0x000044b8      0x1ac build/default/production/_ext/1529399856/osal_freertos.o
 .debug_frame   0x00004664       0x44 build/default/production/_ext/1360937237/app.o
 .debug_frame   0x000046a8       0x74 build/default/production/_ext/1171490990/tasks.o
 .debug_frame   0x0000471c      0x1a0 build/default/production/_ext/1033058136/tcpip_announce.o
 .debug_frame   0x000048bc      0x6d4 build/default/production/_ext/1033058136/udp.o
 .debug_frame   0x00004f90      0x2f0 build/default/production/_ext/438849557/drv_miim.o
 .debug_frame   0x00005280      0x724 build/default/production/_ext/444070925/drv_ethphy.o
 .debug_frame   0x000059a4       0x54 build/default/production/_ext/444070925/drv_extphy_smsc8720.o
 .debug_frame   0x000059f8      0xd30 build/default/production/_ext/1664057780/asn.o
 .debug_frame   0x00006728       0x60 build/default/production/_ext/1664057780/coding.o
 .debug_frame   0x00006788      0x358 build/default/production/_ext/1664057780/cryptocb.o
 .debug_frame   0x00006ae0      0xb34 build/default/production/_ext/1664057780/ecc.o
 .debug_frame   0x00007614      0x1d8 build/default/production/_ext/1664057780/hash.o
 .debug_frame   0x000077ec      0x118 build/default/production/_ext/1664057780/hmac.o
 .debug_frame   0x00007904       0x50 build/default/production/_ext/1664057780/logging.o
 .debug_frame   0x00007954      0x12c build/default/production/_ext/1664057780/md5.o
 .debug_frame   0x00007a80      0x3d0 build/default/production/_ext/1664057780/rsa.o
 .debug_frame   0x00007e50      0xefc build/default/production/_ext/1664057780/tfm.o
 .debug_frame   0x00008d4c       0xf8 build/default/production/_ext/1664057780/wc_encrypt.o
 .debug_frame   0x00008e44       0xc0 build/default/production/_ext/1664057780/wc_port.o
 .debug_frame   0x00008f04       0x98 build/default/production/_ext/1664057780/wolfmath.o
 .debug_frame   0x00008f9c       0x50 build/default/production/_ext/172253694/crypt_pukcl_functions.o
 .debug_frame   0x00008fec       0x3c build/default/production/_ext/172253694/crypt_wolfcryptcb.o
 .debug_frame   0x00009028      0x508 build/default/production/_ext/1664057780/aes.o
 .debug_frame   0x00009530      0x1c8 build/default/production/_ext/1664057780/des3.o
 .debug_frame   0x000096f8      0x294 build/default/production/_ext/1664057780/random.o
 .debug_frame   0x0000998c      0x148 build/default/production/_ext/1664057780/sha.o
 .debug_frame   0x00009ad4      0x220 build/default/production/_ext/1664057780/sha256.o
 .debug_frame   0x00009cf4      0x728 build/default/production/_ext/1645245335/crypto.o
 .debug_frame   0x0000a41c       0x7c build/default/production/_ext/1171490990/freertos_hooks.o
 .debug_frame   0x0000a498       0x60 build/default/production/_ext/404212886/list.o
 .debug_frame   0x0000a4f8      0x2c4 build/default/production/_ext/404212886/queue.o
 .debug_frame   0x0000a7bc      0x520 build/default/production/_ext/404212886/FreeRTOS_tasks.o
 .debug_frame   0x0000acdc      0x130 build/default/production/_ext/404212886/event_groups.o
 .debug_frame   0x0000ae0c      0x250 build/default/production/_ext/404212886/stream_buffer.o
 .debug_frame   0x0000b05c       0x60 build/default/production/_ext/1665200909/heap_1.o
 .debug_frame   0x0000b0bc       0xd0 build/default/production/_ext/951553248/port.o
 .debug_frame   0x0000b18c       0x20 c:/program files/microchip/xc32/v2.50/bin/bin/../../lib/gcc/pic32mx/4.8.3\libgcc.a(_udivdi3.o)
 .debug_frame   0x0000b1ac       0x20 c:/program files/microchip/xc32/v2.50/bin/bin/../../lib/gcc/pic32mx/4.8.3/../../../../pic32mx/lib\libpic32.a(default-on-reset.o)
 .debug_frame   0x0000b1cc       0x20 c:/program files/microchip/xc32/v2.50/bin/bin/../../lib/gcc/pic32mx/4.8.3/../../../../pic32mx/lib\libpic32.a(default-on-bootstrap.o)
 .debug_frame   0x0000b1ec       0x20 c:/program files/microchip/xc32/v2.50/bin/bin/../../lib/gcc/pic32mx/4.8.3/../../../../pic32mx/lib\libpic32.a(defaultinterrupt.o)
 .debug_frame   0x0000b20c       0x2c c:/program files/microchip/xc32/v2.50/bin/bin/../../lib/gcc/pic32mx/4.8.3/../../../../pic32mx/lib\libc.a(calloc.o)
 .debug_frame   0x0000b238       0x88 c:/program files/microchip/xc32/v2.50/bin/bin/../../lib/gcc/pic32mx/4.8.3/../../../../pic32mx/lib\libc.a(ctime.o)
 .debug_frame   0x0000b2c0      0x120 c:/program files/microchip/xc32/v2.50/bin/bin/../../lib/gcc/pic32mx/4.8.3/../../../../pic32mx/lib\libc.a(ctypef.o)
 .debug_frame   0x0000b3e0       0x7c c:/program files/microchip/xc32/v2.50/bin/bin/../../lib/gcc/pic32mx/4.8.3/../../../../pic32mx/lib\libc.a(malloc.o)
 .debug_frame   0x0000b45c       0x20 c:/program files/microchip/xc32/v2.50/bin/bin/../../lib/gcc/pic32mx/4.8.3/../../../../pic32mx/lib\libc.a(memmove.o)
 .debug_frame   0x0000b47c       0x30 c:/program files/microchip/xc32/v2.50/bin/bin/../../lib/gcc/pic32mx/4.8.3/../../../../pic32mx/lib\libc.a(rand.o)
 .debug_frame   0x0000b4ac       0x20 c:/program files/microchip/xc32/v2.50/bin/bin/../../lib/gcc/pic32mx/4.8.3/../../../../pic32mx/lib\libc.a(strncmp.o)
 .debug_frame   0x0000b4cc       0x20 c:/program files/microchip/xc32/v2.50/bin/bin/../../lib/gcc/pic32mx/4.8.3/../../../../pic32mx/lib\libc.a(strncpy.o)
 .debug_frame   0x0000b4ec       0x78 c:/program files/microchip/xc32/v2.50/bin/bin/../../lib/gcc/pic32mx/4.8.3/../../../../pic32mx/lib\libc.a(strtol.o)
 .debug_frame   0x0000b564       0x20 c:/program files/microchip/xc32/v2.50/bin/bin/../../lib/gcc/pic32mx/4.8.3/../../../../pic32mx/lib\libc.a(time.o)
 .debug_frame   0x0000b584       0x2c c:/program files/microchip/xc32/v2.50/bin/bin/../../lib/gcc/pic32mx/4.8.3/../../../../pic32mx/lib\libc.a(snprintf_cdnopsuxX.eo)
 .debug_frame   0x0000b5b0       0x2c c:/program files/microchip/xc32/v2.50/bin/bin/../../lib/gcc/pic32mx/4.8.3/../../../../pic32mx/lib\libc.a(sprintf_cdnopuxX.eo)
 .debug_frame   0x0000b5dc       0x30 c:/program files/microchip/xc32/v2.50/bin/bin/../../lib/gcc/pic32mx/4.8.3/../../../../pic32mx/lib\libc.a(vsnprintf_cdnopsuxX.eo)
 .debug_frame   0x0000b60c       0x40 c:/program files/microchip/xc32/v2.50/bin/bin/../../lib/gcc/pic32mx/4.8.3/../../../../pic32mx/lib\libc.a(doprnt_cdnopsuxX.eo)
 .debug_frame   0x0000b64c       0x30 c:/program files/microchip/xc32/v2.50/bin/bin/../../lib/gcc/pic32mx/4.8.3/../../../../pic32mx/lib\libc.a(_fputc_simple.o)
 .debug_frame   0x0000b67c       0x38 c:/program files/microchip/xc32/v2.50/bin/bin/../../lib/gcc/pic32mx/4.8.3/../../../../pic32mx/lib\libc.a(_flsbuf_simple.o)
 .debug_frame   0x0000b6b4       0x20 c:/program files/microchip/xc32/v2.50/bin/bin/../../lib/gcc/pic32mx/4.8.3\libgcc.a(_umoddi3.o)
 .debug_frame   0x0000b6d4       0xa4 c:/program files/microchip/xc32/v2.50/bin/bin/../../lib/gcc/pic32mx/4.8.3/../../../../pic32mx/lib\libpic32.a(sbrk.o)
 .debug_frame   0x0000b778       0x38 c:/program files/microchip/xc32/v2.50/bin/bin/../../lib/gcc/pic32mx/4.8.3/../../../../pic32mx/lib\libpic32.a(write.o)

.debug_str      0x00000000     0x2715
 *.elf(.debug_str)
 *(.debug_str)
 .debug_str     0x00000000        0x0 build/default/production/_ext/60165520/plib_clk.o
 .debug_str     0x00000000        0x7 build/default/production/_ext/1865200349/plib_evic.o
 .debug_str     0x00000007        0xa build/default/production/_ext/1865254177/plib_gpio.o
 .debug_str     0x00000011       0x32 build/default/production/_ext/298189674/plib_spi4_master.o
 .debug_str     0x00000043        0x0 build/default/production/_ext/163028504/xc32_monitor.o
 .debug_str     0x00000043       0xd3 build/default/production/_ext/1171490990/initialization.o
 .debug_str     0x00000116        0x0 build/default/production/_ext/1171490990/interrupts.o
 .debug_str     0x00000116        0x0 build/default/production/_ext/1171490990/exceptions.o
 .debug_str     0x00000116        0x0 build/default/production/_ext/1360937237/main.o
 .debug_str     0x00000116        0xc build/default/production/_ext/60181895/plib_tmr2.o
 .debug_str     0x00000122      0x187 build/default/production/_ext/732082881/drv_ethmac.o
 .debug_str     0x000002a9      0x103 build/default/production/_ext/732082881/drv_ethmac_lib.o
 .debug_str     0x000003ac       0x40 build/default/production/_ext/732082881/drv_eth_pic32_lib.o
 .debug_str     0x000003ec      0x1d7 build/default/production/_ext/1033058136/tcp.o
 .debug_str     0x000005c3       0xd8 build/default/production/_ext/1033058136/arp.o
 .debug_str     0x0000069b      0x102 build/default/production/_ext/101884895/sys_time.o
 .debug_str     0x0000079d       0x1d build/default/production/_ext/1249264884/plib_coretimer.o
 .debug_str     0x000007ba       0x32 build/default/production/_ext/298189674/plib_spi1_master.o
 .debug_str     0x000007ec      0x145 build/default/production/_ext/1033058136/ipv4.o
 .debug_str     0x00000931      0x1a1 build/default/production/_ext/1033058136/dhcps.o
 .debug_str     0x00000ad2       0x3c build/default/production/_ext/1033058136/tcpip_heap_alloc.o
 .debug_str     0x00000b0e       0x38 build/default/production/_ext/1033058136/tcpip_heap_internal.o
 .debug_str     0x00000b46        0x5 build/default/production/_ext/1033058136/dhcp.o
 .debug_str     0x00000b4b        0x9 build/default/production/_ext/1033058136/dns.o
 .debug_str     0x00000b54        0x0 build/default/production/_ext/1033058136/helpers.o
 .debug_str     0x00000b54        0x0 build/default/production/_ext/1033058136/hash_fnv.o
 .debug_str     0x00000b54        0xa build/default/production/_ext/1033058136/oahash.o
 .debug_str     0x00000b5e       0x8e build/default/production/_ext/1033058136/tcpip_helpers.o
 .debug_str     0x00000bec      0x2a6 build/default/production/_ext/1033058136/tcpip_manager.o
 .debug_str     0x00000e92       0x11 build/default/production/_ext/1033058136/tcpip_notify.o
 .debug_str     0x00000ea3       0x36 build/default/production/_ext/1033058136/tcpip_packet.o
 .debug_str     0x00000ed9        0x9 build/default/production/_ext/753841488/sys_time_h2_adapter.o
 .debug_str     0x00000ee2        0xe build/default/production/_ext/753841488/sys_random_h2_adapter.o
 .debug_str     0x00000ef0        0x0 build/default/production/_ext/1881668453/sys_int.o
 .debug_str     0x00000ef0       0x40 build/default/production/_ext/1529399856/osal_freertos.o
 .debug_str     0x00000f30        0x0 build/default/production/_ext/1360937237/app.o
 .debug_str     0x00000f30        0xd build/default/production/_ext/1171490990/tasks.o
 .debug_str     0x00000f3d       0x85 build/default/production/_ext/1033058136/tcpip_announce.o
 .debug_str     0x00000fc2      0x167 build/default/production/_ext/1033058136/udp.o
 .debug_str     0x00001129      0x22d build/default/production/_ext/438849557/drv_miim.o
 .debug_str     0x00001356      0x42a build/default/production/_ext/444070925/drv_ethphy.o
 .debug_str     0x00001780       0x1f build/default/production/_ext/444070925/drv_extphy_smsc8720.o
 .debug_str     0x0000179f        0x0 build/default/production/_ext/1664057780/arc4.o
 .debug_str     0x0000179f        0x0 build/default/production/_ext/1664057780/asm.o
 .debug_str     0x0000179f      0x228 build/default/production/_ext/1664057780/asn.o
 .debug_str     0x000019c7        0x0 build/default/production/_ext/1664057780/blake2b.o
 .debug_str     0x000019c7        0x0 build/default/production/_ext/1664057780/blake2s.o
 .debug_str     0x000019c7        0x0 build/default/production/_ext/1664057780/camellia.o
 .debug_str     0x000019c7        0x0 build/default/production/_ext/1664057780/chacha.o
 .debug_str     0x000019c7        0x0 build/default/production/_ext/1664057780/chacha20_poly1305.o
 .debug_str     0x000019c7        0x0 build/default/production/_ext/1664057780/cmac.o
 .debug_str     0x000019c7        0x0 build/default/production/_ext/1664057780/coding.o
 .debug_str     0x000019c7        0x0 build/default/production/_ext/1664057780/compress.o
 .debug_str     0x000019c7        0x0 build/default/production/_ext/1664057780/cpuid.o
 .debug_str     0x000019c7       0xdd build/default/production/_ext/1664057780/cryptocb.o
 .debug_str     0x00001aa4        0x0 build/default/production/_ext/1664057780/curve25519.o
 .debug_str     0x00001aa4        0x0 build/default/production/_ext/1664057780/curve448.o
 .debug_str     0x00001aa4        0x0 build/default/production/_ext/1664057780/dh.o
 .debug_str     0x00001aa4        0x0 build/default/production/_ext/1664057780/dsa.o
 .debug_str     0x00001aa4      0x103 build/default/production/_ext/1664057780/ecc.o
 .debug_str     0x00001ba7        0x0 build/default/production/_ext/1664057780/ecc_fp.o
 .debug_str     0x00001ba7        0x0 build/default/production/_ext/1664057780/ed25519.o
 .debug_str     0x00001ba7        0x0 build/default/production/_ext/1664057780/ed448.o
 .debug_str     0x00001ba7        0x0 build/default/production/_ext/1664057780/error.o
 .debug_str     0x00001ba7        0x0 build/default/production/_ext/1664057780/fe_448.o
 .debug_str     0x00001ba7        0x0 build/default/production/_ext/1664057780/fe_low_mem.o
 .debug_str     0x00001ba7        0x0 build/default/production/_ext/1664057780/fe_operations.o
 .debug_str     0x00001ba7        0x0 build/default/production/_ext/1664057780/ge_448.o
 .debug_str     0x00001ba7        0x0 build/default/production/_ext/1664057780/ge_low_mem.o
 .debug_str     0x00001ba7        0x0 build/default/production/_ext/1664057780/ge_operations.o
 .debug_str     0x00001ba7       0x4e build/default/production/_ext/1664057780/hash.o
 .debug_str     0x00001bf5        0x0 build/default/production/_ext/1664057780/hc128.o
 .debug_str     0x00001bf5       0x37 build/default/production/_ext/1664057780/hmac.o
 .debug_str     0x00001c2c        0x0 build/default/production/_ext/1664057780/idea.o
 .debug_str     0x00001c2c        0x0 build/default/production/_ext/1664057780/integer.o
 .debug_str     0x00001c2c        0x0 build/default/production/_ext/1664057780/logging.o
 .debug_str     0x00001c2c        0x0 build/default/production/_ext/1664057780/md2.o
 .debug_str     0x00001c2c        0x0 build/default/production/_ext/1664057780/md4.o
 .debug_str     0x00001c2c        0x0 build/default/production/_ext/1664057780/md5.o
 .debug_str     0x00001c2c        0x0 build/default/production/_ext/1664057780/memory.o
 .debug_str     0x00001c2c        0x0 build/default/production/_ext/1664057780/pkcs12.o
 .debug_str     0x00001c2c        0x0 build/default/production/_ext/1664057780/pkcs7.o
 .debug_str     0x00001c2c        0x0 build/default/production/_ext/1664057780/poly1305.o
 .debug_str     0x00001c2c        0x0 build/default/production/_ext/1664057780/pwdbased.o
 .debug_str     0x00001c2c        0x0 build/default/production/_ext/1664057780/rabbit.o
 .debug_str     0x00001c2c        0x0 build/default/production/_ext/1664057780/rc2.o
 .debug_str     0x00001c2c        0x0 build/default/production/_ext/1664057780/ripemd.o
 .debug_str     0x00001c2c       0x95 build/default/production/_ext/1664057780/rsa.o
 .debug_str     0x00001cc1        0x0 build/default/production/_ext/1664057780/sha3.o
 .debug_str     0x00001cc1        0x0 build/default/production/_ext/1664057780/signature.o
 .debug_str     0x00001cc1        0x0 build/default/production/_ext/1664057780/sp_arm32.o
 .debug_str     0x00001cc1        0x0 build/default/production/_ext/1664057780/sp_arm64.o
 .debug_str     0x00001cc1        0x0 build/default/production/_ext/1664057780/sp_armthumb.o
 .debug_str     0x00001cc1        0x0 build/default/production/_ext/1664057780/sp_c32.o
 .debug_str     0x00001cc1        0x0 build/default/production/_ext/1664057780/sp_c64.o
 .debug_str     0x00001cc1        0x0 build/default/production/_ext/1664057780/sp_cortexm.o
 .debug_str     0x00001cc1        0x0 build/default/production/_ext/1664057780/sp_dsp32.o
 .debug_str     0x00001cc1        0x0 build/default/production/_ext/1664057780/sp_int.o
 .debug_str     0x00001cc1        0x0 build/default/production/_ext/1664057780/sp_x86_64.o
 .debug_str     0x00001cc1        0x0 build/default/production/_ext/1664057780/srp.o
 .debug_str     0x00001cc1       0x2f build/default/production/_ext/1664057780/tfm.o
 .debug_str     0x00001cf0        0x0 build/default/production/_ext/1664057780/wc_dsp.o
 .debug_str     0x00001cf0        0x0 build/default/production/_ext/1664057780/wc_encrypt.o
 .debug_str     0x00001cf0        0x0 build/default/production/_ext/1664057780/wc_pkcs11.o
 .debug_str     0x00001cf0        0x0 build/default/production/_ext/1664057780/wc_port.o
 .debug_str     0x00001cf0        0x0 build/default/production/_ext/1664057780/wolfevent.o
 .debug_str     0x00001cf0        0x0 build/default/production/_ext/1664057780/wolfmath.o
 .debug_str     0x00001cf0        0x0 build/default/production/_ext/172253694/pic32mz-crypt.o
 .debug_str     0x00001cf0        0x0 build/default/production/_ext/172253694/crypt_aes_sam6149.o
 .debug_str     0x00001cf0        0x0 build/default/production/_ext/172253694/crypt_aes_u2238.o
 .debug_str     0x00001cf0        0x0 build/default/production/_ext/172253694/crypt_ecc_ba414e.o
 .debug_str     0x00001cf0        0x0 build/default/production/_ext/172253694/crypt_ecc_pukcl.o
 .debug_str     0x00001cf0      0x1fe build/default/production/_ext/172253694/crypt_pukcl_functions.o
 .debug_str     0x00001eee        0x0 build/default/production/_ext/172253694/crypt_rng_sam6334.o
 .debug_str     0x00001eee        0x0 build/default/production/_ext/172253694/crypt_rng_u2242.o
 .debug_str     0x00001eee        0x0 build/default/production/_ext/172253694/crypt_rsa_pukcl.o
 .debug_str     0x00001eee        0x0 build/default/production/_ext/172253694/crypt_sam_u2803.o
 .debug_str     0x00001eee        0x0 build/default/production/_ext/172253694/crypt_sha1_sam11105.o
 .debug_str     0x00001eee        0x0 build/default/production/_ext/172253694/crypt_sha1_sam6156.o
 .debug_str     0x00001eee        0x0 build/default/production/_ext/172253694/crypt_sha224_sam11105.o
 .debug_str     0x00001eee        0x0 build/default/production/_ext/172253694/crypt_sha224_sam6156.o
 .debug_str     0x00001eee        0x0 build/default/production/_ext/172253694/crypt_sha256_sam11105.o
 .debug_str     0x00001eee        0x0 build/default/production/_ext/172253694/crypt_sha256_sam6156.o
 .debug_str     0x00001eee        0x0 build/default/production/_ext/172253694/crypt_sha384_sam6156.o
 .debug_str     0x00001eee        0x0 build/default/production/_ext/172253694/crypt_sha512_sam6156.o
 .debug_str     0x00001eee        0x0 build/default/production/_ext/172253694/crypt_tdes_sam6150.o
 .debug_str     0x00001eee       0x7d build/default/production/_ext/172253694/crypt_wolfcryptcb.o
 .debug_str     0x00001f6b       0x7d build/default/production/_ext/1664057780/aes.o
 .debug_str     0x00001fe8        0x7 build/default/production/_ext/1664057780/des3.o
 .debug_str     0x00001fef       0x75 build/default/production/_ext/1664057780/random.o
 .debug_str     0x00002064        0x0 build/default/production/_ext/1664057780/sha.o
 .debug_str     0x00002064       0x1e build/default/production/_ext/1664057780/sha256.o
 .debug_str     0x00002082        0x0 build/default/production/_ext/1664057780/sha512.o
 .debug_str     0x00002082        0x0 build/default/production/_ext/1664057780/misc.o
 .debug_str     0x00002082        0x0 build/default/production/_ext/1664057780/evp.o
 .debug_str     0x00002082      0x111 build/default/production/_ext/1645245335/crypto.o
 .debug_str     0x00002193        0x9 build/default/production/_ext/1171490990/freertos_hooks.o
 .debug_str     0x0000219c        0x0 build/default/production/_ext/404212886/croutine.o
 .debug_str     0x0000219c       0x2b build/default/production/_ext/404212886/list.o
 .debug_str     0x000021c7      0x13b build/default/production/_ext/404212886/queue.o
 .debug_str     0x00002302      0x197 build/default/production/_ext/404212886/FreeRTOS_tasks.o
 .debug_str     0x00002499        0x0 build/default/production/_ext/404212886/timers.o
 .debug_str     0x00002499       0xe6 build/default/production/_ext/404212886/event_groups.o
 .debug_str     0x0000257f      0x142 build/default/production/_ext/404212886/stream_buffer.o
 .debug_str     0x000026c1       0x1d build/default/production/_ext/1665200909/heap_1.o
 .debug_str     0x000026de       0x37 build/default/production/_ext/951553248/port.o
 .debug_str     0x00002715        0x0 c:/program files/microchip/xc32/v2.50/bin/bin/../../lib/gcc/pic32mx/4.8.3\libgcc.a(_udivdi3.o)
 .debug_str     0x00002715        0x0 c:/program files/microchip/xc32/v2.50/bin/bin/../../lib/gcc/pic32mx/4.8.3/../../../../pic32mx/lib\libpic32.a(default-on-reset.o)
 .debug_str     0x00002715        0x0 c:/program files/microchip/xc32/v2.50/bin/bin/../../lib/gcc/pic32mx/4.8.3/../../../../pic32mx/lib\libpic32.a(default-on-bootstrap.o)
 .debug_str     0x00002715        0x0 c:/program files/microchip/xc32/v2.50/bin/bin/../../lib/gcc/pic32mx/4.8.3/../../../../pic32mx/lib\libpic32.a(defaultinterrupt.o)
 .debug_str     0x00002715        0x0 c:/program files/microchip/xc32/v2.50/bin/bin/../../lib/gcc/pic32mx/4.8.3/../../../../pic32mx/lib\libc.a(calloc.o)
 .debug_str     0x00002715        0x0 c:/program files/microchip/xc32/v2.50/bin/bin/../../lib/gcc/pic32mx/4.8.3/../../../../pic32mx/lib\libc.a(ctime.o)
 .debug_str     0x00002715        0x0 c:/program files/microchip/xc32/v2.50/bin/bin/../../lib/gcc/pic32mx/4.8.3/../../../../pic32mx/lib\libc.a(ctype.o)
 .debug_str     0x00002715        0x0 c:/program files/microchip/xc32/v2.50/bin/bin/../../lib/gcc/pic32mx/4.8.3/../../../../pic32mx/lib\libc.a(ctypef.o)
 .debug_str     0x00002715        0x0 c:/program files/microchip/xc32/v2.50/bin/bin/../../lib/gcc/pic32mx/4.8.3/../../../../pic32mx/lib\libc.a(malloc.o)
 .debug_str     0x00002715        0x0 c:/program files/microchip/xc32/v2.50/bin/bin/../../lib/gcc/pic32mx/4.8.3/../../../../pic32mx/lib\libc.a(memmove.o)
 .debug_str     0x00002715        0x0 c:/program files/microchip/xc32/v2.50/bin/bin/../../lib/gcc/pic32mx/4.8.3/../../../../pic32mx/lib\libc.a(rand.o)
 .debug_str     0x00002715        0x0 c:/program files/microchip/xc32/v2.50/bin/bin/../../lib/gcc/pic32mx/4.8.3/../../../../pic32mx/lib\libc.a(strncmp.o)
 .debug_str     0x00002715        0x0 c:/program files/microchip/xc32/v2.50/bin/bin/../../lib/gcc/pic32mx/4.8.3/../../../../pic32mx/lib\libc.a(strncpy.o)
 .debug_str     0x00002715        0x0 c:/program files/microchip/xc32/v2.50/bin/bin/../../lib/gcc/pic32mx/4.8.3/../../../../pic32mx/lib\libc.a(strtol.o)
 .debug_str     0x00002715        0x0 c:/program files/microchip/xc32/v2.50/bin/bin/../../lib/gcc/pic32mx/4.8.3/../../../../pic32mx/lib\libc.a(time.o)
 .debug_str     0x00002715        0x0 c:/program files/microchip/xc32/v2.50/bin/bin/../../lib/gcc/pic32mx/4.8.3/../../../../pic32mx/lib\libc.a(snprintf_cdnopsuxX.eo)
 .debug_str     0x00002715        0x0 c:/program files/microchip/xc32/v2.50/bin/bin/../../lib/gcc/pic32mx/4.8.3/../../../../pic32mx/lib\libc.a(sprintf_cdnopuxX.eo)
 .debug_str     0x00002715        0x0 c:/program files/microchip/xc32/v2.50/bin/bin/../../lib/gcc/pic32mx/4.8.3/../../../../pic32mx/lib\libc.a(vsnprintf_cdnopsuxX.eo)
 .debug_str     0x00002715        0x0 c:/program files/microchip/xc32/v2.50/bin/bin/../../lib/gcc/pic32mx/4.8.3/../../../../pic32mx/lib\libc.a(errno.o)
 .debug_str     0x00002715        0x0 c:/program files/microchip/xc32/v2.50/bin/bin/../../lib/gcc/pic32mx/4.8.3/../../../../pic32mx/lib\libc.a(doprnt_cdnopsuxX.eo)
 .debug_str     0x00002715        0x0 c:/program files/microchip/xc32/v2.50/bin/bin/../../lib/gcc/pic32mx/4.8.3/../../../../pic32mx/lib\libc.a(_fputc_simple.o)
 .debug_str     0x00002715        0x0 c:/program files/microchip/xc32/v2.50/bin/bin/../../lib/gcc/pic32mx/4.8.3/../../../../pic32mx/lib\libc.a(_iob.o)
 .debug_str     0x00002715        0x0 c:/program files/microchip/xc32/v2.50/bin/bin/../../lib/gcc/pic32mx/4.8.3/../../../../pic32mx/lib\libc.a(_flsbuf_simple.o)
 .debug_str     0x00002715        0x0 c:/program files/microchip/xc32/v2.50/bin/bin/../../lib/gcc/pic32mx/4.8.3\libgcc.a(_umoddi3.o)
 .debug_str     0x00002715        0x0 c:/program files/microchip/xc32/v2.50/bin/bin/../../lib/gcc/pic32mx/4.8.3/../../../../pic32mx/lib\libpic32.a(sbrk.o)
 .debug_str     0x00002715        0x0 c:/program files/microchip/xc32/v2.50/bin/bin/../../lib/gcc/pic32mx/4.8.3/../../../../pic32mx/lib\libpic32.a(write.o)

.debug_loc      0x00000000    0x9939f
 *.elf(.debug_loc)
 *(.debug_loc)
 .debug_loc     0x00000000       0xd7 build/default/production/_ext/1865200349/plib_evic.o
 .debug_loc     0x000000d7      0x129 build/default/production/_ext/1865254177/plib_gpio.o
 .debug_loc     0x00000200      0x3e9 build/default/production/_ext/298189674/plib_spi4_master.o
 .debug_loc     0x000005e9       0x21 build/default/production/_ext/1171490990/initialization.o
 .debug_loc     0x0000060a       0x1f build/default/production/_ext/60181895/plib_tmr2.o
 .debug_loc     0x00000629     0x210e build/default/production/_ext/732082881/drv_ethmac.o
 .debug_loc     0x00002737     0x1aa2 build/default/production/_ext/732082881/drv_ethmac_lib.o
 .debug_loc     0x000041d9      0x126 build/default/production/_ext/732082881/drv_eth_pic32_lib.o
 .debug_loc     0x000042ff     0x56c4 build/default/production/_ext/1033058136/tcp.o
 .debug_loc     0x000099c3     0x1eeb build/default/production/_ext/1033058136/arp.o
 .debug_loc     0x0000b8ae     0x15e4 build/default/production/_ext/101884895/sys_time.o
 .debug_loc     0x0000ce92       0x55 build/default/production/_ext/1249264884/plib_coretimer.o
 .debug_loc     0x0000cee7      0x3e9 build/default/production/_ext/298189674/plib_spi1_master.o
 .debug_loc     0x0000d2d0     0x1c0b build/default/production/_ext/1033058136/ipv4.o
 .debug_loc     0x0000eedb     0x239d build/default/production/_ext/1033058136/dhcps.o
 .debug_loc     0x00011278      0x15b build/default/production/_ext/1033058136/tcpip_heap_alloc.o
 .debug_loc     0x000113d3      0x764 build/default/production/_ext/1033058136/tcpip_heap_internal.o
 .debug_loc     0x00011b37      0x377 build/default/production/_ext/1033058136/helpers.o
 .debug_loc     0x00011eae      0x137 build/default/production/_ext/1033058136/hash_fnv.o
 .debug_loc     0x00011fe5      0x2b1 build/default/production/_ext/1033058136/oahash.o
 .debug_loc     0x00012296     0x23e8 build/default/production/_ext/1033058136/tcpip_helpers.o
 .debug_loc     0x0001467e     0x39de build/default/production/_ext/1033058136/tcpip_manager.o
 .debug_loc     0x0001805c      0x3b0 build/default/production/_ext/1033058136/tcpip_notify.o
 .debug_loc     0x0001840c      0x83c build/default/production/_ext/1033058136/tcpip_packet.o
 .debug_loc     0x00018c48       0x9e build/default/production/_ext/753841488/sys_time_h2_adapter.o
 .debug_loc     0x00018ce6       0xd3 build/default/production/_ext/753841488/sys_random_h2_adapter.o
 .debug_loc     0x00018db9       0xe6 build/default/production/_ext/1881668453/sys_int.o
 .debug_loc     0x00018e9f      0x458 build/default/production/_ext/1529399856/osal_freertos.o
 .debug_loc     0x000192f7       0x14 build/default/production/_ext/1360937237/app.o
 .debug_loc     0x0001930b       0x63 build/default/production/_ext/1171490990/tasks.o
 .debug_loc     0x0001936e      0x7b5 build/default/production/_ext/1033058136/tcpip_announce.o
 .debug_loc     0x00019b23     0x3280 build/default/production/_ext/1033058136/udp.o
 .debug_loc     0x0001cda3     0x1c78 build/default/production/_ext/438849557/drv_miim.o
 .debug_loc     0x0001ea1b     0x2ca3 build/default/production/_ext/444070925/drv_ethphy.o
 .debug_loc     0x000216be      0x155 build/default/production/_ext/444070925/drv_extphy_smsc8720.o
 .debug_loc     0x00021813     0x9bac build/default/production/_ext/1664057780/asn.o
 .debug_loc     0x0002b3bf     0x1258 build/default/production/_ext/1664057780/coding.o
 .debug_loc     0x0002c617     0x1f25 build/default/production/_ext/1664057780/cryptocb.o
 .debug_loc     0x0002e53c     0x7314 build/default/production/_ext/1664057780/ecc.o
 .debug_loc     0x00035850     0x12f2 build/default/production/_ext/1664057780/hash.o
 .debug_loc     0x00036b42      0x82f build/default/production/_ext/1664057780/hmac.o
 .debug_loc     0x00037371     0x2195 build/default/production/_ext/1664057780/md5.o
 .debug_loc     0x00039506     0x3bad build/default/production/_ext/1664057780/rsa.o
 .debug_loc     0x0003d0b3     0x878c build/default/production/_ext/1664057780/tfm.o
 .debug_loc     0x0004583f      0x746 build/default/production/_ext/1664057780/wc_encrypt.o
 .debug_loc     0x00045f85      0x113 build/default/production/_ext/1664057780/wc_port.o
 .debug_loc     0x00046098      0x35e build/default/production/_ext/1664057780/wolfmath.o
 .debug_loc     0x000463f6       0xfd build/default/production/_ext/172253694/crypt_pukcl_functions.o
 .debug_loc     0x000464f3     0x620f build/default/production/_ext/1664057780/aes.o
 .debug_loc     0x0004c702     0x45e0 build/default/production/_ext/1664057780/des3.o
 .debug_loc     0x00050ce2     0x20da build/default/production/_ext/1664057780/random.o
 .debug_loc     0x00052dbc    0x3cc26 build/default/production/_ext/1664057780/sha.o
 .debug_loc     0x0008f9e2     0x1a94 build/default/production/_ext/1664057780/sha256.o
 .debug_loc     0x00091476     0x2501 build/default/production/_ext/1645245335/crypto.o
 .debug_loc     0x00093977       0x8c build/default/production/_ext/1171490990/freertos_hooks.o
 .debug_loc     0x00093a03       0x44 build/default/production/_ext/404212886/list.o
 .debug_loc     0x00093a47     0x10d0 build/default/production/_ext/404212886/queue.o
 .debug_loc     0x00094b17     0x1614 build/default/production/_ext/404212886/FreeRTOS_tasks.o
 .debug_loc     0x0009612b      0x90a build/default/production/_ext/404212886/event_groups.o
 .debug_loc     0x00096a35     0x12d5 build/default/production/_ext/404212886/stream_buffer.o
 .debug_loc     0x00097d0a       0x49 build/default/production/_ext/1665200909/heap_1.o
 .debug_loc     0x00097d53       0xf5 build/default/production/_ext/951553248/port.o
 .debug_loc     0x00097e48      0xa6a c:/program files/microchip/xc32/v2.50/bin/bin/../../lib/gcc/pic32mx/4.8.3\libgcc.a(_udivdi3.o)
 .debug_loc     0x000988b2      0xa3d c:/program files/microchip/xc32/v2.50/bin/bin/../../lib/gcc/pic32mx/4.8.3\libgcc.a(_umoddi3.o)
 .debug_loc     0x000992ef       0x78 c:/program files/microchip/xc32/v2.50/bin/bin/../../lib/gcc/pic32mx/4.8.3/../../../../pic32mx/lib\libpic32.a(sbrk.o)
 .debug_loc     0x00099367       0x38 c:/program files/microchip/xc32/v2.50/bin/bin/../../lib/gcc/pic32mx/4.8.3/../../../../pic32mx/lib\libpic32.a(write.o)

.debug_macinfo
 *.elf(.debug_macinfo)
 *(.debug_macinfo)

.debug_weaknames
 *.elf(.debug_weaknames)
 *(.debug_weaknames)

.debug_funcnames
 *.elf(.debug_funcnames)
 *(.debug_funcnames)

.debug_typenames
 *.elf(.debug_typenames)
 *(.debug_typenames)

.debug_varnames
 *.elf(.debug_varnames)
 *(.debug_varnames)

.debug_pubtypes
 *.elf(.debug_pubtypes)
 *(.debug_pubtypes)

.debug_ranges   0x00000000     0x6cd0
 *.elf(.debug_ranges)
 *(.debug_ranges)
 .debug_ranges  0x00000000       0x10 build/default/production/_ext/60165520/plib_clk.o
 .debug_ranges  0x00000010       0x58 build/default/production/_ext/1865200349/plib_evic.o
 .debug_ranges  0x00000068       0x50 build/default/production/_ext/1865254177/plib_gpio.o
 .debug_ranges  0x000000b8       0xc8 build/default/production/_ext/298189674/plib_spi4_master.o
 .debug_ranges  0x00000180       0x18 build/default/production/_ext/163028504/xc32_monitor.o
 .debug_ranges  0x00000198       0x18 build/default/production/_ext/1171490990/initialization.o
 .debug_ranges  0x000001b0       0x30 build/default/production/_ext/1171490990/interrupts.o
 .debug_ranges  0x000001e0       0x18 build/default/production/_ext/1171490990/exceptions.o
 .debug_ranges  0x000001f8       0x10 build/default/production/_ext/1360937237/main.o
 .debug_ranges  0x00000208       0x60 build/default/production/_ext/60181895/plib_tmr2.o
 .debug_ranges  0x00000268      0x1f8 build/default/production/_ext/732082881/drv_ethmac.o
 .debug_ranges  0x00000460      0x3c0 build/default/production/_ext/732082881/drv_ethmac_lib.o
 .debug_ranges  0x00000820      0x230 build/default/production/_ext/732082881/drv_eth_pic32_lib.o
 .debug_ranges  0x00000a50      0x908 build/default/production/_ext/1033058136/tcp.o
 .debug_ranges  0x00001358      0x1c0 build/default/production/_ext/1033058136/arp.o
 .debug_ranges  0x00001518      0x168 build/default/production/_ext/101884895/sys_time.o
 .debug_ranges  0x00001680       0x58 build/default/production/_ext/1249264884/plib_coretimer.o
 .debug_ranges  0x000016d8       0xc8 build/default/production/_ext/298189674/plib_spi1_master.o
 .debug_ranges  0x000017a0      0x238 build/default/production/_ext/1033058136/ipv4.o
 .debug_ranges  0x000019d8      0x358 build/default/production/_ext/1033058136/dhcps.o
 .debug_ranges  0x00001d30       0x38 build/default/production/_ext/1033058136/tcpip_heap_alloc.o
 .debug_ranges  0x00001d68       0x58 build/default/production/_ext/1033058136/tcpip_heap_internal.o
 .debug_ranges  0x00001dc0       0x40 build/default/production/_ext/1033058136/dhcp.o
 .debug_ranges  0x00001e00       0x58 build/default/production/_ext/1033058136/dns.o
 .debug_ranges  0x00001e58       0x38 build/default/production/_ext/1033058136/helpers.o
 .debug_ranges  0x00001e90       0x18 build/default/production/_ext/1033058136/hash_fnv.o
 .debug_ranges  0x00001ea8       0x58 build/default/production/_ext/1033058136/oahash.o
 .debug_ranges  0x00001f00      0x250 build/default/production/_ext/1033058136/tcpip_helpers.o
 .debug_ranges  0x00002150      0x5f0 build/default/production/_ext/1033058136/tcpip_manager.o
 .debug_ranges  0x00002740       0x38 build/default/production/_ext/1033058136/tcpip_notify.o
 .debug_ranges  0x00002778       0x70 build/default/production/_ext/1033058136/tcpip_packet.o
 .debug_ranges  0x000027e8       0x30 build/default/production/_ext/753841488/sys_time_h2_adapter.o
 .debug_ranges  0x00002818       0x38 build/default/production/_ext/753841488/sys_random_h2_adapter.o
 .debug_ranges  0x00002850       0x30 build/default/production/_ext/1881668453/sys_int.o
 .debug_ranges  0x00002880       0x80 build/default/production/_ext/1529399856/osal_freertos.o
 .debug_ranges  0x00002900       0x18 build/default/production/_ext/1360937237/app.o
 .debug_ranges  0x00002918       0x28 build/default/production/_ext/1171490990/tasks.o
 .debug_ranges  0x00002940       0x60 build/default/production/_ext/1171490990/interrupts_a.o
 .debug_ranges  0x000029a0      0x110 build/default/production/_ext/1033058136/tcpip_announce.o
 .debug_ranges  0x00002ab0      0x490 build/default/production/_ext/1033058136/udp.o
 .debug_ranges  0x00002f40      0x2d0 build/default/production/_ext/438849557/drv_miim.o
 .debug_ranges  0x00003210      0x260 build/default/production/_ext/444070925/drv_ethphy.o
 .debug_ranges  0x00003470       0x20 build/default/production/_ext/444070925/drv_extphy_smsc8720.o
 .debug_ranges  0x00003490      0xbf0 build/default/production/_ext/1664057780/asn.o
 .debug_ranges  0x00004080      0x2c0 build/default/production/_ext/1664057780/coding.o
 .debug_ranges  0x00004340       0xc8 build/default/production/_ext/1664057780/cryptocb.o
 .debug_ranges  0x00004408      0x3c8 build/default/production/_ext/1664057780/ecc.o
 .debug_ranges  0x000047d0       0x90 build/default/production/_ext/1664057780/hash.o
 .debug_ranges  0x00004860       0x50 build/default/production/_ext/1664057780/hmac.o
 .debug_ranges  0x000048b0       0x28 build/default/production/_ext/1664057780/logging.o
 .debug_ranges  0x000048d8       0x58 build/default/production/_ext/1664057780/md5.o
 .debug_ranges  0x00004930      0x360 build/default/production/_ext/1664057780/rsa.o
 .debug_ranges  0x00004c90      0x590 build/default/production/_ext/1664057780/tfm.o
 .debug_ranges  0x00005220       0x38 build/default/production/_ext/1664057780/wc_encrypt.o
 .debug_ranges  0x00005258       0x48 build/default/production/_ext/1664057780/wc_port.o
 .debug_ranges  0x000052a0       0x30 build/default/production/_ext/1664057780/wolfmath.o
 .debug_ranges  0x000052d0       0x18 build/default/production/_ext/172253694/crypt_pukcl_functions.o
 .debug_ranges  0x000052e8       0x18 build/default/production/_ext/172253694/crypt_wolfcryptcb.o
 .debug_ranges  0x00005300      0x8c0 build/default/production/_ext/1664057780/aes.o
 .debug_ranges  0x00005bc0      0x160 build/default/production/_ext/1664057780/des3.o
 .debug_ranges  0x00005d20      0x180 build/default/production/_ext/1664057780/random.o
 .debug_ranges  0x00005ea0      0x108 build/default/production/_ext/1664057780/sha.o
 .debug_ranges  0x00005fa8      0x258 build/default/production/_ext/1664057780/sha256.o
 .debug_ranges  0x00006200      0x1c0 build/default/production/_ext/1645245335/crypto.o
 .debug_ranges  0x000063c0       0x30 build/default/production/_ext/1171490990/freertos_hooks.o
 .debug_ranges  0x000063f0       0x30 build/default/production/_ext/404212886/list.o
 .debug_ranges  0x00006420      0x160 build/default/production/_ext/404212886/queue.o
 .debug_ranges  0x00006580      0x1d8 build/default/production/_ext/404212886/FreeRTOS_tasks.o
 .debug_ranges  0x00006758       0x98 build/default/production/_ext/404212886/event_groups.o
 .debug_ranges  0x000067f0       0xd0 build/default/production/_ext/404212886/stream_buffer.o
 .debug_ranges  0x000068c0       0x28 build/default/production/_ext/1665200909/heap_1.o
 .debug_ranges  0x000068e8       0x48 build/default/production/_ext/951553248/port.o
 .debug_ranges  0x00006930       0x98 c:/program files/microchip/xc32/v2.50/bin/bin/../../lib/gcc/pic32mx/4.8.3\libgcc.a(_udivdi3.o)
 .debug_ranges  0x000069c8       0x10 c:/program files/microchip/xc32/v2.50/bin/bin/../../lib/gcc/pic32mx/4.8.3/../../../../pic32mx/lib\libpic32.a(default-on-reset.o)
 .debug_ranges  0x000069d8       0x10 c:/program files/microchip/xc32/v2.50/bin/bin/../../lib/gcc/pic32mx/4.8.3/../../../../pic32mx/lib\libpic32.a(default-on-bootstrap.o)
 .debug_ranges  0x000069e8       0x10 c:/program files/microchip/xc32/v2.50/bin/bin/../../lib/gcc/pic32mx/4.8.3/../../../../pic32mx/lib\libpic32.a(defaultinterrupt.o)
 .debug_ranges  0x000069f8       0x10 c:/program files/microchip/xc32/v2.50/bin/bin/../../lib/gcc/pic32mx/4.8.3/../../../../pic32mx/lib\libc.a(calloc.o)
 .debug_ranges  0x00006a08       0x30 c:/program files/microchip/xc32/v2.50/bin/bin/../../lib/gcc/pic32mx/4.8.3/../../../../pic32mx/lib\libc.a(ctime.o)
 .debug_ranges  0x00006a38       0x90 c:/program files/microchip/xc32/v2.50/bin/bin/../../lib/gcc/pic32mx/4.8.3/../../../../pic32mx/lib\libc.a(ctypef.o)
 .debug_ranges  0x00006ac8       0x20 c:/program files/microchip/xc32/v2.50/bin/bin/../../lib/gcc/pic32mx/4.8.3/../../../../pic32mx/lib\libc.a(malloc.o)
 .debug_ranges  0x00006ae8       0x10 c:/program files/microchip/xc32/v2.50/bin/bin/../../lib/gcc/pic32mx/4.8.3/../../../../pic32mx/lib\libc.a(memmove.o)
 .debug_ranges  0x00006af8       0x18 c:/program files/microchip/xc32/v2.50/bin/bin/../../lib/gcc/pic32mx/4.8.3/../../../../pic32mx/lib\libc.a(rand.o)
 .debug_ranges  0x00006b10       0x10 c:/program files/microchip/xc32/v2.50/bin/bin/../../lib/gcc/pic32mx/4.8.3/../../../../pic32mx/lib\libc.a(strncmp.o)
 .debug_ranges  0x00006b20       0x10 c:/program files/microchip/xc32/v2.50/bin/bin/../../lib/gcc/pic32mx/4.8.3/../../../../pic32mx/lib\libc.a(strncpy.o)
 .debug_ranges  0x00006b30       0x18 c:/program files/microchip/xc32/v2.50/bin/bin/../../lib/gcc/pic32mx/4.8.3/../../../../pic32mx/lib\libc.a(strtol.o)
 .debug_ranges  0x00006b48       0x10 c:/program files/microchip/xc32/v2.50/bin/bin/../../lib/gcc/pic32mx/4.8.3/../../../../pic32mx/lib\libc.a(time.o)
 .debug_ranges  0x00006b58       0x10 c:/program files/microchip/xc32/v2.50/bin/bin/../../lib/gcc/pic32mx/4.8.3/../../../../pic32mx/lib\libc.a(snprintf_cdnopsuxX.eo)
 .debug_ranges  0x00006b68       0x10 c:/program files/microchip/xc32/v2.50/bin/bin/../../lib/gcc/pic32mx/4.8.3/../../../../pic32mx/lib\libc.a(sprintf_cdnopuxX.eo)
 .debug_ranges  0x00006b78       0x10 c:/program files/microchip/xc32/v2.50/bin/bin/../../lib/gcc/pic32mx/4.8.3/../../../../pic32mx/lib\libc.a(vsnprintf_cdnopsuxX.eo)
 .debug_ranges  0x00006b88       0x10 c:/program files/microchip/xc32/v2.50/bin/bin/../../lib/gcc/pic32mx/4.8.3/../../../../pic32mx/lib\libc.a(doprnt_cdnopsuxX.eo)
 .debug_ranges  0x00006b98       0x10 c:/program files/microchip/xc32/v2.50/bin/bin/../../lib/gcc/pic32mx/4.8.3/../../../../pic32mx/lib\libc.a(_fputc_simple.o)
 .debug_ranges  0x00006ba8       0x10 c:/program files/microchip/xc32/v2.50/bin/bin/../../lib/gcc/pic32mx/4.8.3/../../../../pic32mx/lib\libc.a(_flsbuf_simple.o)
 .debug_ranges  0x00006bb8       0xd8 c:/program files/microchip/xc32/v2.50/bin/bin/../../lib/gcc/pic32mx/4.8.3\libgcc.a(_umoddi3.o)
 .debug_ranges  0x00006c90       0x30 c:/program files/microchip/xc32/v2.50/bin/bin/../../lib/gcc/pic32mx/4.8.3/../../../../pic32mx/lib\libpic32.a(sbrk.o)
 .debug_ranges  0x00006cc0       0x10 c:/program files/microchip/xc32/v2.50/bin/bin/../../lib/gcc/pic32mx/4.8.3/../../../../pic32mx/lib\libpic32.a(write.o)

.gnu.attributes
                0x00000000       0x10
 *(.gnu.attributes)
 .gnu.attributes
                0x00000000       0x10 build/default/production/_ext/60165520/plib_clk.o
 .gnu.attributes
                0x00000010       0x10 build/default/production/_ext/1865200349/plib_evic.o
 .gnu.attributes
                0x00000020       0x10 build/default/production/_ext/1865254177/plib_gpio.o
 .gnu.attributes
                0x00000030       0x10 build/default/production/_ext/298189674/plib_spi4_master.o
 .gnu.attributes
                0x00000040       0x10 build/default/production/_ext/163028504/xc32_monitor.o
 .gnu.attributes
                0x00000050       0x10 build/default/production/_ext/1171490990/initialization.o
 .gnu.attributes
                0x00000060       0x10 build/default/production/_ext/1171490990/interrupts.o
 .gnu.attributes
                0x00000070       0x10 build/default/production/_ext/1171490990/exceptions.o
 .gnu.attributes
                0x00000080       0x10 build/default/production/_ext/1360937237/main.o
 .gnu.attributes
                0x00000090       0x10 build/default/production/_ext/60181895/plib_tmr2.o
 .gnu.attributes
                0x000000a0       0x10 build/default/production/_ext/732082881/drv_ethmac.o
 .gnu.attributes
                0x000000b0       0x10 build/default/production/_ext/732082881/drv_ethmac_lib.o
 .gnu.attributes
                0x000000c0       0x10 build/default/production/_ext/732082881/drv_eth_pic32_lib.o
 .gnu.attributes
                0x000000d0       0x10 build/default/production/_ext/1033058136/tcp.o
 .gnu.attributes
                0x000000e0       0x10 build/default/production/_ext/1033058136/arp.o
 .gnu.attributes
                0x000000f0       0x10 build/default/production/_ext/101884895/sys_time.o
 .gnu.attributes
                0x00000100       0x10 build/default/production/_ext/1249264884/plib_coretimer.o
 .gnu.attributes
                0x00000110       0x10 build/default/production/_ext/298189674/plib_spi1_master.o
 .gnu.attributes
                0x00000120       0x10 build/default/production/_ext/1033058136/ipv4.o
 .gnu.attributes
                0x00000130       0x10 build/default/production/_ext/1033058136/dhcps.o
 .gnu.attributes
                0x00000140       0x10 build/default/production/_ext/1033058136/tcpip_heap_alloc.o
 .gnu.attributes
                0x00000150       0x10 build/default/production/_ext/1033058136/tcpip_heap_internal.o
 .gnu.attributes
                0x00000160       0x10 build/default/production/_ext/1033058136/dhcp.o
 .gnu.attributes
                0x00000170       0x10 build/default/production/_ext/1033058136/dns.o
 .gnu.attributes
                0x00000180       0x10 build/default/production/_ext/1033058136/helpers.o
 .gnu.attributes
                0x00000190       0x10 build/default/production/_ext/1033058136/hash_fnv.o
 .gnu.attributes
                0x000001a0       0x10 build/default/production/_ext/1033058136/oahash.o
 .gnu.attributes
                0x000001b0       0x10 build/default/production/_ext/1033058136/tcpip_helpers.o
 .gnu.attributes
                0x000001c0       0x10 build/default/production/_ext/1033058136/tcpip_manager.o
 .gnu.attributes
                0x000001d0       0x10 build/default/production/_ext/1033058136/tcpip_notify.o
 .gnu.attributes
                0x000001e0       0x10 build/default/production/_ext/1033058136/tcpip_packet.o
 .gnu.attributes
                0x000001f0       0x10 build/default/production/_ext/753841488/sys_time_h2_adapter.o
 .gnu.attributes
                0x00000200       0x10 build/default/production/_ext/753841488/sys_random_h2_adapter.o
 .gnu.attributes
                0x00000210       0x10 build/default/production/_ext/1881668453/sys_int.o
 .gnu.attributes
                0x00000220       0x10 build/default/production/_ext/1529399856/osal_freertos.o
 .gnu.attributes
                0x00000230       0x10 build/default/production/_ext/1360937237/app.o
 .gnu.attributes
                0x00000240       0x10 build/default/production/_ext/1171490990/tasks.o
 .gnu.attributes
                0x00000250       0x10 build/default/production/_ext/1033058136/tcpip_announce.o
 .gnu.attributes
                0x00000260       0x10 build/default/production/_ext/1033058136/udp.o
 .gnu.attributes
                0x00000270       0x10 build/default/production/_ext/438849557/drv_miim.o
 .gnu.attributes
                0x00000280       0x10 build/default/production/_ext/444070925/drv_ethphy.o
 .gnu.attributes
                0x00000290       0x10 build/default/production/_ext/444070925/drv_extphy_smsc8720.o
 .gnu.attributes
                0x000002a0       0x10 build/default/production/_ext/1664057780/arc4.o
 .gnu.attributes
                0x000002b0       0x10 build/default/production/_ext/1664057780/asm.o
 .gnu.attributes
                0x000002c0       0x10 build/default/production/_ext/1664057780/asn.o
 .gnu.attributes
                0x000002d0       0x10 build/default/production/_ext/1664057780/blake2b.o
 .gnu.attributes
                0x000002e0       0x10 build/default/production/_ext/1664057780/blake2s.o
 .gnu.attributes
                0x000002f0       0x10 build/default/production/_ext/1664057780/camellia.o
 .gnu.attributes
                0x00000300       0x10 build/default/production/_ext/1664057780/chacha.o
 .gnu.attributes
                0x00000310       0x10 build/default/production/_ext/1664057780/chacha20_poly1305.o
 .gnu.attributes
                0x00000320       0x10 build/default/production/_ext/1664057780/cmac.o
 .gnu.attributes
                0x00000330       0x10 build/default/production/_ext/1664057780/coding.o
 .gnu.attributes
                0x00000340       0x10 build/default/production/_ext/1664057780/compress.o
 .gnu.attributes
                0x00000350       0x10 build/default/production/_ext/1664057780/cpuid.o
 .gnu.attributes
                0x00000360       0x10 build/default/production/_ext/1664057780/cryptocb.o
 .gnu.attributes
                0x00000370       0x10 build/default/production/_ext/1664057780/curve25519.o
 .gnu.attributes
                0x00000380       0x10 build/default/production/_ext/1664057780/curve448.o
 .gnu.attributes
                0x00000390       0x10 build/default/production/_ext/1664057780/dh.o
 .gnu.attributes
                0x000003a0       0x10 build/default/production/_ext/1664057780/dsa.o
 .gnu.attributes
                0x000003b0       0x10 build/default/production/_ext/1664057780/ecc.o
 .gnu.attributes
                0x000003c0       0x10 build/default/production/_ext/1664057780/ecc_fp.o
 .gnu.attributes
                0x000003d0       0x10 build/default/production/_ext/1664057780/ed25519.o
 .gnu.attributes
                0x000003e0       0x10 build/default/production/_ext/1664057780/ed448.o
 .gnu.attributes
                0x000003f0       0x10 build/default/production/_ext/1664057780/error.o
 .gnu.attributes
                0x00000400       0x10 build/default/production/_ext/1664057780/fe_448.o
 .gnu.attributes
                0x00000410       0x10 build/default/production/_ext/1664057780/fe_low_mem.o
 .gnu.attributes
                0x00000420       0x10 build/default/production/_ext/1664057780/fe_operations.o
 .gnu.attributes
                0x00000430       0x10 build/default/production/_ext/1664057780/ge_448.o
 .gnu.attributes
                0x00000440       0x10 build/default/production/_ext/1664057780/ge_low_mem.o
 .gnu.attributes
                0x00000450       0x10 build/default/production/_ext/1664057780/ge_operations.o
 .gnu.attributes
                0x00000460       0x10 build/default/production/_ext/1664057780/hash.o
 .gnu.attributes
                0x00000470       0x10 build/default/production/_ext/1664057780/hc128.o
 .gnu.attributes
                0x00000480       0x10 build/default/production/_ext/1664057780/hmac.o
 .gnu.attributes
                0x00000490       0x10 build/default/production/_ext/1664057780/idea.o
 .gnu.attributes
                0x000004a0       0x10 build/default/production/_ext/1664057780/integer.o
 .gnu.attributes
                0x000004b0       0x10 build/default/production/_ext/1664057780/logging.o
 .gnu.attributes
                0x000004c0       0x10 build/default/production/_ext/1664057780/md2.o
 .gnu.attributes
                0x000004d0       0x10 build/default/production/_ext/1664057780/md4.o
 .gnu.attributes
                0x000004e0       0x10 build/default/production/_ext/1664057780/md5.o
 .gnu.attributes
                0x000004f0       0x10 build/default/production/_ext/1664057780/memory.o
 .gnu.attributes
                0x00000500       0x10 build/default/production/_ext/1664057780/pkcs12.o
 .gnu.attributes
                0x00000510       0x10 build/default/production/_ext/1664057780/pkcs7.o
 .gnu.attributes
                0x00000520       0x10 build/default/production/_ext/1664057780/poly1305.o
 .gnu.attributes
                0x00000530       0x10 build/default/production/_ext/1664057780/pwdbased.o
 .gnu.attributes
                0x00000540       0x10 build/default/production/_ext/1664057780/rabbit.o
 .gnu.attributes
                0x00000550       0x10 build/default/production/_ext/1664057780/rc2.o
 .gnu.attributes
                0x00000560       0x10 build/default/production/_ext/1664057780/ripemd.o
 .gnu.attributes
                0x00000570       0x10 build/default/production/_ext/1664057780/rsa.o
 .gnu.attributes
                0x00000580       0x10 build/default/production/_ext/1664057780/sha3.o
 .gnu.attributes
                0x00000590       0x10 build/default/production/_ext/1664057780/signature.o
 .gnu.attributes
                0x000005a0       0x10 build/default/production/_ext/1664057780/sp_arm32.o
 .gnu.attributes
                0x000005b0       0x10 build/default/production/_ext/1664057780/sp_arm64.o
 .gnu.attributes
                0x000005c0       0x10 build/default/production/_ext/1664057780/sp_armthumb.o
 .gnu.attributes
                0x000005d0       0x10 build/default/production/_ext/1664057780/sp_c32.o
 .gnu.attributes
                0x000005e0       0x10 build/default/production/_ext/1664057780/sp_c64.o
 .gnu.attributes
                0x000005f0       0x10 build/default/production/_ext/1664057780/sp_cortexm.o
 .gnu.attributes
                0x00000600       0x10 build/default/production/_ext/1664057780/sp_dsp32.o
 .gnu.attributes
                0x00000610       0x10 build/default/production/_ext/1664057780/sp_int.o
 .gnu.attributes
                0x00000620       0x10 build/default/production/_ext/1664057780/sp_x86_64.o
 .gnu.attributes
                0x00000630       0x10 build/default/production/_ext/1664057780/srp.o
 .gnu.attributes
                0x00000640       0x10 build/default/production/_ext/1664057780/tfm.o
 .gnu.attributes
                0x00000650       0x10 build/default/production/_ext/1664057780/wc_dsp.o
 .gnu.attributes
                0x00000660       0x10 build/default/production/_ext/1664057780/wc_encrypt.o
 .gnu.attributes
                0x00000670       0x10 build/default/production/_ext/1664057780/wc_pkcs11.o
 .gnu.attributes
                0x00000680       0x10 build/default/production/_ext/1664057780/wc_port.o
 .gnu.attributes
                0x00000690       0x10 build/default/production/_ext/1664057780/wolfevent.o
 .gnu.attributes
                0x000006a0       0x10 build/default/production/_ext/1664057780/wolfmath.o
 .gnu.attributes
                0x000006b0       0x10 build/default/production/_ext/172253694/pic32mz-crypt.o
 .gnu.attributes
                0x000006c0       0x10 build/default/production/_ext/172253694/crypt_aes_sam6149.o
 .gnu.attributes
                0x000006d0       0x10 build/default/production/_ext/172253694/crypt_aes_u2238.o
 .gnu.attributes
                0x000006e0       0x10 build/default/production/_ext/172253694/crypt_ecc_ba414e.o
 .gnu.attributes
                0x000006f0       0x10 build/default/production/_ext/172253694/crypt_ecc_pukcl.o
 .gnu.attributes
                0x00000700       0x10 build/default/production/_ext/172253694/crypt_pukcl_functions.o
 .gnu.attributes
                0x00000710       0x10 build/default/production/_ext/172253694/crypt_rng_sam6334.o
 .gnu.attributes
                0x00000720       0x10 build/default/production/_ext/172253694/crypt_rng_u2242.o
 .gnu.attributes
                0x00000730       0x10 build/default/production/_ext/172253694/crypt_rsa_pukcl.o
 .gnu.attributes
                0x00000740       0x10 build/default/production/_ext/172253694/crypt_sam_u2803.o
 .gnu.attributes
                0x00000750       0x10 build/default/production/_ext/172253694/crypt_sha1_sam11105.o
 .gnu.attributes
                0x00000760       0x10 build/default/production/_ext/172253694/crypt_sha1_sam6156.o
 .gnu.attributes
                0x00000770       0x10 build/default/production/_ext/172253694/crypt_sha224_sam11105.o
 .gnu.attributes
                0x00000780       0x10 build/default/production/_ext/172253694/crypt_sha224_sam6156.o
 .gnu.attributes
                0x00000790       0x10 build/default/production/_ext/172253694/crypt_sha256_sam11105.o
 .gnu.attributes
                0x000007a0       0x10 build/default/production/_ext/172253694/crypt_sha256_sam6156.o
 .gnu.attributes
                0x000007b0       0x10 build/default/production/_ext/172253694/crypt_sha384_sam6156.o
 .gnu.attributes
                0x000007c0       0x10 build/default/production/_ext/172253694/crypt_sha512_sam6156.o
 .gnu.attributes
                0x000007d0       0x10 build/default/production/_ext/172253694/crypt_tdes_sam6150.o
 .gnu.attributes
                0x000007e0       0x10 build/default/production/_ext/172253694/crypt_wolfcryptcb.o
 .gnu.attributes
                0x000007f0       0x10 build/default/production/_ext/1664057780/aes.o
 .gnu.attributes
                0x00000800       0x10 build/default/production/_ext/1664057780/des3.o
 .gnu.attributes
                0x00000810       0x10 build/default/production/_ext/1664057780/random.o
 .gnu.attributes
                0x00000820       0x10 build/default/production/_ext/1664057780/sha.o
 .gnu.attributes
                0x00000830       0x10 build/default/production/_ext/1664057780/sha256.o
 .gnu.attributes
                0x00000840       0x10 build/default/production/_ext/1664057780/sha512.o
 .gnu.attributes
                0x00000850       0x10 build/default/production/_ext/1664057780/misc.o
 .gnu.attributes
                0x00000860       0x10 build/default/production/_ext/1664057780/evp.o
 .gnu.attributes
                0x00000870       0x10 build/default/production/_ext/1645245335/crypto.o
 .gnu.attributes
                0x00000880       0x10 build/default/production/_ext/1171490990/freertos_hooks.o
 .gnu.attributes
                0x00000890       0x10 build/default/production/_ext/404212886/croutine.o
 .gnu.attributes
                0x000008a0       0x10 build/default/production/_ext/404212886/list.o
 .gnu.attributes
                0x000008b0       0x10 build/default/production/_ext/404212886/queue.o
 .gnu.attributes
                0x000008c0       0x10 build/default/production/_ext/404212886/FreeRTOS_tasks.o
 .gnu.attributes
                0x000008d0       0x10 build/default/production/_ext/404212886/timers.o
 .gnu.attributes
                0x000008e0       0x10 build/default/production/_ext/404212886/event_groups.o
 .gnu.attributes
                0x000008f0       0x10 build/default/production/_ext/404212886/stream_buffer.o
 .gnu.attributes
                0x00000900       0x10 build/default/production/_ext/1665200909/heap_1.o
 .gnu.attributes
                0x00000910       0x10 build/default/production/_ext/951553248/port.o
 .gnu.attributes
                0x00000920       0x10 c:/program files/microchip/xc32/v2.50/bin/bin/../../lib/gcc/pic32mx/4.8.3\libgcc.a(_udivdi3.o)
 .gnu.attributes
                0x00000930       0x10 c:/program files/microchip/xc32/v2.50/bin/bin/../../lib/gcc/pic32mx/4.8.3/../../../../pic32mx/lib\libpic32.a(default-on-reset.o)
 .gnu.attributes
                0x00000940       0x10 c:/program files/microchip/xc32/v2.50/bin/bin/../../lib/gcc/pic32mx/4.8.3/../../../../pic32mx/lib\libpic32.a(default-on-bootstrap.o)
 .gnu.attributes
                0x00000950       0x10 c:/program files/microchip/xc32/v2.50/bin/bin/../../lib/gcc/pic32mx/4.8.3/../../../../pic32mx/lib\libpic32.a(defaultinterrupt.o)
 .gnu.attributes
                0x00000960       0x10 c:/program files/microchip/xc32/v2.50/bin/bin/../../lib/gcc/pic32mx/4.8.3/../../../../pic32mx/lib\libc.a(calloc.o)
 .gnu.attributes
                0x00000970       0x10 c:/program files/microchip/xc32/v2.50/bin/bin/../../lib/gcc/pic32mx/4.8.3/../../../../pic32mx/lib\libc.a(ctime.o)
 .gnu.attributes
                0x00000980       0x10 c:/program files/microchip/xc32/v2.50/bin/bin/../../lib/gcc/pic32mx/4.8.3/../../../../pic32mx/lib\libc.a(ctype.o)
 .gnu.attributes
                0x00000990       0x10 c:/program files/microchip/xc32/v2.50/bin/bin/../../lib/gcc/pic32mx/4.8.3/../../../../pic32mx/lib\libc.a(ctypef.o)
 .gnu.attributes
                0x000009a0       0x10 c:/program files/microchip/xc32/v2.50/bin/bin/../../lib/gcc/pic32mx/4.8.3/../../../../pic32mx/lib\libc.a(malloc.o)
 .gnu.attributes
                0x000009b0       0x10 c:/program files/microchip/xc32/v2.50/bin/bin/../../lib/gcc/pic32mx/4.8.3/../../../../pic32mx/lib\libc.a(memmove.o)
 .gnu.attributes
                0x000009c0       0x10 c:/program files/microchip/xc32/v2.50/bin/bin/../../lib/gcc/pic32mx/4.8.3/../../../../pic32mx/lib\libc.a(rand.o)
 .gnu.attributes
                0x000009d0       0x10 c:/program files/microchip/xc32/v2.50/bin/bin/../../lib/gcc/pic32mx/4.8.3/../../../../pic32mx/lib\libc.a(strncmp.o)
 .gnu.attributes
                0x000009e0       0x10 c:/program files/microchip/xc32/v2.50/bin/bin/../../lib/gcc/pic32mx/4.8.3/../../../../pic32mx/lib\libc.a(strncpy.o)
 .gnu.attributes
                0x000009f0       0x10 c:/program files/microchip/xc32/v2.50/bin/bin/../../lib/gcc/pic32mx/4.8.3/../../../../pic32mx/lib\libc.a(strtol.o)
 .gnu.attributes
                0x00000a00       0x10 c:/program files/microchip/xc32/v2.50/bin/bin/../../lib/gcc/pic32mx/4.8.3/../../../../pic32mx/lib\libc.a(time.o)
 .gnu.attributes
                0x00000a10       0x10 c:/program files/microchip/xc32/v2.50/bin/bin/../../lib/gcc/pic32mx/4.8.3/../../../../pic32mx/lib\libc.a(snprintf_cdnopsuxX.eo)
 .gnu.attributes
                0x00000a20       0x10 c:/program files/microchip/xc32/v2.50/bin/bin/../../lib/gcc/pic32mx/4.8.3/../../../../pic32mx/lib\libc.a(sprintf_cdnopuxX.eo)
 .gnu.attributes
                0x00000a30       0x10 c:/program files/microchip/xc32/v2.50/bin/bin/../../lib/gcc/pic32mx/4.8.3/../../../../pic32mx/lib\libc.a(vsnprintf_cdnopsuxX.eo)
 .gnu.attributes
                0x00000a40       0x10 c:/program files/microchip/xc32/v2.50/bin/bin/../../lib/gcc/pic32mx/4.8.3/../../../../pic32mx/lib\libc.a(errno.o)
 .gnu.attributes
                0x00000a50       0x10 c:/program files/microchip/xc32/v2.50/bin/bin/../../lib/gcc/pic32mx/4.8.3/../../../../pic32mx/lib\libc.a(doprnt_cdnopsuxX.eo)
 .gnu.attributes
                0x00000a60       0x10 c:/program files/microchip/xc32/v2.50/bin/bin/../../lib/gcc/pic32mx/4.8.3/../../../../pic32mx/lib\libc.a(_fputc_simple.o)
 .gnu.attributes
                0x00000a70       0x10 c:/program files/microchip/xc32/v2.50/bin/bin/../../lib/gcc/pic32mx/4.8.3/../../../../pic32mx/lib\libc.a(_iob.o)
 .gnu.attributes
                0x00000a80       0x10 c:/program files/microchip/xc32/v2.50/bin/bin/../../lib/gcc/pic32mx/4.8.3/../../../../pic32mx/lib\libc.a(_flsbuf_simple.o)
 .gnu.attributes
                0x00000a90       0x10 c:/program files/microchip/xc32/v2.50/bin/bin/../../lib/gcc/pic32mx/4.8.3\libgcc.a(_umoddi3.o)
 .gnu.attributes
                0x00000aa0       0x10 c:/program files/microchip/xc32/v2.50/bin/bin/../../lib/gcc/pic32mx/4.8.3/../../../../pic32mx/lib\libpic32.a(sbrk.o)
 .gnu.attributes
                0x00000ab0       0x10 c:/program files/microchip/xc32/v2.50/bin/bin/../../lib/gcc/pic32mx/4.8.3/../../../../pic32mx/lib\libpic32.a(write.o)
                0x00000200                _min_heap_size = 0x200
LOAD C:\Users\user\AppData\Local\Temp\ccWnVuPa.o
LOAD C:\Users\user\AppData\Local\Temp\ccsDbrpg.o
LOAD C:\Users\user\AppData\Local\Temp\ccQYy8Ku.o
LOAD c:/program files/microchip/xc32/v2.50/bin/bin/../../lib/gcc/pic32mx/4.8.3/../../../../pic32mx/lib/./proc/32MX795F512L\default_isr_vectors.o
LOAD c:/program files/microchip/xc32/v2.50/bin/bin/../../lib/gcc/pic32mx/4.8.3/../../../../pic32mx/lib\pic32_software_reset.o
LOAD c:/program files/microchip/xc32/v2.50/bin/bin/../../lib/gcc/pic32mx/4.8.3\libgcc.a
START GROUP
LOAD c:/program files/microchip/xc32/v2.50/bin/bin/../../lib/gcc/pic32mx/4.8.3/../../../../pic32mx/lib\libpic32.a
LOAD c:/program files/microchip/xc32/v2.50/bin/bin/../../lib/gcc/pic32mx/4.8.3/../../../../pic32mx/lib\libdebug.a
LOAD c:/program files/microchip/xc32/v2.50/bin/bin/../../lib/gcc/pic32mx/4.8.3/../../../../pic32mx/lib\libpic32.a
LOAD c:/program files/microchip/xc32/v2.50/bin/bin/../../lib/gcc/pic32mx/4.8.3/../../../../pic32mx/lib\libc.a
LOAD c:/program files/microchip/xc32/v2.50/bin/bin/../../lib/gcc/pic32mx/4.8.3/../../../../pic32mx/lib\libc.a
LOAD c:/program files/microchip/xc32/v2.50/bin/bin/../../lib/gcc/pic32mx/4.8.3/../../../../pic32mx/lib\libm.a
LOAD c:/program files/microchip/xc32/v2.50/bin/bin/../../lib/gcc/pic32mx/4.8.3/../../../../pic32mx/lib\libe.a
LOAD c:/program files/microchip/xc32/v2.50/bin/bin/../../lib/gcc/pic32mx/4.8.3/../../../../pic32mx/lib\libdsp.a
LOAD c:/program files/microchip/xc32/v2.50/bin/bin/../../lib/gcc/pic32mx/4.8.3\libgcc.a
LOAD c:/program files/microchip/xc32/v2.50/bin/bin/../../lib/gcc/pic32mx/4.8.3/../../../../pic32mx/lib\libpic32.a
END GROUP
LOAD c:/program files/microchip/xc32/v2.50/bin/bin/../../lib/gcc/pic32mx/4.8.3\libgcc.a
OUTPUT(dist/default/production/SPI.X.production.elf elf32-tradlittlemips)
LOAD stack
LOAD data_init

.reginfo        0x00000000       0x18
 .reginfo       0x00000000       0x18 c:/program files/microchip/xc32/v2.50/bin/bin/../../lib/gcc/pic32mx/4.8.3/../../../../pic32mx/lib\debug-exception-return.o

.stack          0xa0008378      0x400
 .stack         0xa0008378      0x400 stack

.bss            0xa00001f0     0x7560
 .bss           0xa00001f0     0x6d60 build/default/production/_ext/1665200909/heap_1.o
 .bss           0xa0006f50      0x800 build/default/production/_ext/951553248/port.o
                0xa0006f50                xISRStack

.bss            0xa0007750      0x354
 .bss           0xa0007750      0x354 build/default/production/_ext/1033058136/tcpip_manager.o

.data           0xa0007aa4      0x108
 .data          0xa0007aa4      0x108 build/default/production/_ext/732082881/drv_ethmac.o

.bss            0xa0007bac      0x1f4
 .bss           0xa0007bac      0x108 build/default/production/_ext/753841488/sys_random_h2_adapter.o
 .bss           0xa0007cb4       0xec build/default/production/_ext/101884895/sys_time.o

.bss            0xa0007da0      0x160
 .bss           0xa0007da0       0xc8 build/default/production/_ext/404212886/FreeRTOS_tasks.o
 .bss           0xa0007e68       0x98 build/default/production/_ext/438849557/drv_miim.o

.bss            0xa0007f00       0xd4
 .bss           0xa0007f00       0x74 build/default/production/_ext/444070925/drv_ethphy.o
 .bss           0xa0007f74       0x60 build/default/production/_ext/1664057780/cryptocb.o

.bss            0xa0007fd4       0x90
 .bss           0xa0007fd4       0x4c build/default/production/_ext/1033058136/arp.o
 .bss           0xa0008020       0x44 c:/program files/microchip/xc32/v2.50/bin/bin/../../lib/gcc/pic32mx/4.8.3/../../../../pic32mx/lib\libc.a(_iob.o)
                0xa0008020                _sobuf
                0xa0008040                _sibuf
                0xa0008060                _outdone

.data           0xa0008064       0x38
 .data          0xa0008064       0x38 build/default/production/_ext/1171490990/initialization.o
                0xa0008064                tcpipHeapConfig
                0xa0008080                DHCP_POOL_CONFIG

.bss            0xa000809c       0x58
 .bss           0xa000809c       0x34 build/default/production/_ext/1033058136/ipv4.o
 .bss           0xa00080d0       0x24 c:/program files/microchip/xc32/v2.50/bin/bin/../../lib/gcc/pic32mx/4.8.3/../../../../pic32mx/lib\libpic32.a(sbrk.o)
                0xa00080ec                _maxbrk
                0xa00080f0                _minbrk

.bss            0xa00080f4       0x3c
 .bss           0xa00080f4       0x20 c:/program files/microchip/xc32/v2.50/bin/bin/../../lib/gcc/pic32mx/4.8.3/../../../../pic32mx/lib\libc.a(malloc.o)
                0xa00080f4                __allocx
                0xa00080fc                __alloct
                0xa0008100                __allocp
                0xa0008104                __allocs
 .bss           0xa0008114       0x1c build/default/production/_ext/1033058136/tcpip_announce.o

.bss            0xa0008130       0x14
 .bss           0xa0008130       0x14 build/default/production/_ext/1033058136/dhcps.o

.bss            0xa0008148       0x10
 .bss           0xa0008148       0x10 c:/program files/microchip/xc32/v2.50/bin/bin/../../lib/gcc/pic32mx/4.8.3/../../../../pic32mx/lib\libc.a(rand.o)

.bss.errno      0xa0008144        0x4
 .bss.errno     0xa0008144        0x4 c:/program files/microchip/xc32/v2.50/bin/bin/../../lib/gcc/pic32mx/4.8.3/../../../../pic32mx/lib\libc.a(errno.o)
                0xa0008144                errno

._debug_exception
                0xbfc00480       0x2c
 ._debug_exception
                0xbfc00480       0x2c c:/program files/microchip/xc32/v2.50/bin/bin/../../lib/gcc/pic32mx/4.8.3/../../../../pic32mx/lib\debug-exception-return.o
                0xbfc00480                __DbgExecReturn

.text.TCPIP_TCP_Task
                0x9d000000     0x150c
 .text.TCPIP_TCP_Task
                0x9d000000     0x150c build/default/production/_ext/1033058136/tcp.o
                0x9d000000                TCPIP_TCP_Task

.text._DHCPS_ProcessGetPktandSendResponse
                0x9d00150c      0xf6c
 .text._DHCPS_ProcessGetPktandSendResponse
                0x9d00150c      0xf6c build/default/production/_ext/1033058136/dhcps.o

.text._vfprintf_cdnopsuxX
                0x9d002478      0xc8c
 .text._vfprintf_cdnopsuxX
                0x9d002478      0xc8c c:/program files/microchip/xc32/v2.50/bin/bin/../../lib/gcc/pic32mx/4.8.3/../../../../pic32mx/lib\libc.a(doprnt_cdnopsuxX.eo)
                0x9d002478                _vfprintf_cdnopsuxX
                0x9d002478                _vfprintf_cdnopuxX

.text.Transform
                0x9d003104      0xa90
 .text.Transform
                0x9d003104      0xa90 build/default/production/_ext/1664057780/md5.o

.text._TcpSend  0x9d003b94      0x910
 .text._TcpSend
                0x9d003b94      0x910 build/default/production/_ext/1033058136/tcp.o

.text.TCPIP_STACK_Task
                0x9d0044a4      0x820
 .text.TCPIP_STACK_Task
                0x9d0044a4      0x820 build/default/production/_ext/1033058136/tcpip_manager.o
                0x9d0044a4                TCPIP_STACK_Task

.text.Hash_DRBG_Generate
                0x9d004cc4      0x53c
 .text.Hash_DRBG_Generate
                0x9d004cc4      0x53c build/default/production/_ext/1664057780/random.o

.text.DRV_ETHMAC_PIC32MACInitialize
                0x9d005200      0x500
 .text.DRV_ETHMAC_PIC32MACInitialize
                0x9d005200      0x500 build/default/production/_ext/732082881/drv_ethmac.o
                0x9d005200                DRV_ETHMAC_PIC32MACInitialize

.text.SPI_4_InterruptHandler
                0x9d005700      0x4d8
 .text.SPI_4_InterruptHandler
                0x9d005700      0x4d8 build/default/production/_ext/298189674/plib_spi4_master.o
                0x9d005700                SPI_4_InterruptHandler

.text.SPI_1_InterruptHandler
                0x9d005bd8      0x4d8
 .text.SPI_1_InterruptHandler
                0x9d005bd8      0x4d8 build/default/production/_ext/298189674/plib_spi1_master.o
                0x9d005bd8                SPI_1_InterruptHandler

.text.TCPIP_DHCPS_Initialize
                0x9d0060b0      0x4b0
 .text.TCPIP_DHCPS_Initialize
                0x9d0060b0      0x4b0 build/default/production/_ext/1033058136/dhcps.o
                0x9d0060b0                TCPIP_DHCPS_Initialize

.text.TCPIP_ARP_Task
                0x9d006560      0x4a0
 .text.TCPIP_ARP_Task
                0x9d006560      0x4a0 build/default/production/_ext/1033058136/arp.o
                0x9d006560                TCPIP_ARP_Task

.text._TCPIP_DoInitialize
                0x9d006a00      0x4a0
 .text._TCPIP_DoInitialize
                0x9d006a00      0x4a0 build/default/production/_ext/1033058136/tcpip_manager.o

.text.Transform_Sha256
                0x9d006ea0      0x470
 .text.Transform_Sha256
                0x9d006ea0      0x470 build/default/production/_ext/1664057780/sha256.o

.text           0x9d007310      0x8bc
 .text          0x9d007310      0x464 c:/program files/microchip/xc32/v2.50/bin/bin/../../lib/gcc/pic32mx/4.8.3\libgcc.a(_umoddi3.o)
                0x9d007310                __umoddi3
 .text          0x9d007774      0x458 c:/program files/microchip/xc32/v2.50/bin/bin/../../lib/gcc/pic32mx/4.8.3\libgcc.a(_udivdi3.o)
                0x9d007774                __udivdi3

.text           0x9d007bcc      0x454
 .text          0x9d007bcc      0x454 build/default/production/_ext/951553248/port_asm.o
                0x9d007bcc                vPortTickInterruptHandler
                0x9d007d78                vPortStartFirstTask
                0x9d007e40                vPortYieldISR

.text._TCP_Open
                0x9d008020      0x3dc
 .text._TCP_Open
                0x9d008020      0x3dc build/default/production/_ext/1033058136/tcp.o

.text.TCPIP_UDP_Task
                0x9d0083fc      0x3bc
 .text.TCPIP_UDP_Task
                0x9d0083fc      0x3bc build/default/production/_ext/1033058136/udp.o
                0x9d0083fc                TCPIP_UDP_Task

.dinit          0x9d0087b8      0x3a0
 .dinit         0x9d0087b8      0x3a0 data_init

.text.TCPIP_IPV4_Task
                0x9d008b58      0x380
 .text.TCPIP_IPV4_Task
                0x9d008b58      0x380 build/default/production/_ext/1033058136/ipv4.o
                0x9d008b58                TCPIP_IPV4_Task

.text.TCPIP_ARP_Initialize
                0x9d008ed8      0x37c
 .text.TCPIP_ARP_Initialize
                0x9d008ed8      0x37c build/default/production/_ext/1033058136/arp.o
                0x9d008ed8                TCPIP_ARP_Initialize

.text.TCPIP_ANNOUNCE_Task
                0x9d009254      0x37c
 .text.TCPIP_ANNOUNCE_Task
                0x9d009254      0x37c build/default/production/_ext/1033058136/tcpip_announce.o
                0x9d009254                TCPIP_ANNOUNCE_Task

.text._DRV_ETHPHY_DefaultDetect
                0x9d0095d0      0x344
 .text._DRV_ETHPHY_DefaultDetect
                0x9d0095d0      0x344 build/default/production/_ext/444070925/drv_ethphy.o

.text.wc_Sha256Final
                0x9d009914      0x340
 .text.wc_Sha256Final
                0x9d009914      0x340 build/default/production/_ext/1664057780/sha256.o
                0x9d009914                wc_Sha256Final

.text.TCPIP_UDP_Flush
                0x9d009c54      0x334
 .text.TCPIP_UDP_Flush
                0x9d009c54      0x334 build/default/production/_ext/1033058136/udp.o
                0x9d009c54                TCPIP_UDP_Flush

.text.APP_Tasks
                0x9d009f88      0x330
 .text.APP_Tasks
                0x9d009f88      0x330 build/default/production/_ext/1360937237/app.o
                0x9d009f88                APP_Tasks

.text.TCPIP_UDP_OptionsSet
                0x9d00a2b8      0x2f0
 .text.TCPIP_UDP_OptionsSet
                0x9d00a2b8      0x2f0 build/default/production/_ext/1033058136/udp.o
                0x9d00a2b8                TCPIP_UDP_OptionsSet

.text.TCPIP_STACK_BringNetUp
                0x9d00a5a8      0x2ec
 .text.TCPIP_STACK_BringNetUp
                0x9d00a5a8      0x2ec build/default/production/_ext/1033058136/tcpip_manager.o

.text._InitRng  0x9d00a894      0x2d4
 .text._InitRng
                0x9d00a894      0x2d4 build/default/production/_ext/1664057780/random.o

.text.xTaskCreate
                0x9d00ab68      0x2cc
 .text.xTaskCreate
                0x9d00ab68      0x2cc build/default/production/_ext/404212886/FreeRTOS_tasks.o
                0x9d00ab68                xTaskCreate

.text.TCPIP_IPV4_PacketTransmit
                0x9d00ae34      0x2bc
 .text.TCPIP_IPV4_PacketTransmit
                0x9d00ae34      0x2bc build/default/production/_ext/1033058136/ipv4.o
                0x9d00ae34                TCPIP_IPV4_PacketTransmit

.text.DRV_MIIM_Tasks
                0x9d00b0f0      0x2bc
 .text.DRV_MIIM_Tasks
                0x9d00b0f0      0x2bc build/default/production/_ext/438849557/drv_miim.o
                0x9d00b0f0                DRV_MIIM_Tasks

.text.SPI4_WriteRead
                0x9d00b3ac      0x2a0
 .text.SPI4_WriteRead
                0x9d00b3ac      0x2a0 build/default/production/_ext/298189674/plib_spi4_master.o
                0x9d00b3ac                SPI4_WriteRead

.text.TCPIP_TCP_ArrayPut
                0x9d00b64c      0x2a0
 .text.TCPIP_TCP_ArrayPut
                0x9d00b64c      0x2a0 build/default/production/_ext/1033058136/tcp.o
                0x9d00b64c                TCPIP_TCP_ArrayPut

.text.malloc    0x9d00b8ec      0x28c
 .text.malloc   0x9d00b8ec      0x28c c:/program files/microchip/xc32/v2.50/bin/bin/../../lib/gcc/pic32mx/4.8.3/../../../../pic32mx/lib\libc.a(malloc.o)
                0x9d00b8ec                malloc

.text.wc_Sha256Update
                0x9d00bb78      0x274
 .text.wc_Sha256Update
                0x9d00bb78      0x274 build/default/production/_ext/1664057780/sha256.o
                0x9d00bb78                wc_Sha256Update

.text._TcpCloseSocket
                0x9d00bdec      0x264
 .text._TcpCloseSocket
                0x9d00bdec      0x264 build/default/production/_ext/1033058136/tcp.o

.text.TCPIP_IPV4_PacketFormatTx
                0x9d00c050      0x264
 .text.TCPIP_IPV4_PacketFormatTx
                0x9d00c050      0x264 build/default/production/_ext/1033058136/ipv4.o
                0x9d00c050                TCPIP_IPV4_PacketFormatTx

.text           0x9d00c2b4      0x25c
 .text          0x9d00c2b4      0x25c build/default/production/_ext/1033058136/tcpip_helper_c32.o
                0x9d00c2b4                TCPIP_Helper_htonl
                0x9d00c2c0                TCPIP_Helper_htons
                0x9d00c2cc                TCPIP_Helper_htonll
                0x9d00c2e0                TCPIP_Helper_CalcIPChecksum

.text.Hash_df   0x9d00c510      0x25c
 .text.Hash_df  0x9d00c510      0x25c build/default/production/_ext/1664057780/random.o

.text.DRV_ETHMAC_PIC32MACPacketRx
                0x9d00c76c      0x24c
 .text.DRV_ETHMAC_PIC32MACPacketRx
                0x9d00c76c      0x24c build/default/production/_ext/732082881/drv_ethmac.o
                0x9d00c76c                DRV_ETHMAC_PIC32MACPacketRx

.text.xQueueSemaphoreTake
                0x9d00c9b8      0x22c
 .text.xQueueSemaphoreTake
                0x9d00c9b8      0x22c build/default/production/_ext/404212886/queue.o
                0x9d00c9b8                xQueueSemaphoreTake

.text.DRV_ETHMAC_LibRxBuffersAppend
                0x9d00cbe4      0x218
 .text.DRV_ETHMAC_LibRxBuffersAppend
                0x9d00cbe4      0x218 build/default/production/_ext/732082881/drv_ethmac_lib.o
                0x9d00cbe4                DRV_ETHMAC_LibRxBuffersAppend

.text.xQueueGenericSend
                0x9d00cdfc      0x20c
 .text.xQueueGenericSend
                0x9d00cdfc      0x20c build/default/production/_ext/404212886/queue.o
                0x9d00cdfc                xQueueGenericSend

.text._UDPOpen  0x9d00d008      0x200
 .text._UDPOpen
                0x9d00d008      0x200 build/default/production/_ext/1033058136/udp.o

.text.TCPIP_Helper_StringToIPAddress
                0x9d00d208      0x1f8
 .text.TCPIP_Helper_StringToIPAddress
                0x9d00d208      0x1f8 build/default/production/_ext/1033058136/tcpip_helpers.o
                0x9d00d208                TCPIP_Helper_StringToIPAddress

.text._LoadNetworkConfig
                0x9d00d400      0x1f8
 .text._LoadNetworkConfig
                0x9d00d400      0x1f8 build/default/production/_ext/1033058136/tcpip_manager.o

.text._TCPIP_HEAP_Free
                0x9d00d5f8      0x1f4
 .text._TCPIP_HEAP_Free
                0x9d00d5f8      0x1f4 build/default/production/_ext/1033058136/tcpip_heap_internal.o

.text._UDPv4TxAckFnc
                0x9d00d7ec      0x1ec
 .text._UDPv4TxAckFnc
                0x9d00d7ec      0x1ec build/default/production/_ext/1033058136/udp.o

.text.TCPIP_UDP_Bind
                0x9d00d9d8      0x1ec
 .text.TCPIP_UDP_Bind
                0x9d00d9d8      0x1ec build/default/production/_ext/1033058136/udp.o
                0x9d00d9d8                TCPIP_UDP_Bind

.text.SYS_TIME_PLIBCallback
                0x9d00dbc4      0x1e4
 .text.SYS_TIME_PLIBCallback
                0x9d00dbc4      0x1e4 build/default/production/_ext/101884895/sys_time.o

.text.TCPIP_UDP_OptionsGet
                0x9d00dda8      0x1e4
 .text.TCPIP_UDP_OptionsGet
                0x9d00dda8      0x1e4 build/default/production/_ext/1033058136/udp.o
                0x9d00dda8                TCPIP_UDP_OptionsGet

.text.wc_RNG_GenerateBlock
                0x9d00df8c      0x1e4
 .text.wc_RNG_GenerateBlock
                0x9d00df8c      0x1e4 build/default/production/_ext/1664057780/random.o
                0x9d00df8c                wc_RNG_GenerateBlock

.text.wc_Md5Update
                0x9d00e170      0x1e0
 .text.wc_Md5Update
                0x9d00e170      0x1e0 build/default/production/_ext/1664057780/md5.o
                0x9d00e170                wc_Md5Update

.text.TCPIP_UDP_Deinitialize
                0x9d00e350      0x1d8
 .text.TCPIP_UDP_Deinitialize
                0x9d00e350      0x1d8 build/default/production/_ext/1033058136/udp.o
                0x9d00e350                TCPIP_UDP_Deinitialize

.text.DRV_ETHMAC_PIC32MACPacketTx
                0x9d00e528      0x1cc
 .text.DRV_ETHMAC_PIC32MACPacketTx
                0x9d00e528      0x1cc build/default/production/_ext/732082881/drv_ethmac.o
                0x9d00e528                DRV_ETHMAC_PIC32MACPacketTx

.text._Tcpv4TxAckFnc
                0x9d00e6f4      0x1cc
 .text._Tcpv4TxAckFnc
                0x9d00e6f4      0x1cc build/default/production/_ext/1033058136/tcp.o

.text._EthAckPacket
                0x9d00e8c0      0x1bc
 .text._EthAckPacket
                0x9d00e8c0      0x1bc build/default/production/_ext/732082881/drv_ethmac_lib.o

.text.TCPIP_ANNOUNCE_Initialize
                0x9d00ea7c      0x1bc
 .text.TCPIP_ANNOUNCE_Initialize
                0x9d00ea7c      0x1bc build/default/production/_ext/1033058136/tcpip_announce.o
                0x9d00ea7c                TCPIP_ANNOUNCE_Initialize

.text.TCPIP_DHCPS_Task
                0x9d00ec38      0x1b8
 .text.TCPIP_DHCPS_Task
                0x9d00ec38      0x1b8 build/default/production/_ext/1033058136/dhcps.o
                0x9d00ec38                TCPIP_DHCPS_Task

.CORE_TIMER_Handler_vector_text
                0x9d00edf0      0x1b4
 .CORE_TIMER_Handler_vector_text
                0x9d00edf0      0x1b4 build/default/production/_ext/1171490990/interrupts_a.o

.TIMER_2_Handler_vector_text
                0x9d00efa4      0x1b4
 .TIMER_2_Handler_vector_text
                0x9d00efa4      0x1b4 build/default/production/_ext/1171490990/interrupts_a.o

.SPI_1_Handler_vector_text
                0x9d00f158      0x1b4
 .SPI_1_Handler_vector_text
                0x9d00f158      0x1b4 build/default/production/_ext/1171490990/interrupts_a.o

.SPI_4_Handler_vector_text
                0x9d00f30c      0x1b4
 .SPI_4_Handler_vector_text
                0x9d00f30c      0x1b4 build/default/production/_ext/1171490990/interrupts_a.o

.ETH_Handler_vector_text
                0x9d00f4c0      0x1b4
 .ETH_Handler_vector_text
                0x9d00f4c0      0x1b4 build/default/production/_ext/1171490990/interrupts_a.o

.text.TCPIP_UDP_ArrayGet
                0x9d00f674      0x1ac
 .text.TCPIP_UDP_ArrayGet
                0x9d00f674      0x1ac build/default/production/_ext/1033058136/udp.o
                0x9d00f674                TCPIP_UDP_ArrayGet

.rodata         0x9d00f820      0x1a8
 .rodata        0x9d00f820      0x1a8 build/default/production/_ext/1171490990/initialization.o
                0x9d00f820                sysTimeInitData
                0x9d00f828                sysTimePlibAPI
                0x9d00f844                TCPIP_STACK_MODULE_CONFIG_TBL_SIZE
                0x9d00f848                TCPIP_STACK_MODULE_CONFIG_TBL
                0x9d00f888                TCPIP_HOSTS_CONFIGURATION_SIZE
                0x9d00f8c4                TCPIP_HOSTS_CONFIGURATION
                0x9d00f8fc                tcpipIPv4InitData
                0x9d00f914                tcpipDHCPSInitData
                0x9d00f940                tcpipMACPIC32INTInitData
                0x9d00f960                tcpipPhyInitData
                0x9d00f984                tcpipTCPInitData
                0x9d00f98c                tcpipUDPInitData
                0x9d00f994                tcpipAnnounceInitData
                0x9d00f998                tcpipARPInitData

.text._ARPProbeAddress
                0x9d00f9c8      0x1a4
 .text._ARPProbeAddress
                0x9d00f9c8      0x1a4 build/default/production/_ext/1033058136/arp.o

.text.wc_Md5Final
                0x9d00fb6c      0x1a4
 .text.wc_Md5Final
                0x9d00fb6c      0x1a4 build/default/production/_ext/1664057780/md5.o
                0x9d00fb6c                wc_Md5Final

.text           0x9d00fd10      0x1a0
 .text          0x9d00fd10      0x1a0 c:/program files/microchip/xc32/v2.50/bin/bin/../../lib/gcc/pic32mx/4.8.3/../../../../pic32mx/lib\libpic32.a(strcpy.o)
                0x9d00fd10                strcpy

.text._EthAppendBusyList
                0x9d00feb0      0x19c
 .text._EthAppendBusyList
                0x9d00feb0      0x19c build/default/production/_ext/732082881/drv_ethmac_lib.o

.text.TCPIP_TCP_Initialize
                0x9d01004c      0x198
 .text.TCPIP_TCP_Initialize
                0x9d01004c      0x198 build/default/production/_ext/1033058136/tcp.o
                0x9d01004c                TCPIP_TCP_Initialize

.text.DRV_EXTPHY_MDIXConfigure
                0x9d0101e4      0x198
 .text.DRV_EXTPHY_MDIXConfigure
                0x9d0101e4      0x198 build/default/production/_ext/444070925/drv_extphy_smsc8720.o

.text.xTaskIncrementTick
                0x9d01037c      0x198
 .text.xTaskIncrementTick
                0x9d01037c      0x198 build/default/production/_ext/404212886/FreeRTOS_tasks.o
                0x9d01037c                xTaskIncrementTick

.text._DRV_ETHMAC_AddRxBuffers
                0x9d010514      0x194
 .text._DRV_ETHMAC_AddRxBuffers
                0x9d010514      0x194 build/default/production/_ext/732082881/drv_ethmac.o

.text.DRV_ETHMAC_LibRxGetPacket
                0x9d0106a8      0x194
 .text.DRV_ETHMAC_LibRxGetPacket
                0x9d0106a8      0x194 build/default/production/_ext/732082881/drv_ethmac_lib.o
                0x9d0106a8                DRV_ETHMAC_LibRxGetPacket

.text.DRV_MIIM_Setup
                0x9d01083c      0x194
 .text.DRV_MIIM_Setup
                0x9d01083c      0x194 build/default/production/_ext/438849557/drv_miim.o
                0x9d01083c                DRV_MIIM_Setup

.text._sbrk_init
                0x9d0109d0      0x194
 .text._sbrk_init
                0x9d0109d0      0x194 c:/program files/microchip/xc32/v2.50/bin/bin/../../lib/gcc/pic32mx/4.8.3/../../../../pic32mx/lib\libpic32.a(sbrk.o)
                0x9d0109d0                _sbrk_init

.text.TCPIP_TCP_ArrayGet
                0x9d010b64      0x18c
 .text.TCPIP_TCP_ArrayGet
                0x9d010b64      0x18c build/default/production/_ext/1033058136/tcp.o
                0x9d010b64                TCPIP_TCP_ArrayGet

.text.TCPIP_IPV4_Initialize
                0x9d010cf0      0x18c
 .text.TCPIP_IPV4_Initialize
                0x9d010cf0      0x18c build/default/production/_ext/1033058136/ipv4.o
                0x9d010cf0                TCPIP_IPV4_Initialize

.text.DRV_ETHMAC_LibRxAcknowledgeBuffer
                0x9d010e7c      0x184
 .text.DRV_ETHMAC_LibRxAcknowledgeBuffer
                0x9d010e7c      0x184 build/default/production/_ext/732082881/drv_ethmac_lib.o
                0x9d010e7c                DRV_ETHMAC_LibRxAcknowledgeBuffer

.text.SYS_TIME_HwTimerCompareUpdate
                0x9d011000      0x180
 .text.SYS_TIME_HwTimerCompareUpdate
                0x9d011000      0x180 build/default/production/_ext/101884895/sys_time.o

.rodata         0x9d011180      0x180
 .rodata        0x9d011180      0x180 build/default/production/_ext/1664057780/random.o
                0x9d011180                outputB_data
                0x9d011200                seedB_data
                0x9d011230                outputA_data
                0x9d0112b0                reseedSeedA_data
                0x9d0112d0                seedA_data

.text.TCPIP_Helper_StringToMACAddress
                0x9d011300      0x17c
 .text.TCPIP_Helper_StringToMACAddress
                0x9d011300      0x17c build/default/production/_ext/1033058136/tcpip_helpers.o
                0x9d011300                TCPIP_Helper_StringToMACAddress

.text._DRV_MIIM_ClientDeallocate
                0x9d01147c      0x17c
 .text._DRV_MIIM_ClientDeallocate
                0x9d01147c      0x17c build/default/production/_ext/438849557/drv_miim.o

.text.TCPIP_TCP_Deinitialize
                0x9d0115f8      0x174
 .text.TCPIP_TCP_Deinitialize
                0x9d0115f8      0x174 build/default/production/_ext/1033058136/tcp.o
                0x9d0115f8                TCPIP_TCP_Deinitialize

.text._DRV_ETHPHY_NegResultPhase_ANAD
                0x9d01176c      0x174
 .text._DRV_ETHPHY_NegResultPhase_ANAD
                0x9d01176c      0x174 build/default/production/_ext/444070925/drv_ethphy.o

.text.TCPIP_HEAP_CreateInternal
                0x9d0118e0      0x170
 .text.TCPIP_HEAP_CreateInternal
                0x9d0118e0      0x170 build/default/production/_ext/1033058136/tcpip_heap_internal.o
                0x9d0118e0                TCPIP_HEAP_CreateInternal

.text.TCPIP_IPV4_ArpHandler
                0x9d011a50      0x16c
 .text.TCPIP_IPV4_ArpHandler
                0x9d011a50      0x16c build/default/production/_ext/1033058136/ipv4.o

.text._DRV_MIIM_StartOp
                0x9d011bbc      0x16c
 .text._DRV_MIIM_StartOp
                0x9d011bbc      0x16c build/default/production/_ext/438849557/drv_miim.o

.text._DRV_ETHPHY_SetupPhaseReset
                0x9d011d28      0x168
 .text._DRV_ETHPHY_SetupPhaseReset
                0x9d011d28      0x168 build/default/production/_ext/444070925/drv_ethphy.o

.text           0x9d011e90      0x2d0
 .text          0x9d011e90      0x168 c:/program files/microchip/xc32/v2.50/bin/bin/../../lib/gcc/pic32mx/4.8.3/../../../../pic32mx/lib\libpic32.a(memcpy.o)
                0x9d011e90                memcpy
 .text          0x9d011ff8      0x168 c:/program files/microchip/xc32/v2.50/bin/bin/../../lib/gcc/pic32mx/4.8.3/../../../../pic32mx/lib\libpic32.a(strlen.o)
                0x9d011ff8                strlen

.text.DRV_ETHMAC_PIC32MACEventMaskSet
                0x9d012160      0x158
 .text.DRV_ETHMAC_PIC32MACEventMaskSet
                0x9d012160      0x158 build/default/production/_ext/732082881/drv_ethmac.o
                0x9d012160                DRV_ETHMAC_PIC32MACEventMaskSet

.text.DRV_ETHMAC_LibTxSendPacket
                0x9d0122b8      0x158
 .text.DRV_ETHMAC_LibTxSendPacket
                0x9d0122b8      0x158 build/default/production/_ext/732082881/drv_ethmac_lib.o
                0x9d0122b8                DRV_ETHMAC_LibTxSendPacket

.text._ARPSendIfPkt
                0x9d012410      0x154
 .text._ARPSendIfPkt
                0x9d012410      0x154 build/default/production/_ext/1033058136/arp.o

.text.SYS_TIME_Initialize
                0x9d012564      0x154
 .text.SYS_TIME_Initialize
                0x9d012564      0x154 build/default/production/_ext/101884895/sys_time.o
                0x9d012564                SYS_TIME_Initialize

.text.TCPIP_UDP_OpenServerSkt
                0x9d0126b8      0x154
 .text.TCPIP_UDP_OpenServerSkt
                0x9d0126b8      0x154 build/default/production/_ext/1033058136/udp.o
                0x9d0126b8                TCPIP_UDP_OpenServerSkt

.text._DRV_ETHPHY_SetupPhaseDetect
                0x9d01280c      0x154
 .text._DRV_ETHPHY_SetupPhaseDetect
                0x9d01280c      0x154 build/default/production/_ext/444070925/drv_ethphy.o

.text.Hash_DRBG_Reseed
                0x9d012960      0x154
 .text.Hash_DRBG_Reseed
                0x9d012960      0x154 build/default/production/_ext/1664057780/random.o

.text._TcpDisconnect
                0x9d012ab4      0x150
 .text._TcpDisconnect
                0x9d012ab4      0x150 build/default/production/_ext/1033058136/tcp.o

.text._TCPIP_HEAP_Malloc
                0x9d012c04      0x150
 .text._TCPIP_HEAP_Malloc
                0x9d012c04      0x150 build/default/production/_ext/1033058136/tcpip_heap_internal.o

.text._TCP_SktSetSequenceNo
                0x9d012d54      0x14c
 .text._TCP_SktSetSequenceNo
                0x9d012d54      0x14c build/default/production/_ext/1033058136/tcp.o

.text.TCPIP_IPV4_DeInitialize
                0x9d012ea0      0x14c
 .text.TCPIP_IPV4_DeInitialize
                0x9d012ea0      0x14c build/default/production/_ext/1033058136/ipv4.o
                0x9d012ea0                TCPIP_IPV4_DeInitialize

.text.DRV_ETHPHY_Setup
                0x9d012fec      0x148
 .text.DRV_ETHPHY_Setup
                0x9d012fec      0x148 build/default/production/_ext/444070925/drv_ethphy.o
                0x9d012fec                DRV_ETHPHY_Setup

.text.xTaskResumeAll
                0x9d013134      0x148
 .text.xTaskResumeAll
                0x9d013134      0x148 build/default/production/_ext/404212886/FreeRTOS_tasks.o
                0x9d013134                xTaskResumeAll

.text.fputc     0x9d01327c      0x144
 .text.fputc    0x9d01327c      0x144 c:/program files/microchip/xc32/v2.50/bin/bin/../../lib/gcc/pic32mx/4.8.3/../../../../pic32mx/lib\libc.a(_fputc_simple.o)
                0x9d01327c                fputc

.text.TCPIP_UDP_Initialize
                0x9d0133c0      0x140
 .text.TCPIP_UDP_Initialize
                0x9d0133c0      0x140 build/default/production/_ext/1033058136/udp.o
                0x9d0133c0                TCPIP_UDP_Initialize

.text._DHCPS_StartOperation
                0x9d013500      0x13c
 .text._DHCPS_StartOperation
                0x9d013500      0x13c build/default/production/_ext/1033058136/dhcps.o

.text.DRV_MIIM_OperationResult
                0x9d01363c      0x138
 .text.DRV_MIIM_OperationResult
                0x9d01363c      0x138 build/default/production/_ext/438849557/drv_miim.o
                0x9d01363c                DRV_MIIM_OperationResult

.text.DRV_ETHMAC_PIC32MACTasks
                0x9d013774      0x134
 .text.DRV_ETHMAC_PIC32MACTasks
                0x9d013774      0x134 build/default/production/_ext/732082881/drv_ethmac.o
                0x9d013774                DRV_ETHMAC_PIC32MACTasks

.text.DRV_ETHMAC_PIC32MACRxFilterHashTableEntrySet
                0x9d0138a8      0x130
 .text.DRV_ETHMAC_PIC32MACRxFilterHashTableEntrySet
                0x9d0138a8      0x130 build/default/production/_ext/732082881/drv_ethmac.o
                0x9d0138a8                DRV_ETHMAC_PIC32MACRxFilterHashTableEntrySet

.text.DRV_ETHMAC_LibDescriptorsPoolAdd
                0x9d0139d8      0x130
 .text.DRV_ETHMAC_LibDescriptorsPoolAdd
                0x9d0139d8      0x130 build/default/production/_ext/732082881/drv_ethmac_lib.o
                0x9d0139d8                DRV_ETHMAC_LibDescriptorsPoolAdd

.text._GetMaxSegSizeOption
                0x9d013b08      0x130
 .text._GetMaxSegSizeOption
                0x9d013b08      0x130 build/default/production/_ext/1033058136/tcp.o

.text._ARPDeleteResources
                0x9d013c38      0x130
 .text._ARPDeleteResources
                0x9d013c38      0x130 build/default/production/_ext/1033058136/arp.o

.text.SYS_TIME_TimerObjectCreate
                0x9d013d68      0x130
 .text.SYS_TIME_TimerObjectCreate
                0x9d013d68      0x130 build/default/production/_ext/101884895/sys_time.o

.text._DRV_PHY_SMITransferStart
                0x9d013e98      0x130
 .text._DRV_PHY_SMITransferStart
                0x9d013e98      0x130 build/default/production/_ext/444070925/drv_ethphy.o

.text._flsbuf   0x9d013fc8      0x12c
 .text._flsbuf  0x9d013fc8      0x12c c:/program files/microchip/xc32/v2.50/bin/bin/../../lib/gcc/pic32mx/4.8.3/../../../../pic32mx/lib\libc.a(_flsbuf_simple.o)
                0x9d013fc8                _flsbuf

.text.xTaskPriorityInherit
                0x9d0140f4      0x128
 .text.xTaskPriorityInherit
                0x9d0140f4      0x128 build/default/production/_ext/404212886/FreeRTOS_tasks.o
                0x9d0140f4                xTaskPriorityInherit

.text._OAHashFindBkt
                0x9d01421c      0x124
 .text._OAHashFindBkt
                0x9d01421c      0x124 build/default/production/_ext/1033058136/oahash.o

.rodata         0x9d014340      0x120
 .rodata        0x9d014340      0x120 build/default/production/_ext/732082881/drv_ethmac.o
                0x9d014408                DRV_ETHMAC_PIC32MACObject

.text.TCPIP_ARP_IsResolved
                0x9d014460      0x120
 .text.TCPIP_ARP_IsResolved
                0x9d014460      0x120 build/default/production/_ext/1033058136/arp.o
                0x9d014460                TCPIP_ARP_IsResolved

.text.TCPIP_Helper_PacketCopy
                0x9d014580      0x120
 .text.TCPIP_Helper_PacketCopy
                0x9d014580      0x120 build/default/production/_ext/1033058136/tcpip_helpers.o
                0x9d014580                TCPIP_Helper_PacketCopy

.text           0x9d0146a0      0x120
 .text          0x9d0146a0      0x120 c:/program files/microchip/xc32/v2.50/bin/bin/../../lib/gcc/pic32mx/4.8.3/../../../../pic32mx/lib\libpic32.a(strcmp.o)
                0x9d0146a0                strcmp

.text.DRV_ETHMAC_PIC32MACStatisticsGet
                0x9d0147c0      0x11c
 .text.DRV_ETHMAC_PIC32MACStatisticsGet
                0x9d0147c0      0x11c build/default/production/_ext/732082881/drv_ethmac.o
                0x9d0147c0                DRV_ETHMAC_PIC32MACStatisticsGet

.text.TCPIP_UDP_RemoteBind
                0x9d0148dc      0x11c
 .text.TCPIP_UDP_RemoteBind
                0x9d0148dc      0x11c build/default/production/_ext/1033058136/udp.o
                0x9d0148dc                TCPIP_UDP_RemoteBind

.text._MACDeinit
                0x9d0149f8      0x118
 .text._MACDeinit
                0x9d0149f8      0x118 build/default/production/_ext/732082881/drv_ethmac.o

.text.TCPIP_Helper_PacketChecksum
                0x9d014b10      0x118
 .text.TCPIP_Helper_PacketChecksum
                0x9d014b10      0x118 build/default/production/_ext/1033058136/tcpip_helpers.o
                0x9d014b10                TCPIP_Helper_PacketChecksum

.text.DRV_MIIM_Initialize
                0x9d014c28      0x118
 .text.DRV_MIIM_Initialize
                0x9d014c28      0x118 build/default/production/_ext/438849557/drv_miim.o
                0x9d014c28                DRV_MIIM_Initialize

.text._MacRxPacketAck
                0x9d014d40      0x114
 .text._MacRxPacketAck
                0x9d014d40      0x114 build/default/production/_ext/732082881/drv_ethmac.o

.text.TCPIP_TCP_ServerOpen
                0x9d014e54      0x114
 .text.TCPIP_TCP_ServerOpen
                0x9d014e54      0x114 build/default/production/_ext/1033058136/tcp.o
                0x9d014e54                TCPIP_TCP_ServerOpen

.text.SYS_TIME_AddToList
                0x9d014f68      0x114
 .text.SYS_TIME_AddToList
                0x9d014f68      0x114 build/default/production/_ext/101884895/sys_time.o

.text.TCPIP_STACK_KillStack
                0x9d01507c      0x114
 .text.TCPIP_STACK_KillStack
                0x9d01507c      0x114 build/default/production/_ext/1033058136/tcpip_manager.o

.text.DRV_MIIM_Open
                0x9d015190      0x114
 .text.DRV_MIIM_Open
                0x9d015190      0x114 build/default/production/_ext/438849557/drv_miim.o
                0x9d015190                DRV_MIIM_Open

.text._TCPIPStackModuleRxPurge
                0x9d0152a4      0x110
 .text._TCPIPStackModuleRxPurge
                0x9d0152a4      0x110 build/default/production/_ext/1033058136/tcpip_manager.o
                0x9d0152a4                _TCPIPStackModuleRxPurge

.text._UDPv4AllocateSktTxBuffer
                0x9d0153b4      0x108
 .text._UDPv4AllocateSktTxBuffer
                0x9d0153b4      0x108 build/default/production/_ext/1033058136/udp.o

.text._UDPsetPacketInfo
                0x9d0154bc      0x104
 .text._UDPsetPacketInfo
                0x9d0154bc      0x104 build/default/production/_ext/1033058136/udp.o

.rodata         0x9d0155c0      0x104
 .rodata        0x9d0155c0      0x104 c:/program files/microchip/xc32/v2.50/bin/bin/../../lib/gcc/pic32mx/4.8.3/../../../../pic32mx/lib\libc.a(ctype.o)
                0x9d0155c0                _ctype

.text.DRV_ETHMAC_Tasks_ISR
                0x9d0156c4      0x100
 .text.DRV_ETHMAC_Tasks_ISR
                0x9d0156c4      0x100 build/default/production/_ext/732082881/drv_ethmac.o
                0x9d0156c4                DRV_ETHMAC_Tasks_ISR

.text.wc_RNG_HealthTest_ex
                0x9d0157c4      0x100
 .text.wc_RNG_HealthTest_ex
                0x9d0157c4      0x100 build/default/production/_ext/1664057780/random.o
                0x9d0157c4                wc_RNG_HealthTest_ex

.rodata         0x9d0158c4      0x100
 .rodata        0x9d0158c4      0x100 build/default/production/_ext/1664057780/sha256.o

.text.prvUnlockQueue
                0x9d0159c4      0x100
 .text.prvUnlockQueue
                0x9d0159c4      0x100 build/default/production/_ext/404212886/queue.o

.text.SYS_Initialize
                0x9d015ac4       0xf8
 .text.SYS_Initialize
                0x9d015ac4       0xf8 build/default/production/_ext/1171490990/initialization.o
                0x9d015ac4                SYS_Initialize

.text.DRV_ETHMAC_LibInit
                0x9d015bbc       0xf8
 .text.DRV_ETHMAC_LibInit
                0x9d015bbc       0xf8 build/default/production/_ext/732082881/drv_ethmac_lib.o
                0x9d015bbc                DRV_ETHMAC_LibInit

.text.DRV_ETHMAC_LibMACOpen
                0x9d015cb4       0xf8
 .text.DRV_ETHMAC_LibMACOpen
                0x9d015cb4       0xf8 build/default/production/_ext/732082881/drv_ethmac_lib.o
                0x9d015cb4                DRV_ETHMAC_LibMACOpen

.text.TCPIP_UDP_Disconnect
                0x9d015dac       0xf8
 .text.TCPIP_UDP_Disconnect
                0x9d015dac       0xf8 build/default/production/_ext/1033058136/udp.o
                0x9d015dac                TCPIP_UDP_Disconnect

.text._DRV_ETHPHY_NegCompletePhaseAN_Restart
                0x9d015ea4       0xf8
 .text._DRV_ETHPHY_NegCompletePhaseAN_Restart
                0x9d015ea4       0xf8 build/default/production/_ext/444070925/drv_ethphy.o

.text._DRV_ETHPHY_SetupPhaseNegotiate_SubPhase0
                0x9d015f9c       0xf8
 .text._DRV_ETHPHY_SetupPhaseNegotiate_SubPhase0
                0x9d015f9c       0xf8 build/default/production/_ext/444070925/drv_ethphy.o

.rodata         0x9d016094       0xf8
 .rodata        0x9d016094       0xf8 build/default/production/_ext/444070925/drv_ethphy.o
                0x9d0160b4                DRV_ETHPHY_OBJECT_BASE_Default

.text.xTaskPriorityDisinherit
                0x9d01618c       0xf8
 .text.xTaskPriorityDisinherit
                0x9d01618c       0xf8 build/default/production/_ext/404212886/FreeRTOS_tasks.o
                0x9d01618c                xTaskPriorityDisinherit

.text._TCPIP_PKT_PacketAlloc
                0x9d016284       0xf4
 .text._TCPIP_PKT_PacketAlloc
                0x9d016284       0xf4 build/default/production/_ext/1033058136/tcpip_packet.o
                0x9d016284                _TCPIP_PKT_PacketAlloc

.text._DRV_ETHPHY_ResetPhaseRead
                0x9d016378       0xf4
 .text._DRV_ETHPHY_ResetPhaseRead
                0x9d016378       0xf4 build/default/production/_ext/444070925/drv_ethphy.o

.text.prvCopyDataToQueue
                0x9d01646c       0xf4
 .text.prvCopyDataToQueue
                0x9d01646c       0xf4 build/default/production/_ext/404212886/queue.o

.text.vTaskPriorityDisinheritAfterTimeout
                0x9d016560       0xf4
 .text.vTaskPriorityDisinheritAfterTimeout
                0x9d016560       0xf4 build/default/production/_ext/404212886/FreeRTOS_tasks.o
                0x9d016560                vTaskPriorityDisinheritAfterTimeout

.text.DRV_ETHMAC_PIC32MACProcess
                0x9d016654       0xec
 .text.DRV_ETHMAC_PIC32MACProcess
                0x9d016654       0xec build/default/production/_ext/732082881/drv_ethmac.o
                0x9d016654                DRV_ETHMAC_PIC32MACProcess

.text._DHCPSAddCompleteEntry
                0x9d016740       0xe8
 .text._DHCPSAddCompleteEntry
                0x9d016740       0xe8 build/default/production/_ext/1033058136/dhcps.o

.text._TCPIP_StackSyncFunction
                0x9d016828       0xe8
 .text._TCPIP_StackSyncFunction
                0x9d016828       0xe8 build/default/production/_ext/1033058136/tcpip_manager.o

.text.Hash_DRBG_Instantiate
                0x9d016910       0xe4
 .text.Hash_DRBG_Instantiate
                0x9d016910       0xe4 build/default/production/_ext/1664057780/random.o

.text.prvAddCurrentTaskToDelayedList
                0x9d0169f4       0xe4
 .text.prvAddCurrentTaskToDelayedList
                0x9d0169f4       0xe4 build/default/production/_ext/404212886/FreeRTOS_tasks.o

.text._TcpAbort
                0x9d016ad8       0xe0
 .text._TcpAbort
                0x9d016ad8       0xe0 build/default/production/_ext/1033058136/tcp.o

.text.TCPIP_OAHASH_EntryLookup
                0x9d016bb8       0xe0
 .text.TCPIP_OAHASH_EntryLookup
                0x9d016bb8       0xe0 build/default/production/_ext/1033058136/oahash.o
                0x9d016bb8                TCPIP_OAHASH_EntryLookup

.text.TCPIP_STACK_BringNetDown
                0x9d016c98       0xe0
 .text.TCPIP_STACK_BringNetDown
                0x9d016c98       0xe0 build/default/production/_ext/1033058136/tcpip_manager.o

.text.vTaskSwitchContext
                0x9d016d78       0xe0
 .text.vTaskSwitchContext
                0x9d016d78       0xe0 build/default/production/_ext/404212886/FreeRTOS_tasks.o
                0x9d016d78                vTaskSwitchContext

.text.general_exception
                0x9d016e58       0xdc
 .text.general_exception
                0x9d016e58       0xdc c:/program files/microchip/xc32/v2.50/bin/bin/../../lib/gcc/pic32mx/4.8.3/../../../../pic32mx/lib\libpic32.a(general-exception.o)
                0x9d016e58                _general_exception_context

.text._ARPUpdateEntry
                0x9d016f34       0xd8
 .text._ARPUpdateEntry
                0x9d016f34       0xd8 build/default/production/_ext/1033058136/arp.o

.text._DRV_ETHPHY_NegResultPhase_BMSTAT
                0x9d01700c       0xd8
 .text._DRV_ETHPHY_NegResultPhase_BMSTAT
                0x9d01700c       0xd8 build/default/production/_ext/444070925/drv_ethphy.o

.text._DRV_ETHPHY_SetupPhaseNegotiate_SubPhase4
                0x9d0170e4       0xd8
 .text._DRV_ETHPHY_SetupPhaseNegotiate_SubPhase4
                0x9d0170e4       0xd8 build/default/production/_ext/444070925/drv_ethphy.o

.text.wc_CryptoCb_Sha256Hash
                0x9d0171bc       0xd8
 .text.wc_CryptoCb_Sha256Hash
                0x9d0171bc       0xd8 build/default/production/_ext/1664057780/cryptocb.o
                0x9d0171bc                wc_CryptoCb_Sha256Hash

.text._MacTxPendingPackets
                0x9d017294       0xd4
 .text._MacTxPendingPackets
                0x9d017294       0xd4 build/default/production/_ext/732082881/drv_ethmac.o

.text._DRV_ETHMAC_LinkStateNegResult
                0x9d017368       0xd0
 .text._DRV_ETHMAC_LinkStateNegResult
                0x9d017368       0xd0 build/default/production/_ext/732082881/drv_ethmac.o

.text.DRV_ETHPHY_Open
                0x9d017438       0xd0
 .text.DRV_ETHPHY_Open
                0x9d017438       0xd0 build/default/production/_ext/444070925/drv_ethphy.o
                0x9d017438                DRV_ETHPHY_Open

.text.wc_GenerateSeed
                0x9d017508       0xd0
 .text.wc_GenerateSeed
                0x9d017508       0xd0 build/default/production/_ext/1664057780/random.o
                0x9d017508                wc_GenerateSeed

.rodata         0x9d0175d8       0xd0
 .rodata        0x9d0175d8       0xd0 c:/program files/microchip/xc32/v2.50/bin/bin/../../lib/gcc/pic32mx/4.8.3/../../../../pic32mx/lib\libc.a(doprnt_cdnopsuxX.eo)

.text.TCPIP_OAHASH_EntryLookupOrInsert
                0x9d0176a8       0xc8
 .text.TCPIP_OAHASH_EntryLookupOrInsert
                0x9d0176a8       0xc8 build/default/production/_ext/1033058136/oahash.o
                0x9d0176a8                TCPIP_OAHASH_EntryLookupOrInsert

.text._sbrk     0x9d017770       0xc8
 .text._sbrk    0x9d017770       0xc8 c:/program files/microchip/xc32/v2.50/bin/bin/../../lib/gcc/pic32mx/4.8.3/../../../../pic32mx/lib\libpic32.a(sbrk.o)
                0x9d017770                _sbrk

.text.TCPIP_UDP_SocketInfoGet
                0x9d017838       0xc4
 .text.TCPIP_UDP_SocketInfoGet
                0x9d017838       0xc4 build/default/production/_ext/1033058136/udp.o
                0x9d017838                TCPIP_UDP_SocketInfoGet

.text.wc_CryptoCb_RandomBlock
                0x9d0178fc       0xc0
 .text.wc_CryptoCb_RandomBlock
                0x9d0178fc       0xc0 build/default/production/_ext/1664057780/cryptocb.o
                0x9d0178fc                wc_CryptoCb_RandomBlock

.text.xQueueGenericReset
                0x9d0179bc       0xc0
 .text.xQueueGenericReset
                0x9d0179bc       0xc0 build/default/production/_ext/404212886/queue.o
                0x9d0179bc                xQueueGenericReset

.text.TCPIP_DHCPS_HashDeleteEntry
                0x9d017a7c       0xbc
 .text.TCPIP_DHCPS_HashDeleteEntry
                0x9d017a7c       0xbc build/default/production/_ext/1033058136/dhcps.o
                0x9d017a7c                TCPIP_DHCPS_HashDeleteEntry

.text.TCPIP_UDP_ArrayPut
                0x9d017b38       0xbc
 .text.TCPIP_UDP_ArrayPut
                0x9d017b38       0xbc build/default/production/_ext/1033058136/udp.o
                0x9d017b38                TCPIP_UDP_ArrayPut

.text.xTaskRemoveFromEventList
                0x9d017bf4       0xbc
 .text.xTaskRemoveFromEventList
                0x9d017bf4       0xbc build/default/production/_ext/404212886/FreeRTOS_tasks.o
                0x9d017bf4                xTaskRemoveFromEventList

.text.TCPIP_PKT_DataSegmentGet
                0x9d017cb0       0xb8
 .text.TCPIP_PKT_DataSegmentGet
                0x9d017cb0       0xb8 build/default/production/_ext/1033058136/tcpip_packet.o
                0x9d017cb0                TCPIP_PKT_DataSegmentGet

.text._DRV_ETHPHY_NegCompletePhaseRead2
                0x9d017d68       0xb8
 .text._DRV_ETHPHY_NegCompletePhaseRead2
                0x9d017d68       0xb8 build/default/production/_ext/444070925/drv_ethphy.o

.text.wc_InitSha256_ex
                0x9d017e20       0xb8
 .text.wc_InitSha256_ex
                0x9d017e20       0xb8 build/default/production/_ext/1664057780/sha256.o
                0x9d017e20                wc_InitSha256_ex

.text.DRV_ETHMAC_PIC32MACEventAcknowledge
                0x9d017ed8       0xb4
 .text.DRV_ETHMAC_PIC32MACEventAcknowledge
                0x9d017ed8       0xb4 build/default/production/_ext/732082881/drv_ethmac.o
                0x9d017ed8                DRV_ETHMAC_PIC32MACEventAcknowledge

.text._EthTxSchedBuffer
                0x9d017f8c       0xb4
 .text._EthTxSchedBuffer
                0x9d017f8c       0xb4 build/default/production/_ext/732082881/drv_ethmac_lib.o

.text._ARPNotifyClients
                0x9d018040       0xb4
 .text._ARPNotifyClients
                0x9d018040       0xb4 build/default/production/_ext/1033058136/arp.o

.text.SYS_TIME_TimerStart
                0x9d0180f4       0xb4
 .text.SYS_TIME_TimerStart
                0x9d0180f4       0xb4 build/default/production/_ext/101884895/sys_time.o
                0x9d0180f4                SYS_TIME_TimerStart

.text._DHCPSrvClose
                0x9d0181a8       0xb4
 .text._DHCPSrvClose
                0x9d0181a8       0xb4 build/default/production/_ext/1033058136/dhcps.o

.text._TCPIPStackInsertRxPacket
                0x9d01825c       0xb4
 .text._TCPIPStackInsertRxPacket
                0x9d01825c       0xb4 build/default/production/_ext/1033058136/tcpip_manager.o
                0x9d01825c                _TCPIPStackInsertRxPacket

.text.OSAL_SEM_Create
                0x9d018310       0xb4
 .text.OSAL_SEM_Create
                0x9d018310       0xb4 build/default/production/_ext/1529399856/osal_freertos.o
                0x9d018310                OSAL_SEM_Create

.text.TCPIP_UDP_BcastIPV4AddressSet
                0x9d0183c4       0xb4
 .text.TCPIP_UDP_BcastIPV4AddressSet
                0x9d0183c4       0xb4 build/default/production/_ext/1033058136/udp.o
                0x9d0183c4                TCPIP_UDP_BcastIPV4AddressSet

.text.DRV_MIIM_OperationAbort
                0x9d018478       0xb4
 .text.DRV_MIIM_OperationAbort
                0x9d018478       0xb4 build/default/production/_ext/438849557/drv_miim.o
                0x9d018478                DRV_MIIM_OperationAbort

.text.DRV_ETHPHY_VendorSMIReadResultGet
                0x9d01852c       0xb4
 .text.DRV_ETHPHY_VendorSMIReadResultGet
                0x9d01852c       0xb4 build/default/production/_ext/444070925/drv_ethphy.o
                0x9d01852c                DRV_ETHPHY_VendorSMIReadResultGet

.text._DRV_ETHMAC_LinkStateWaitLinkUp
                0x9d0185e0       0xb0
 .text._DRV_ETHMAC_LinkStateWaitLinkUp
                0x9d0185e0       0xb0 build/default/production/_ext/732082881/drv_ethmac.o

.text.DRV_ETHMAC_LibTxAcknowledgeBuffer
                0x9d018690       0xb0
 .text.DRV_ETHMAC_LibTxAcknowledgeBuffer
                0x9d018690       0xb0 build/default/production/_ext/732082881/drv_ethmac_lib.o
                0x9d018690                DRV_ETHMAC_LibTxAcknowledgeBuffer

.text.SYS_TIME_CallbackRegisterMS
                0x9d018740       0xb0
 .text.SYS_TIME_CallbackRegisterMS
                0x9d018740       0xb0 build/default/production/_ext/101884895/sys_time.o
                0x9d018740                SYS_TIME_CallbackRegisterMS

.text.TCPIP_IPV4_SelectDestInterface
                0x9d0187f0       0xb0
 .text.TCPIP_IPV4_SelectDestInterface
                0x9d0187f0       0xb0 build/default/production/_ext/1033058136/ipv4.o
                0x9d0187f0                TCPIP_IPV4_SelectDestInterface

.text.TCPIP_STACK_Initialize
                0x9d0188a0       0xb0
 .text.TCPIP_STACK_Initialize
                0x9d0188a0       0xb0 build/default/production/_ext/1033058136/tcpip_manager.o
                0x9d0188a0                TCPIP_STACK_Initialize

.text.DRV_ETHPHY_VendorSMIReadStart
                0x9d018950       0xb0
 .text.DRV_ETHPHY_VendorSMIReadStart
                0x9d018950       0xb0 build/default/production/_ext/444070925/drv_ethphy.o
                0x9d018950                DRV_ETHPHY_VendorSMIReadStart

.text.pvPortMalloc
                0x9d018a00       0xb0
 .text.pvPortMalloc
                0x9d018a00       0xb0 build/default/production/_ext/1665200909/heap_1.o
                0x9d018a00                pvPortMalloc

.text.TCPIP_IPV4_SelectSourceInterface
                0x9d018ab0       0xac
 .text.TCPIP_IPV4_SelectSourceInterface
                0x9d018ab0       0xac build/default/production/_ext/1033058136/ipv4.o
                0x9d018ab0                TCPIP_IPV4_SelectSourceInterface

.text.DRV_ETHMAC_PIC32MACRegisterStatisticsGet
                0x9d018b5c       0xa8
 .text.DRV_ETHMAC_PIC32MACRegisterStatisticsGet
                0x9d018b5c       0xa8 build/default/production/_ext/732082881/drv_ethmac.o
                0x9d018b5c                DRV_ETHMAC_PIC32MACRegisterStatisticsGet

.text.TCPIP_PKT_PacketMACFormat
                0x9d018c04       0xa8
 .text.TCPIP_PKT_PacketMACFormat
                0x9d018c04       0xa8 build/default/production/_ext/1033058136/tcpip_packet.o
                0x9d018c04                TCPIP_PKT_PacketMACFormat

.text           0x9d018cac       0xa8
 .text          0x9d018cac       0xa8 c:/program files/microchip/xc32/v2.50/bin/bin/../../lib/gcc/pic32mx/4.8.3/../../../../pic32mx/lib\libpic32.a(memset.o)
                0x9d018cac                memset

.text._TCPIPStackModuleSignalRequest
                0x9d018d54       0xa4
 .text._TCPIPStackModuleSignalRequest
                0x9d018d54       0xa4 build/default/production/_ext/1033058136/tcpip_manager.o
                0x9d018d54                _TCPIPStackModuleSignalRequest

.text.DRV_ETHPHY_VendorSMIWriteStart
                0x9d018df8       0xa4
 .text.DRV_ETHPHY_VendorSMIWriteStart
                0x9d018df8       0xa4 build/default/production/_ext/444070925/drv_ethphy.o
                0x9d018df8                DRV_ETHPHY_VendorSMIWriteStart

.text.DRV_ETHPHY_Initialize
                0x9d018e9c       0xa4
 .text.DRV_ETHPHY_Initialize
                0x9d018e9c       0xa4 build/default/production/_ext/444070925/drv_ethphy.o
                0x9d018e9c                DRV_ETHPHY_Initialize

.text._DRV_ETHPHY_LinkStatPhaseRead
                0x9d018f40       0xa4
 .text._DRV_ETHPHY_LinkStatPhaseRead
                0x9d018f40       0xa4 build/default/production/_ext/444070925/drv_ethphy.o

.text.xTaskCheckForTimeOut
                0x9d018fe4       0xa4
 .text.xTaskCheckForTimeOut
                0x9d018fe4       0xa4 build/default/production/_ext/404212886/FreeRTOS_tasks.o
                0x9d018fe4                xTaskCheckForTimeOut

.text._TcpClientSocketConnect
                0x9d019088       0xa0
 .text._TcpClientSocketConnect
                0x9d019088       0xa0 build/default/production/_ext/1033058136/tcp.o

.text._TCPSendWinIncUpdate
                0x9d019128       0xa0
 .text._TCPSendWinIncUpdate
                0x9d019128       0xa0 build/default/production/_ext/1033058136/tcp.o

.text.TCPIP_Helper_SingleListNodeRemove
                0x9d0191c8       0xa0
 .text.TCPIP_Helper_SingleListNodeRemove
                0x9d0191c8       0xa0 build/default/production/_ext/1033058136/tcpip_helpers.o
                0x9d0191c8                TCPIP_Helper_SingleListNodeRemove

.text.TCPIP_UDP_SignalHandlerRegister
                0x9d019268       0xa0
 .text.TCPIP_UDP_SignalHandlerRegister
                0x9d019268       0xa0 build/default/production/_ext/1033058136/udp.o
                0x9d019268                TCPIP_UDP_SignalHandlerRegister

.text._DRV_ETHPHY_ResetPhaseWrite
                0x9d019308       0xa0
 .text._DRV_ETHPHY_ResetPhaseWrite
                0x9d019308       0xa0 build/default/production/_ext/444070925/drv_ethphy.o

.text.prvIdleTask
                0x9d0193a8       0xa0
 .text.prvIdleTask
                0x9d0193a8       0xa0 build/default/production/_ext/404212886/FreeRTOS_tasks.o

.text._DRV_ETHMAC_LinkStateGetLink
                0x9d019448       0x9c
 .text._DRV_ETHMAC_LinkStateGetLink
                0x9d019448       0x9c build/default/production/_ext/732082881/drv_ethmac.o

.text.DHCPSLocateRequestedIpAddress
                0x9d0194e4       0x9c
 .text.DHCPSLocateRequestedIpAddress
                0x9d0194e4       0x9c build/default/production/_ext/1033058136/dhcps.o

.text._TCPIPStackModuleRxInsert
                0x9d019580       0x9c
 .text._TCPIPStackModuleRxInsert
                0x9d019580       0x9c build/default/production/_ext/1033058136/tcpip_manager.o
                0x9d019580                _TCPIPStackModuleRxInsert

.text.Helper_SingleListNodeRemove
                0x9d01961c       0x9c
 .text.Helper_SingleListNodeRemove
                0x9d01961c       0x9c build/default/production/_ext/438849557/drv_miim.o
                0x9d01961c                Helper_SingleListNodeRemove

.text.wc_CryptoCb_FindDeviceByIndex
                0x9d0196b8       0x9c
 .text.wc_CryptoCb_FindDeviceByIndex
                0x9d0196b8       0x9c build/default/production/_ext/1664057780/cryptocb.o

.text.wc_RNG_TestSeed
                0x9d019754       0x9c
 .text.wc_RNG_TestSeed
                0x9d019754       0x9c build/default/production/_ext/1664057780/random.o
                0x9d019754                wc_RNG_TestSeed

.text.write     0x9d0197f0       0x9c
 .text.write    0x9d0197f0       0x9c c:/program files/microchip/xc32/v2.50/bin/bin/../../lib/gcc/pic32mx/4.8.3/../../../../pic32mx/lib\libpic32.a(write.o)
                0x9d0197f0                write

.text.DRV_ETHMAC_LibDescriptorsPoolCleanUp
                0x9d01988c       0x98
 .text.DRV_ETHMAC_LibDescriptorsPoolCleanUp
                0x9d01988c       0x98 build/default/production/_ext/732082881/drv_ethmac_lib.o
                0x9d01988c                DRV_ETHMAC_LibDescriptorsPoolCleanUp

.text._TcpCleanup
                0x9d019924       0x98
 .text._TcpCleanup
                0x9d019924       0x98 build/default/production/_ext/1033058136/tcp.o

.text.TCPIP_Helper_FormatNetBIOSName
                0x9d0199bc       0x98
 .text.TCPIP_Helper_FormatNetBIOSName
                0x9d0199bc       0x98 build/default/production/_ext/1033058136/tcpip_helpers.o
                0x9d0199bc                TCPIP_Helper_FormatNetBIOSName

.text.SYS_Tasks
                0x9d019a54       0x98
 .text.SYS_Tasks
                0x9d019a54       0x98 build/default/production/_ext/1171490990/tasks.o
                0x9d019a54                SYS_Tasks

.text._UDPSetNewRxPacket
                0x9d019aec       0x98
 .text._UDPSetNewRxPacket
                0x9d019aec       0x98 build/default/production/_ext/1033058136/udp.o

.text.TCPIP_UDP_DestinationIPAddressSet
                0x9d019b84       0x98
 .text.TCPIP_UDP_DestinationIPAddressSet
                0x9d019b84       0x98 build/default/production/_ext/1033058136/udp.o
                0x9d019b84                TCPIP_UDP_DestinationIPAddressSet

.text._DRV_MIIM_GetClientAndLock
                0x9d019c1c       0x98
 .text._DRV_MIIM_GetClientAndLock
                0x9d019c1c       0x98 build/default/production/_ext/438849557/drv_miim.o

.text           0x9d019cb4       0x98
 .text          0x9d019cb4       0x98 c:/program files/microchip/xc32/v2.50/bin/bin/../../lib/gcc/pic32mx/4.8.3/../../../../pic32mx/lib\libpic32.a(memcmp.o)
                0x9d019cb4                memcmp

.text._DRV_ETHMAC_LinkStateNegComplete
                0x9d019d4c       0x94
 .text._DRV_ETHMAC_LinkStateNegComplete
                0x9d019d4c       0x94 build/default/production/_ext/732082881/drv_ethmac.o

.text._EthTxSchedList
                0x9d019de0       0x94
 .text._EthTxSchedList
                0x9d019de0       0x94 build/default/production/_ext/732082881/drv_ethmac_lib.o

.text.TCPIP_ARP_Deinitialize
                0x9d019e74       0x94
 .text.TCPIP_ARP_Deinitialize
                0x9d019e74       0x94 build/default/production/_ext/1033058136/arp.o
                0x9d019e74                TCPIP_ARP_Deinitialize

.text.TCPIP_ARP_EntryGet
                0x9d019f08       0x94
 .text.TCPIP_ARP_EntryGet
                0x9d019f08       0x94 build/default/production/_ext/1033058136/arp.o
                0x9d019f08                TCPIP_ARP_EntryGet

.text.SYS_TIME_RemoveFromList
                0x9d019f9c       0x94
 .text.SYS_TIME_RemoveFromList
                0x9d019f9c       0x94 build/default/production/_ext/101884895/sys_time.o

.text._TCPIPStackIpAddFromAnyNet
                0x9d01a030       0x94
 .text._TCPIPStackIpAddFromAnyNet
                0x9d01a030       0x94 build/default/production/_ext/1033058136/tcpip_manager.o
                0x9d01a030                _TCPIPStackIpAddFromAnyNet

.text.DRV_ETHMAC_LibClose
                0x9d01a0c4       0x90
 .text.DRV_ETHMAC_LibClose
                0x9d01a0c4       0x90 build/default/production/_ext/732082881/drv_ethmac_lib.o
                0x9d01a0c4                DRV_ETHMAC_LibClose

.rodata         0x9d01a154       0x90
 .rodata        0x9d01a154       0x90 build/default/production/_ext/1033058136/tcpip_manager.o

.text._DRV_MIIM_ReleaseOpDcpt
                0x9d01a1e4       0x90
 .text._DRV_MIIM_ReleaseOpDcpt
                0x9d01a1e4       0x90 build/default/production/_ext/438849557/drv_miim.o

.text.SPI4_Initialize
                0x9d01a274       0x8c
 .text.SPI4_Initialize
                0x9d01a274       0x8c build/default/production/_ext/298189674/plib_spi4_master.o
                0x9d01a274                SPI4_Initialize

.text.SPI1_Initialize
                0x9d01a300       0x8c
 .text.SPI1_Initialize
                0x9d01a300       0x8c build/default/production/_ext/298189674/plib_spi1_master.o
                0x9d01a300                SPI1_Initialize

.text._TCPIPStackSetConfigAddress
                0x9d01a38c       0x8c
 .text._TCPIPStackSetConfigAddress
                0x9d01a38c       0x8c build/default/production/_ext/1033058136/tcpip_manager.o
                0x9d01a38c                _TCPIPStackSetConfigAddress

.text.TCPIP_UDP_TxOffsetSet
                0x9d01a418       0x8c
 .text.TCPIP_UDP_TxOffsetSet
                0x9d01a418       0x8c build/default/production/_ext/1033058136/udp.o
                0x9d01a418                TCPIP_UDP_TxOffsetSet

.text.TCPIP_UDP_PutIsReady
                0x9d01a4a4       0x8c
 .text.TCPIP_UDP_PutIsReady
                0x9d01a4a4       0x8c build/default/production/_ext/1033058136/udp.o
                0x9d01a4a4                TCPIP_UDP_PutIsReady

.text._DRV_ETHPHY_NegCompletePhaseAN_Complete
                0x9d01a530       0x8c
 .text._DRV_ETHPHY_NegCompletePhaseAN_Complete
                0x9d01a530       0x8c build/default/production/_ext/444070925/drv_ethphy.o

.text._DRV_ETHPHY_SetupPhaseIdle
                0x9d01a5bc       0x8c
 .text._DRV_ETHPHY_SetupPhaseIdle
                0x9d01a5bc       0x8c build/default/production/_ext/444070925/drv_ethphy.o

.text.rand      0x9d01a648       0x8c
 .text.rand     0x9d01a648       0x8c c:/program files/microchip/xc32/v2.50/bin/bin/../../lib/gcc/pic32mx/4.8.3/../../../../pic32mx/lib\libc.a(rand.o)
                0x9d01a648                rand

.text.SYS_TIME_TimerAdd
                0x9d01a6d4       0x88
 .text.SYS_TIME_TimerAdd
                0x9d01a6d4       0x88 build/default/production/_ext/101884895/sys_time.o

.text.hexatob   0x9d01a75c       0x88
 .text.hexatob  0x9d01a75c       0x88 build/default/production/_ext/1033058136/helpers.o
                0x9d01a75c                hexatob

.text._TCPIP_SelectDefaultNet
                0x9d01a7e4       0x88
 .text._TCPIP_SelectDefaultNet
                0x9d01a7e4       0x88 build/default/production/_ext/1033058136/tcpip_manager.o

.text.TCPIP_UDP_SourceIPAddressSet
                0x9d01a86c       0x88
 .text.TCPIP_UDP_SourceIPAddressSet
                0x9d01a86c       0x88 build/default/production/_ext/1033058136/udp.o
                0x9d01a86c                TCPIP_UDP_SourceIPAddressSet

.text._DRV_PHY_SMITransferWaitComplete
                0x9d01a8f4       0x88
 .text._DRV_PHY_SMITransferWaitComplete
                0x9d01a8f4       0x88 build/default/production/_ext/444070925/drv_ethphy.o

.text._TcpSwapHeader
                0x9d01a97c       0x84
 .text._TcpSwapHeader
                0x9d01a97c       0x84 build/default/production/_ext/1033058136/tcp.o

.text.TCPIP_IPV4_Cleanup
                0x9d01aa00       0x84
 .text.TCPIP_IPV4_Cleanup
                0x9d01aa00       0x84 build/default/production/_ext/1033058136/ipv4.o

.text.TCPIP_DHCPS_Enable
                0x9d01aa84       0x84
 .text.TCPIP_DHCPS_Enable
                0x9d01aa84       0x84 build/default/production/_ext/1033058136/dhcps.o
                0x9d01aa84                TCPIP_DHCPS_Enable

.text._TCPIP_HEAP_MaxSize
                0x9d01ab08       0x84
 .text._TCPIP_HEAP_MaxSize
                0x9d01ab08       0x84 build/default/production/_ext/1033058136/tcpip_heap_internal.o

.text._FieldSetMacName
                0x9d01ab8c       0x84
 .text._FieldSetMacName
                0x9d01ab8c       0x84 build/default/production/_ext/1033058136/tcpip_announce.o
                0x9d01ab8c                _FieldSetMacName

.text           0x9d01ac10       0x84
 .text          0x9d01ac10       0x84 c:/program files/microchip/xc32/v2.50/bin/bin/../../lib/gcc/pic32mx/4.8.3/../../../../pic32mx/lib\libpic32.a(pic32_data_init.o)
                0x9d01ac10                __pic32_data_init

.text._vsnprintf_cdnopsuxX
                0x9d01ac94       0x84
 .text._vsnprintf_cdnopsuxX
                0x9d01ac94       0x84 c:/program files/microchip/xc32/v2.50/bin/bin/../../lib/gcc/pic32mx/4.8.3/../../../../pic32mx/lib\libc.a(vsnprintf_cdnopsuxX.eo)
                0x9d01ac94                _vsnprintf_cdnopsuxX

.text._TcpSocketKill
                0x9d01ad18       0x80
 .text._TcpSocketKill
                0x9d01ad18       0x80 build/default/production/_ext/1033058136/tcp.o

.text.SYS_TIME_TimerDestroy
                0x9d01ad98       0x80
 .text.SYS_TIME_TimerDestroy
                0x9d01ad98       0x80 build/default/production/_ext/101884895/sys_time.o
                0x9d01ad98                SYS_TIME_TimerDestroy

.text._DHCPServerCleanup
                0x9d01ae18       0x80
 .text._DHCPServerCleanup
                0x9d01ae18       0x80 build/default/production/_ext/1033058136/dhcps.o

.text.TCPIP_DHCPS_CopyDataArrayToProcessBuff
                0x9d01ae98       0x80
 .text.TCPIP_DHCPS_CopyDataArrayToProcessBuff
                0x9d01ae98       0x80 build/default/production/_ext/1033058136/dhcps.o

.text._TCPIP_HEAP_Delete
                0x9d01af18       0x80
 .text._TCPIP_HEAP_Delete
                0x9d01af18       0x80 build/default/production/_ext/1033058136/tcpip_heap_internal.o

.text.TCPIP_STACK_AddressServiceDefaultSet
                0x9d01af98       0x80
 .text.TCPIP_STACK_AddressServiceDefaultSet
                0x9d01af98       0x80 build/default/production/_ext/1033058136/tcpip_manager.o
                0x9d01af98                TCPIP_STACK_AddressServiceDefaultSet

.text._FieldSetHostName
                0x9d01b018       0x80
 .text._FieldSetHostName
                0x9d01b018       0x80 build/default/production/_ext/1033058136/tcpip_announce.o
                0x9d01b018                _FieldSetHostName

.text.DRV_MIIM_RegisterCallback
                0x9d01b098       0x80
 .text.DRV_MIIM_RegisterCallback
                0x9d01b098       0x80 build/default/production/_ext/438849557/drv_miim.o
                0x9d01b098                DRV_MIIM_RegisterCallback

.text._DRV_ETHPHY_SetupPhaseNegotiate_SubPhase6
                0x9d01b118       0x80
 .text._DRV_ETHPHY_SetupPhaseNegotiate_SubPhase6
                0x9d01b118       0x80 build/default/production/_ext/444070925/drv_ethphy.o

.text._TCP_EphemeralPortAllocate
                0x9d01b198       0x7c
 .text._TCP_EphemeralPortAllocate
                0x9d01b198       0x7c build/default/production/_ext/1033058136/tcp.o

.text.TCPIP_DHCPS_GetArrayOfDataFromUDPBuff
                0x9d01b214       0x7c
 .text.TCPIP_DHCPS_GetArrayOfDataFromUDPBuff
                0x9d01b214       0x7c build/default/production/_ext/1033058136/dhcps.o

.text.TCPIP_Helper_StringToPowerMode
                0x9d01b290       0x7c
 .text.TCPIP_Helper_StringToPowerMode
                0x9d01b290       0x7c build/default/production/_ext/1033058136/tcpip_helpers.o
                0x9d01b290                TCPIP_Helper_StringToPowerMode

.text._TCPIP_MacEventCB
                0x9d01b30c       0x7c
 .text._TCPIP_MacEventCB
                0x9d01b30c       0x7c build/default/production/_ext/1033058136/tcpip_manager.o

.text._TCPIPStackModuleSignalGet
                0x9d01b388       0x7c
 .text._TCPIPStackModuleSignalGet
                0x9d01b388       0x7c build/default/production/_ext/1033058136/tcpip_manager.o
                0x9d01b388                _TCPIPStackModuleSignalGet

.text.TCPIP_Notification_Add
                0x9d01b404       0x7c
 .text.TCPIP_Notification_Add
                0x9d01b404       0x7c build/default/production/_ext/1033058136/tcpip_notify.o
                0x9d01b404                TCPIP_Notification_Add

.text._UDPAllocateEphemeralPort
                0x9d01b480       0x7c
 .text._UDPAllocateEphemeralPort
                0x9d01b480       0x7c build/default/production/_ext/1033058136/udp.o

.text._DRV_ETHPHY_SetupPhaseNegotiate_SubPhase1
                0x9d01b4fc       0x7c
 .text._DRV_ETHPHY_SetupPhaseNegotiate_SubPhase1
                0x9d01b4fc       0x7c build/default/production/_ext/444070925/drv_ethphy.o

.text._DRV_ETHPHY_NegRestartPhaseRead
                0x9d01b578       0x7c
 .text._DRV_ETHPHY_NegRestartPhaseRead
                0x9d01b578       0x7c build/default/production/_ext/444070925/drv_ethphy.o

.text.TCPIP_TCP_Close
                0x9d01b5f4       0x78
 .text.TCPIP_TCP_Close
                0x9d01b5f4       0x78 build/default/production/_ext/1033058136/tcp.o
                0x9d01b5f4                TCPIP_TCP_Close

.text.SYS_TIME_Counter64Get
                0x9d01b66c       0x78
 .text.SYS_TIME_Counter64Get
                0x9d01b66c       0x78 build/default/production/_ext/101884895/sys_time.o
                0x9d01b66c                SYS_TIME_Counter64Get

.text._TCPIP_PKT_PacketFree
                0x9d01b6e4       0x78
 .text._TCPIP_PKT_PacketFree
                0x9d01b6e4       0x78 build/default/production/_ext/1033058136/tcpip_packet.o
                0x9d01b6e4                _TCPIP_PKT_PacketFree

.text.TCPIP_ANNOUNCE_Deinitialize
                0x9d01b75c       0x78
 .text.TCPIP_ANNOUNCE_Deinitialize
                0x9d01b75c       0x78 build/default/production/_ext/1033058136/tcpip_announce.o
                0x9d01b75c                TCPIP_ANNOUNCE_Deinitialize

.text._TxSktGetLockedV4Pkt
                0x9d01b7d4       0x78
 .text._TxSktGetLockedV4Pkt
                0x9d01b7d4       0x78 build/default/production/_ext/1033058136/udp.o

.text._DRV_ETHPHY_SetupPhaseNegotiate_SubPhase7
                0x9d01b84c       0x78
 .text._DRV_ETHPHY_SetupPhaseNegotiate_SubPhase7
                0x9d01b84c       0x78 build/default/production/_ext/444070925/drv_ethphy.o

.text._DRV_ETHPHY_NegCompletePhaseRead1
                0x9d01b8c4       0x78
 .text._DRV_ETHPHY_NegCompletePhaseRead1
                0x9d01b8c4       0x78 build/default/production/_ext/444070925/drv_ethphy.o

.text._DRV_ETHPHY_SetupPhaseNegotiate_SubPhase3
                0x9d01b93c       0x78
 .text._DRV_ETHPHY_SetupPhaseNegotiate_SubPhase3
                0x9d01b93c       0x78 build/default/production/_ext/444070925/drv_ethphy.o

.text._DRV_ETHPHY_SetupPhaseNegotiate_SubPhase2
                0x9d01b9b4       0x78
 .text._DRV_ETHPHY_SetupPhaseNegotiate_SubPhase2
                0x9d01b9b4       0x78 build/default/production/_ext/444070925/drv_ethphy.o

.text.vTaskStartScheduler
                0x9d01ba2c       0x78
 .text.vTaskStartScheduler
                0x9d01ba2c       0x78 build/default/production/_ext/404212886/FreeRTOS_tasks.o
                0x9d01ba2c                vTaskStartScheduler

.text.DRV_ETHMAC_PIC32MACConfigGet
                0x9d01baa4       0x74
 .text.DRV_ETHMAC_PIC32MACConfigGet
                0x9d01baa4       0x74 build/default/production/_ext/732082881/drv_ethmac.o
                0x9d01baa4                DRV_ETHMAC_PIC32MACConfigGet

.text.SYS_TIME_UpdateTimerList
                0x9d01bb18       0x74
 .text.SYS_TIME_UpdateTimerList
                0x9d01bb18       0x74 build/default/production/_ext/101884895/sys_time.o

.text._TCPIPStackAnyNetLinked
                0x9d01bb8c       0x74
 .text._TCPIPStackAnyNetLinked
                0x9d01bb8c       0x74 build/default/production/_ext/1033058136/tcpip_manager.o
                0x9d01bb8c                _TCPIPStackAnyNetLinked

.text._TCPIPStackSignalHandlerRegister
                0x9d01bc00       0x74
 .text._TCPIPStackSignalHandlerRegister
                0x9d01bc00       0x74 build/default/production/_ext/1033058136/tcpip_manager.o
                0x9d01bc00                _TCPIPStackSignalHandlerRegister

.text._DRV_PHY_SMIReadStart
                0x9d01bc74       0x74
 .text._DRV_PHY_SMIReadStart
                0x9d01bc74       0x74 build/default/production/_ext/444070925/drv_ethphy.o

.text._DRV_PHY_SMIWriteStart
                0x9d01bce8       0x74
 .text._DRV_PHY_SMIWriteStart
                0x9d01bce8       0x74 build/default/production/_ext/444070925/drv_ethphy.o

.text.xQueueGenericCreate
                0x9d01bd5c       0x74
 .text.xQueueGenericCreate
                0x9d01bd5c       0x74 build/default/production/_ext/404212886/queue.o
                0x9d01bd5c                xQueueGenericCreate

.text.strncpy   0x9d01bdd0       0x74
 .text.strncpy  0x9d01bdd0       0x74 c:/program files/microchip/xc32/v2.50/bin/bin/../../lib/gcc/pic32mx/4.8.3/../../../../pic32mx/lib\libc.a(strncpy.o)
                0x9d01bdd0                strncpy

.text._MacRxFreeCallback
                0x9d01be44       0x70
 .text._MacRxFreeCallback
                0x9d01be44       0x70 build/default/production/_ext/732082881/drv_ethmac.o

.text._EnetPoolFreeDcptList
                0x9d01beb4       0x70
 .text._EnetPoolFreeDcptList
                0x9d01beb4       0x70 build/default/production/_ext/732082881/drv_ethmac_lib.o

.text._TcpSocketSetSourceInterface
                0x9d01bf24       0x70
 .text._TcpSocketSetSourceInterface
                0x9d01bf24       0x70 build/default/production/_ext/1033058136/tcp.o

.text._ARPSetEntry
                0x9d01bf94       0x70
 .text._ARPSetEntry
                0x9d01bf94       0x70 build/default/production/_ext/1033058136/arp.o

.text.TCPIP_Helper_ProtectedSingleListNodeRemove
                0x9d01c004       0x70
 .text.TCPIP_Helper_ProtectedSingleListNodeRemove
                0x9d01c004       0x70 build/default/production/_ext/1033058136/tcpip_helpers.o
                0x9d01c004                TCPIP_Helper_ProtectedSingleListNodeRemove

.text.TCPIP_STACK_IsBcastAddress
                0x9d01c074       0x70
 .text.TCPIP_STACK_IsBcastAddress
                0x9d01c074       0x70 build/default/production/_ext/1033058136/tcpip_manager.o
                0x9d01c074                TCPIP_STACK_IsBcastAddress

.text._UDPClose
                0x9d01c0e4       0x70
 .text._UDPClose
                0x9d01c0e4       0x70 build/default/production/_ext/1033058136/udp.o

.text.TCPIP_STACK_MatchNetAddress
                0x9d01c154       0x6c
 .text.TCPIP_STACK_MatchNetAddress
                0x9d01c154       0x6c build/default/production/_ext/1033058136/tcpip_manager.o
                0x9d01c154                TCPIP_STACK_MatchNetAddress

.text._TCPIP_PKT_SocketAlloc
                0x9d01c1c0       0x6c
 .text._TCPIP_PKT_SocketAlloc
                0x9d01c1c0       0x6c build/default/production/_ext/1033058136/tcpip_packet.o
                0x9d01c1c0                _TCPIP_PKT_SocketAlloc

.text._TCPIP_AnnounceCleanup
                0x9d01c22c       0x6c
 .text._TCPIP_AnnounceCleanup
                0x9d01c22c       0x6c build/default/production/_ext/1033058136/tcpip_announce.o

.text.TCPIP_UDP_SocketNetSet
                0x9d01c298       0x6c
 .text.TCPIP_UDP_SocketNetSet
                0x9d01c298       0x6c build/default/production/_ext/1033058136/udp.o
                0x9d01c298                TCPIP_UDP_SocketNetSet

.text.DRV_MIIM_Deinitialize
                0x9d01c304       0x6c
 .text.DRV_MIIM_Deinitialize
                0x9d01c304       0x6c build/default/production/_ext/438849557/drv_miim.o
                0x9d01c304                DRV_MIIM_Deinitialize

.text._DRV_ETHPHY_LinkStatPhaseRefresh
                0x9d01c370       0x6c
 .text._DRV_ETHPHY_LinkStatPhaseRefresh
                0x9d01c370       0x6c build/default/production/_ext/444070925/drv_ethphy.o

.text.vApplicationSetupTickTimerInterrupt
                0x9d01c3dc       0x6c
 .text.vApplicationSetupTickTimerInterrupt
                0x9d01c3dc       0x6c build/default/production/_ext/951553248/port.o
                0x9d01c3dc                vApplicationSetupTickTimerInterrupt

.text._MacTxFreeCallback
                0x9d01c448       0x68
 .text._MacTxFreeCallback
                0x9d01c448       0x68 build/default/production/_ext/732082881/drv_ethmac.o

.text.DRV_ETHMAC_PIC32MACParametersGet
                0x9d01c4b0       0x68
 .text.DRV_ETHMAC_PIC32MACParametersGet
                0x9d01c4b0       0x68 build/default/production/_ext/732082881/drv_ethmac.o
                0x9d01c4b0                DRV_ETHMAC_PIC32MACParametersGet

.text.TCPIP_ARP_HashEntryDelete
                0x9d01c518       0x68
 .text.TCPIP_ARP_HashEntryDelete
                0x9d01c518       0x68 build/default/production/_ext/1033058136/arp.o
                0x9d01c518                TCPIP_ARP_HashEntryDelete

.text.SYS_TIME_GetTimerObject
                0x9d01c580       0x68
 .text.SYS_TIME_GetTimerObject
                0x9d01c580       0x68 build/default/production/_ext/101884895/sys_time.o

.text.TCPIP_Helper_ProtectedSingleListDeinitialize
                0x9d01c5e8       0x68
 .text.TCPIP_Helper_ProtectedSingleListDeinitialize
                0x9d01c5e8       0x68 build/default/production/_ext/1033058136/tcpip_helpers.o
                0x9d01c5e8                TCPIP_Helper_ProtectedSingleListDeinitialize

.text._TCPIPSignalEntrySetNotify
                0x9d01c650       0x68
 .text._TCPIPSignalEntrySetNotify
                0x9d01c650       0x68 build/default/production/_ext/1033058136/tcpip_manager.o

.text.SYS_RANDOM_CryptoBlockGet
                0x9d01c6b8       0x68
 .text.SYS_RANDOM_CryptoBlockGet
                0x9d01c6b8       0x68 build/default/production/_ext/753841488/sys_random_h2_adapter.o
                0x9d01c6b8                SYS_RANDOM_CryptoBlockGet

.text.TCPIP_ARP_HandlerRegister
                0x9d01c720       0x64
 .text.TCPIP_ARP_HandlerRegister
                0x9d01c720       0x64 build/default/production/_ext/1033058136/arp.o
                0x9d01c720                TCPIP_ARP_HandlerRegister

.text.CORETIMER_Start
                0x9d01c784       0x64
 .text.CORETIMER_Start
                0x9d01c784       0x64 build/default/production/_ext/1249264884/plib_coretimer.o
                0x9d01c784                CORETIMER_Start

.text._TCPIPStackModuleRxExtract
                0x9d01c7e8       0x64
 .text._TCPIPStackModuleRxExtract
                0x9d01c7e8       0x64 build/default/production/_ext/1033058136/tcpip_manager.o
                0x9d01c7e8                _TCPIPStackModuleRxExtract

.text.wc_CryptoCb_RegisterDevice
                0x9d01c84c       0x64
 .text.wc_CryptoCb_RegisterDevice
                0x9d01c84c       0x64 build/default/production/_ext/1664057780/cryptocb.o
                0x9d01c84c                wc_CryptoCb_RegisterDevice

.text.TCPIP_DHCPS_Deinitialize
                0x9d01c8b0       0x60
 .text.TCPIP_DHCPS_Deinitialize
                0x9d01c8b0       0x60 build/default/production/_ext/1033058136/dhcps.o
                0x9d01c8b0                TCPIP_DHCPS_Deinitialize

.text.TCPIP_OAHASH_EntriesRemoveAll
                0x9d01c910       0x60
 .text.TCPIP_OAHASH_EntriesRemoveAll
                0x9d01c910       0x60 build/default/production/_ext/1033058136/oahash.o
                0x9d01c910                TCPIP_OAHASH_EntriesRemoveAll

.rodata         0x9d01c970       0x60
 .rodata        0x9d01c970       0x60 build/default/production/_ext/1033058136/tcpip_helpers.o

.text.TCPIP_Helper_ProtectedSingleListTailAdd
                0x9d01c9d0       0x60
 .text.TCPIP_Helper_ProtectedSingleListTailAdd
                0x9d01c9d0       0x60 build/default/production/_ext/1033058136/tcpip_helpers.o
                0x9d01c9d0                TCPIP_Helper_ProtectedSingleListTailAdd

.text.TCPIP_Helper_ProtectedSingleListHeadRemove
                0x9d01ca30       0x60
 .text.TCPIP_Helper_ProtectedSingleListHeadRemove
                0x9d01ca30       0x60 build/default/production/_ext/1033058136/tcpip_helpers.o
                0x9d01ca30                TCPIP_Helper_ProtectedSingleListHeadRemove

.text._UDPUpdatePacketLock
                0x9d01ca90       0x60
 .text._UDPUpdatePacketLock
                0x9d01ca90       0x60 build/default/production/_ext/1033058136/udp.o

.text.TCPIP_UDP_GetIsReady
                0x9d01caf0       0x60
 .text.TCPIP_UDP_GetIsReady
                0x9d01caf0       0x60 build/default/production/_ext/1033058136/udp.o
                0x9d01caf0                TCPIP_UDP_GetIsReady

.text._DRV_MIIM_GetObjectAndLock
                0x9d01cb50       0x60
 .text._DRV_MIIM_GetObjectAndLock
                0x9d01cb50       0x60 build/default/production/_ext/438849557/drv_miim.o

.text._DRV_ETHPHY_ClientOpReset
                0x9d01cbb0       0x60
 .text._DRV_ETHPHY_ClientOpReset
                0x9d01cbb0       0x60 build/default/production/_ext/444070925/drv_ethphy.o

.text._DRV_ETHPHY_ClientOpLinkStat
                0x9d01cc10       0x60
 .text._DRV_ETHPHY_ClientOpLinkStat
                0x9d01cc10       0x60 build/default/production/_ext/444070925/drv_ethphy.o

.text._DRV_ETHPHY_ClientOpNegResult
                0x9d01cc70       0x60
 .text._DRV_ETHPHY_ClientOpNegResult
                0x9d01cc70       0x60 build/default/production/_ext/444070925/drv_ethphy.o

.text._DRV_ETHPHY_ClientOpNegComplete
                0x9d01ccd0       0x60
 .text._DRV_ETHPHY_ClientOpNegComplete
                0x9d01ccd0       0x60 build/default/production/_ext/444070925/drv_ethphy.o

.text._DRV_ETHPHY_ClientOpNegRestart
                0x9d01cd30       0x60
 .text._DRV_ETHPHY_ClientOpNegRestart
                0x9d01cd30       0x60 build/default/production/_ext/444070925/drv_ethphy.o

.text._DRV_ETHPHY_SetupPhaseNegotiate
                0x9d01cd90       0x60
 .text._DRV_ETHPHY_SetupPhaseNegotiate
                0x9d01cd90       0x60 build/default/production/_ext/444070925/drv_ethphy.o

.text.wc_CryptoCb_FindDevice
                0x9d01cdf0       0x60
 .text.wc_CryptoCb_FindDevice
                0x9d01cdf0       0x60 build/default/production/_ext/1664057780/cryptocb.o

.text.vListInsert
                0x9d01ce50       0x60
 .text.vListInsert
                0x9d01ce50       0x60 build/default/production/_ext/404212886/list.o
                0x9d01ce50                vListInsert

.text.vTaskExitCritical
                0x9d01ceb0       0x60
 .text.vTaskExitCritical
                0x9d01ceb0       0x60 build/default/production/_ext/404212886/FreeRTOS_tasks.o
                0x9d01ceb0                vTaskExitCritical

.text._MacTxDiscardQueues
                0x9d01cf10       0x5c
 .text._MacTxDiscardQueues
                0x9d01cf10       0x5c build/default/production/_ext/732082881/drv_ethmac.o

.text._TCPSocketTxFreeSize
                0x9d01cf6c       0x5c
 .text._TCPSocketTxFreeSize
                0x9d01cf6c       0x5c build/default/production/_ext/1033058136/tcp.o

.text.SYS_TIME_ResourceLock
                0x9d01cfc8       0x5c
 .text.SYS_TIME_ResourceLock
                0x9d01cfc8       0x5c build/default/production/_ext/101884895/sys_time.o

.text.fnv_32_hash
                0x9d01d024       0x5c
 .text.fnv_32_hash
                0x9d01d024       0x5c build/default/production/_ext/1033058136/hash_fnv.o
                0x9d01d024                fnv_32_hash

.text.TCPIP_STACK_NetByAddress
                0x9d01d080       0x5c
 .text.TCPIP_STACK_NetByAddress
                0x9d01d080       0x5c build/default/production/_ext/1033058136/tcpip_manager.o
                0x9d01d080                TCPIP_STACK_NetByAddress

.text._FieldSetMacAddr
                0x9d01d0dc       0x5c
 .text._FieldSetMacAddr
                0x9d01d0dc       0x5c build/default/production/_ext/1033058136/tcpip_announce.o
                0x9d01d0dc                _FieldSetMacAddr

.text.DRV_ETHPHY_LinkStatusGet
                0x9d01d138       0x5c
 .text.DRV_ETHPHY_LinkStatusGet
                0x9d01d138       0x5c build/default/production/_ext/444070925/drv_ethphy.o
                0x9d01d138                DRV_ETHPHY_LinkStatusGet

.text.DRV_ETHPHY_NegotiationResultGet
                0x9d01d194       0x5c
 .text.DRV_ETHPHY_NegotiationResultGet
                0x9d01d194       0x5c build/default/production/_ext/444070925/drv_ethphy.o
                0x9d01d194                DRV_ETHPHY_NegotiationResultGet

.text._DRV_ETHPHY_ClientOpSetup
                0x9d01d1f0       0x5c
 .text._DRV_ETHPHY_ClientOpSetup
                0x9d01d1f0       0x5c build/default/production/_ext/444070925/drv_ethphy.o

.text.wc_InitMd5_ex
                0x9d01d24c       0x5c
 .text.wc_InitMd5_ex
                0x9d01d24c       0x5c build/default/production/_ext/1664057780/md5.o
                0x9d01d24c                wc_InitMd5_ex

.text.xPortStartScheduler
                0x9d01d2a8       0x5c
 .text.xPortStartScheduler
                0x9d01d2a8       0x5c build/default/production/_ext/951553248/port.o
                0x9d01d2a8                xPortStartScheduler

.text.DRV_ETHMAC_PIC32MACLinkCheck
                0x9d01d304       0x58
 .text.DRV_ETHMAC_PIC32MACLinkCheck
                0x9d01d304       0x58 build/default/production/_ext/732082881/drv_ethmac.o
                0x9d01d304                DRV_ETHMAC_PIC32MACLinkCheck

.text._DRV_ETHMAC_LinkStateStartLink
                0x9d01d35c       0x58
 .text._DRV_ETHMAC_LinkStateStartLink
                0x9d01d35c       0x58 build/default/production/_ext/732082881/drv_ethmac.o

.text._TCP_PortIsAvailable
                0x9d01d3b4       0x58
 .text._TCP_PortIsAvailable
                0x9d01d3b4       0x58 build/default/production/_ext/1033058136/tcp.o

.text.TCPIP_IPV4_CheckPktTx
                0x9d01d40c       0x58
 .text.TCPIP_IPV4_CheckPktTx
                0x9d01d40c       0x58 build/default/production/_ext/1033058136/ipv4.o

.text.TCPIP_Helper_ProtectedSingleListRemoveAll
                0x9d01d464       0x58
 .text.TCPIP_Helper_ProtectedSingleListRemoveAll
                0x9d01d464       0x58 build/default/production/_ext/1033058136/tcpip_helpers.o
                0x9d01d464                TCPIP_Helper_ProtectedSingleListRemoveAll

.text.TCPIP_Notification_Remove
                0x9d01d4bc       0x58
 .text.TCPIP_Notification_Remove
                0x9d01d4bc       0x58 build/default/production/_ext/1033058136/tcpip_notify.o
                0x9d01d4bc                TCPIP_Notification_Remove

.text.SYS_INT_SourceDisable
                0x9d01d514       0x58
 .text.SYS_INT_SourceDisable
                0x9d01d514       0x58 build/default/production/_ext/1881668453/sys_int.o
                0x9d01d514                SYS_INT_SourceDisable

.text.xQueueCreateMutex
                0x9d01d56c       0x58
 .text.xQueueCreateMutex
                0x9d01d56c       0x58 build/default/production/_ext/404212886/queue.o
                0x9d01d56c                xQueueCreateMutex

.text.vTaskDelay
                0x9d01d5c4       0x58
 .text.vTaskDelay
                0x9d01d5c4       0x58 build/default/production/_ext/404212886/FreeRTOS_tasks.o
                0x9d01d5c4                vTaskDelay

.text.DRV_ETHMAC_PIC32MACOpen
                0x9d01d61c       0x54
 .text.DRV_ETHMAC_PIC32MACOpen
                0x9d01d61c       0x54 build/default/production/_ext/732082881/drv_ethmac.o
                0x9d01d61c                DRV_ETHMAC_PIC32MACOpen

.text._EnetDescriptorsCount
                0x9d01d670       0x54
 .text._EnetDescriptorsCount
                0x9d01d670       0x54 build/default/production/_ext/732082881/drv_ethmac_lib.o

.text._TCPSetSourceAddress
                0x9d01d6c4       0x54
 .text._TCPSetSourceAddress
                0x9d01d6c4       0x54 build/default/production/_ext/1033058136/tcp.o

.text.TCPIP_PKT_Initialize
                0x9d01d718       0x54
 .text.TCPIP_PKT_Initialize
                0x9d01d718       0x54 build/default/production/_ext/1033058136/tcpip_packet.o
                0x9d01d718                TCPIP_PKT_Initialize

.text._TCPIP_PKT_PacketAcknowledge
                0x9d01d76c       0x54
 .text._TCPIP_PKT_PacketAcknowledge
                0x9d01d76c       0x54 build/default/production/_ext/1033058136/tcpip_packet.o
                0x9d01d76c                _TCPIP_PKT_PacketAcknowledge

.text._UDPFreeTxResources
                0x9d01d7c0       0x54
 .text._UDPFreeTxResources
                0x9d01d7c0       0x54 build/default/production/_ext/1033058136/udp.o

.text.DRV_MIIM_DeregisterCallback
                0x9d01d814       0x54
 .text.DRV_MIIM_DeregisterCallback
                0x9d01d814       0x54 build/default/production/_ext/438849557/drv_miim.o
                0x9d01d814                DRV_MIIM_DeregisterCallback

.text._DRV_PHY_SMITransfer_Wait
                0x9d01d868       0x54
 .text._DRV_PHY_SMITransfer_Wait
                0x9d01d868       0x54 build/default/production/_ext/444070925/drv_ethphy.o

.text._DRV_ETHPHY_NegResultPhase_ANEXP
                0x9d01d8bc       0x54
 .text._DRV_ETHPHY_NegResultPhase_ANEXP
                0x9d01d8bc       0x54 build/default/production/_ext/444070925/drv_ethphy.o

.text._DRV_ETHPHY_NegResultPhase_ANLPAD
                0x9d01d910       0x54
 .text._DRV_ETHPHY_NegResultPhase_ANLPAD
                0x9d01d910       0x54 build/default/production/_ext/444070925/drv_ethphy.o

.text.wc_RNG_HealthTest
                0x9d01d964       0x54
 .text.wc_RNG_HealthTest
                0x9d01d964       0x54 build/default/production/_ext/1664057780/random.o
                0x9d01d964                wc_RNG_HealthTest

.text.pxPortInitialiseStack
                0x9d01d9b8       0x54
 .text.pxPortInitialiseStack
                0x9d01d9b8       0x54 build/default/production/_ext/951553248/port.o
                0x9d01d9b8                pxPortInitialiseStack

.text.vPortIncrementTick
                0x9d01da0c       0x54
 .text.vPortIncrementTick
                0x9d01da0c       0x54 build/default/production/_ext/951553248/port.o
                0x9d01da0c                vPortIncrementTick

.text.main_entry
                0x9d01da60       0x54
 .text.main_entry
                0x9d01da60       0x54 C:\Users\user\AppData\Local\Temp\ccWnVuPa.o
                0x9d01da94                __crt0_exit

.text._MACTxPacketAckCallback
                0x9d01dab4       0x50
 .text._MACTxPacketAckCallback
                0x9d01dab4       0x50 build/default/production/_ext/732082881/drv_ethmac.o

.text._XtlEventsTcp2Eth
                0x9d01db04       0x50
 .text._XtlEventsTcp2Eth
                0x9d01db04       0x50 build/default/production/_ext/732082881/drv_ethmac.o

.text._TCPSetHalfFlushFlag
                0x9d01db54       0x50
 .text._TCPSetHalfFlushFlag
                0x9d01db54       0x50 build/default/production/_ext/1033058136/tcp.o

.text._TcpFlush
                0x9d01dba4       0x50
 .text._TcpFlush
                0x9d01dba4       0x50 build/default/production/_ext/1033058136/tcp.o

.text.TCPIP_UDP_Close
                0x9d01dbf4       0x50
 .text.TCPIP_UDP_Close
                0x9d01dbf4       0x50 build/default/production/_ext/1033058136/udp.o
                0x9d01dbf4                TCPIP_UDP_Close

.rodata         0x9d01dc44       0x50
 .rodata        0x9d01dc44       0x50 build/default/production/_ext/438849557/drv_miim.o
                0x9d01dc44                DRV_MIIM_OBJECT_BASE_Default

.text.sbrk      0x9d01dc94       0x50
 .text.sbrk     0x9d01dc94       0x50 c:/program files/microchip/xc32/v2.50/bin/bin/../../lib/gcc/pic32mx/4.8.3/../../../../pic32mx/lib\libpic32.a(sbrk.o)
                0x9d01dc94                sbrk

.text.TCPIP_STACK_Init
                0x9d01dce4       0x4c
 .text.TCPIP_STACK_Init
                0x9d01dce4       0x4c build/default/production/_ext/1171490990/initialization.o
                0x9d01dce4                TCPIP_STACK_Init

.text._ARPRemoveCacheEntries
                0x9d01dd30       0x4c
 .text._ARPRemoveCacheEntries
                0x9d01dd30       0x4c build/default/production/_ext/1033058136/arp.o

.text._TCPIP_HEAP_Calloc
                0x9d01dd7c       0x4c
 .text._TCPIP_HEAP_Calloc
                0x9d01dd7c       0x4c build/default/production/_ext/1033058136/tcpip_heap_internal.o

.text.TCPIP_Helper_ProtectedSingleListInitialize
                0x9d01ddc8       0x4c
 .text.TCPIP_Helper_ProtectedSingleListInitialize
                0x9d01ddc8       0x4c build/default/production/_ext/1033058136/tcpip_helpers.o
                0x9d01ddc8                TCPIP_Helper_ProtectedSingleListInitialize

.text.TCPIP_STACK_IndexToNet
                0x9d01de14       0x4c
 .text.TCPIP_STACK_IndexToNet
                0x9d01de14       0x4c build/default/production/_ext/1033058136/tcpip_manager.o
                0x9d01de14                TCPIP_STACK_IndexToNet

.text.TCPIP_STACK_IPAddToNet
                0x9d01de60       0x4c
 .text.TCPIP_STACK_IPAddToNet
                0x9d01de60       0x4c build/default/production/_ext/1033058136/tcpip_manager.o
                0x9d01de60                TCPIP_STACK_IPAddToNet

.text.TCPIP_STACK_MACIdToString
                0x9d01deac       0x4c
 .text.TCPIP_STACK_MACIdToString
                0x9d01deac       0x4c build/default/production/_ext/1033058136/tcpip_manager.o
                0x9d01deac                TCPIP_STACK_MACIdToString

.text._TCPIPStackSignalHandlerSetParams
                0x9d01def8       0x4c
 .text._TCPIPStackSignalHandlerSetParams
                0x9d01def8       0x4c build/default/production/_ext/1033058136/tcpip_manager.o
                0x9d01def8                _TCPIPStackSignalHandlerSetParams

.text.TCPIP_Notification_RemoveAll
                0x9d01df44       0x4c
 .text.TCPIP_Notification_RemoveAll
                0x9d01df44       0x4c build/default/production/_ext/1033058136/tcpip_notify.o
                0x9d01df44                TCPIP_Notification_RemoveAll

.text.TCPIP_UDP_Discard
                0x9d01df90       0x4c
 .text.TCPIP_UDP_Discard
                0x9d01df90       0x4c build/default/production/_ext/1033058136/udp.o
                0x9d01df90                TCPIP_UDP_Discard

.text.DRV_ETHPHY_Close
                0x9d01dfdc       0x4c
 .text.DRV_ETHPHY_Close
                0x9d01dfdc       0x4c build/default/production/_ext/444070925/drv_ethphy.o
                0x9d01dfdc                DRV_ETHPHY_Close

.text.DRV_ETHPHY_Reset
                0x9d01e028       0x4c
 .text.DRV_ETHPHY_Reset
                0x9d01e028       0x4c build/default/production/_ext/444070925/drv_ethphy.o
                0x9d01e028                DRV_ETHPHY_Reset

.text.DRV_ETHPHY_NegotiationIsComplete
                0x9d01e074       0x4c
 .text.DRV_ETHPHY_NegotiationIsComplete
                0x9d01e074       0x4c build/default/production/_ext/444070925/drv_ethphy.o
                0x9d01e074                DRV_ETHPHY_NegotiationIsComplete

.text._DRV_PHY_NegCompleteSetOperResult
                0x9d01e0c0       0x4c
 .text._DRV_PHY_NegCompleteSetOperResult
                0x9d01e0c0       0x4c build/default/production/_ext/444070925/drv_ethphy.o

.text.uxListRemove
                0x9d01e10c       0x4c
 .text.uxListRemove
                0x9d01e10c       0x4c build/default/production/_ext/404212886/list.o
                0x9d01e10c                uxListRemove

.text.calloc    0x9d01e158       0x4c
 .text.calloc   0x9d01e158       0x4c c:/program files/microchip/xc32/v2.50/bin/bin/../../lib/gcc/pic32mx/4.8.3/../../../../pic32mx/lib\libc.a(calloc.o)
                0x9d01e158                calloc

.text.TCPIP_ARP_HandlerDeRegister
                0x9d01e1a4       0x48
 .text.TCPIP_ARP_HandlerDeRegister
                0x9d01e1a4       0x48 build/default/production/_ext/1033058136/arp.o
                0x9d01e1a4                TCPIP_ARP_HandlerDeRegister

.text._DHCPS_ValidatePktReceivedIntf
                0x9d01e1ec       0x48
 .text._DHCPS_ValidatePktReceivedIntf
                0x9d01e1ec       0x48 build/default/production/_ext/1033058136/dhcps.o
                0x9d01e1ec                _DHCPS_ValidatePktReceivedIntf

.text.TCPIP_HEAP_Create
                0x9d01e234       0x48
 .text.TCPIP_HEAP_Create
                0x9d01e234       0x48 build/default/production/_ext/1033058136/tcpip_heap_alloc.o
                0x9d01e234                TCPIP_HEAP_Create

.text.TCPIP_Helper_SingleListAppend
                0x9d01e27c       0x48
 .text.TCPIP_Helper_SingleListAppend
                0x9d01e27c       0x48 build/default/production/_ext/1033058136/tcpip_helpers.o
                0x9d01e27c                TCPIP_Helper_SingleListAppend

.text._TCPIP_STACK_TickHandler
                0x9d01e2c4       0x48
 .text._TCPIP_STACK_TickHandler
                0x9d01e2c4       0x48 build/default/production/_ext/1033058136/tcpip_manager.o

.text.TCPIP_STACK_NetIsBcastAddress
                0x9d01e30c       0x48
 .text.TCPIP_STACK_NetIsBcastAddress
                0x9d01e30c       0x48 build/default/production/_ext/1033058136/tcpip_manager.o
                0x9d01e30c                TCPIP_STACK_NetIsBcastAddress

.text.SYS_TMR_TickCountGet
                0x9d01e354       0x48
 .text.SYS_TMR_TickCountGet
                0x9d01e354       0x48 build/default/production/_ext/753841488/sys_time_h2_adapter.o
                0x9d01e354                SYS_TMR_TickCountGet

.text.OSAL_CRIT_Enter
                0x9d01e39c       0x48
 .text.OSAL_CRIT_Enter
                0x9d01e39c       0x48 build/default/production/_ext/1529399856/osal_freertos.o
                0x9d01e39c                OSAL_CRIT_Enter

.text._UDPIsAvailablePort
                0x9d01e3e4       0x48
 .text._UDPIsAvailablePort
                0x9d01e3e4       0x48 build/default/production/_ext/1033058136/udp.o

.text.DRV_ETHPHY_Tasks
                0x9d01e42c       0x48
 .text.DRV_ETHPHY_Tasks
                0x9d01e42c       0x48 build/default/production/_ext/444070925/drv_ethphy.o
                0x9d01e42c                DRV_ETHPHY_Tasks

.text.DRV_ETHPHY_Reinitialize
                0x9d01e474       0x48
 .text.DRV_ETHPHY_Reinitialize
                0x9d01e474       0x48 build/default/production/_ext/444070925/drv_ethphy.o
                0x9d01e474                DRV_ETHPHY_Reinitialize

.text.DRV_ETHPHY_RestartNegotiation
                0x9d01e4bc       0x48
 .text.DRV_ETHPHY_RestartNegotiation
                0x9d01e4bc       0x48 build/default/production/_ext/444070925/drv_ethphy.o
                0x9d01e4bc                DRV_ETHPHY_RestartNegotiation

.text.vTaskEnterCritical
                0x9d01e504       0x48
 .text.vTaskEnterCritical
                0x9d01e504       0x48 build/default/production/_ext/404212886/FreeRTOS_tasks.o
                0x9d01e504                vTaskEnterCritical

.vector_default
                0x9d01e54c       0x48
 .vector_default
                0x9d01e54c       0x48 c:/program files/microchip/xc32/v2.50/bin/bin/../../lib/gcc/pic32mx/4.8.3/../../../../pic32mx/lib\libpic32.a(defaultinterrupt.o)
                0x9d01e54c                _DefaultInterrupt

.text.EVIC_Initialize
                0x9d01e594       0x44
 .text.EVIC_Initialize
                0x9d01e594       0x44 build/default/production/_ext/1865200349/plib_evic.o
                0x9d01e594                EVIC_Initialize

.text.GPIO_Initialize
                0x9d01e5d8       0x44
 .text.GPIO_Initialize
                0x9d01e5d8       0x44 build/default/production/_ext/1865254177/plib_gpio.o
                0x9d01e5d8                GPIO_Initialize

.text.TCPIP_TCP_IsConnected
                0x9d01e61c       0x44
 .text.TCPIP_TCP_IsConnected
                0x9d01e61c       0x44 build/default/production/_ext/1033058136/tcp.o
                0x9d01e61c                TCPIP_TCP_IsConnected

.text._SwapARPPacket
                0x9d01e660       0x44
 .text._SwapARPPacket
                0x9d01e660       0x44 build/default/production/_ext/1033058136/arp.o

.text.SYS_TIME_ResourceUnlock
                0x9d01e6a4       0x44
 .text.SYS_TIME_ResourceUnlock
                0x9d01e6a4       0x44 build/default/production/_ext/101884895/sys_time.o

.text.SYS_TMR_TickCounterFrequencyGet
                0x9d01e6e8       0x44
 .text.SYS_TMR_TickCounterFrequencyGet
                0x9d01e6e8       0x44 build/default/production/_ext/753841488/sys_time_h2_adapter.o
                0x9d01e6e8                SYS_TMR_TickCounterFrequencyGet

.text.OSAL_CRIT_Leave
                0x9d01e72c       0x44
 .text.OSAL_CRIT_Leave
                0x9d01e72c       0x44 build/default/production/_ext/1529399856/osal_freertos.o
                0x9d01e72c                OSAL_CRIT_Leave

.text.TCPIP_UDP_TxPointerGet
                0x9d01e770       0x44
 .text.TCPIP_UDP_TxPointerGet
                0x9d01e770       0x44 build/default/production/_ext/1033058136/udp.o
                0x9d01e770                TCPIP_UDP_TxPointerGet

.text           0x9d01e7b4       0x44
 .text          0x9d01e7b4       0x44 c:/program files/microchip/xc32/v2.50/bin/bin/../../lib/gcc/pic32mx/4.8.3/../../../../pic32mx/lib\pic32_software_reset.o
                0x9d01e7b4                __pic32_software_reset

.text.TIMER_2_InterruptHandler
                0x9d01e7f8       0x40
 .text.TIMER_2_InterruptHandler
                0x9d01e7f8       0x40 build/default/production/_ext/60181895/plib_tmr2.o
                0x9d01e7f8                TIMER_2_InterruptHandler

.text.TCPIP_TCP_PutIsReady
                0x9d01e838       0x40
 .text.TCPIP_TCP_PutIsReady
                0x9d01e838       0x40 build/default/production/_ext/1033058136/tcp.o
                0x9d01e838                TCPIP_TCP_PutIsReady

.text.CORE_TIMER_InterruptHandler
                0x9d01e878       0x40
 .text.CORE_TIMER_InterruptHandler
                0x9d01e878       0x40 build/default/production/_ext/1249264884/plib_coretimer.o
                0x9d01e878                CORE_TIMER_InterruptHandler

.text._TCPIPSignalEntryNotify
                0x9d01e8b8       0x40
 .text._TCPIPSignalEntryNotify
                0x9d01e8b8       0x40 build/default/production/_ext/1033058136/tcpip_manager.o

.text._UDPFreeRxQueue
                0x9d01e8f8       0x40
 .text._UDPFreeRxQueue
                0x9d01e8f8       0x40 build/default/production/_ext/1033058136/udp.o

.text._DRV_ETHPHY_ResetPhaseIdle
                0x9d01e938       0x40
 .text._DRV_ETHPHY_ResetPhaseIdle
                0x9d01e938       0x40 build/default/production/_ext/444070925/drv_ethphy.o

.text._DRV_ETHPHY_SetupPhaseNegotiate_SubPhase5
                0x9d01e978       0x40
 .text._DRV_ETHPHY_SetupPhaseNegotiate_SubPhase5
                0x9d01e978       0x40 build/default/production/_ext/444070925/drv_ethphy.o

.text.Hash_DRBG_Uninstantiate
                0x9d01e9b8       0x40
 .text.Hash_DRBG_Uninstantiate
                0x9d01e9b8       0x40 build/default/production/_ext/1664057780/random.o

.text.CRYPT_MD5_DataAdd
                0x9d01e9f8       0x40
 .text.CRYPT_MD5_DataAdd
                0x9d01e9f8       0x40 build/default/production/_ext/1645245335/crypto.o
                0x9d01e9f8                CRYPT_MD5_DataAdd

.text.CRYPT_MD5_Finalize
                0x9d01ea38       0x40
 .text.CRYPT_MD5_Finalize
                0x9d01ea38       0x40 build/default/production/_ext/1645245335/crypto.o
                0x9d01ea38                CRYPT_MD5_Finalize

.text.CRYPT_RNG_BlockGenerate
                0x9d01ea78       0x40
 .text.CRYPT_RNG_BlockGenerate
                0x9d01ea78       0x40 build/default/production/_ext/1645245335/crypto.o
                0x9d01ea78                CRYPT_RNG_BlockGenerate

.text.TMR2_Initialize
                0x9d01eab8       0x3c
 .text.TMR2_Initialize
                0x9d01eab8       0x3c build/default/production/_ext/60181895/plib_tmr2.o
                0x9d01eab8                TMR2_Initialize

.text._DRV_ETHMAC_LinkStateDown
                0x9d01eaf4       0x3c
 .text._DRV_ETHMAC_LinkStateDown
                0x9d01eaf4       0x3c build/default/production/_ext/732082881/drv_ethmac.o

.text.DRV_ETHMAC_SingleListHeadRemove
                0x9d01eb30       0x3c
 .text.DRV_ETHMAC_SingleListHeadRemove
                0x9d01eb30       0x3c build/default/production/_ext/732082881/drv_ethmac_lib.o
                0x9d01eb30                DRV_ETHMAC_SingleListHeadRemove

.text._TCPIsGetReady
                0x9d01eb6c       0x3c
 .text._TCPIsGetReady
                0x9d01eb6c       0x3c build/default/production/_ext/1033058136/tcp.o

.text._ARPTxAckFnc
                0x9d01eba8       0x3c
 .text._ARPTxAckFnc
                0x9d01eba8       0x3c build/default/production/_ext/1033058136/arp.o

.text.TCPIP_ARP_HashKeyHash
                0x9d01ebe4       0x3c
 .text.TCPIP_ARP_HashKeyHash
                0x9d01ebe4       0x3c build/default/production/_ext/1033058136/arp.o
                0x9d01ebe4                TCPIP_ARP_HashKeyHash

.text._DHCPSUpdateEntry
                0x9d01ec20       0x3c
 .text._DHCPSUpdateEntry
                0x9d01ec20       0x3c build/default/production/_ext/1033058136/dhcps.o

.text.TCPIP_DHCPS_MACHashKeyHash
                0x9d01ec5c       0x3c
 .text.TCPIP_DHCPS_MACHashKeyHash
                0x9d01ec5c       0x3c build/default/production/_ext/1033058136/dhcps.o
                0x9d01ec5c                TCPIP_DHCPS_MACHashKeyHash

.text.TCPIP_OAHASH_Initialize
                0x9d01ec98       0x3c
 .text.TCPIP_OAHASH_Initialize
                0x9d01ec98       0x3c build/default/production/_ext/1033058136/oahash.o
                0x9d01ec98                TCPIP_OAHASH_Initialize

.text.TCPIP_Helper_SingleListHeadRemove
                0x9d01ecd4       0x3c
 .text.TCPIP_Helper_SingleListHeadRemove
                0x9d01ecd4       0x3c build/default/production/_ext/1033058136/tcpip_helpers.o
                0x9d01ecd4                TCPIP_Helper_SingleListHeadRemove

.text._TCPIPStackPacketTx
                0x9d01ed10       0x3c
 .text._TCPIPStackPacketTx
                0x9d01ed10       0x3c build/default/production/_ext/1033058136/tcpip_manager.o
                0x9d01ed10                _TCPIPStackPacketTx

.text.SYS_RANDOM_CryptoInitialize
                0x9d01ed4c       0x3c
 .text.SYS_RANDOM_CryptoInitialize
                0x9d01ed4c       0x3c build/default/production/_ext/753841488/sys_random_h2_adapter.o
                0x9d01ed4c                SYS_RANDOM_CryptoInitialize

.text.SYS_RANDOM_CryptoGet
                0x9d01ed88       0x3c
 .text.SYS_RANDOM_CryptoGet
                0x9d01ed88       0x3c build/default/production/_ext/753841488/sys_random_h2_adapter.o
                0x9d01ed88                SYS_RANDOM_CryptoGet

.text.OSAL_MUTEX_Create
                0x9d01edc4       0x3c
 .text.OSAL_MUTEX_Create
                0x9d01edc4       0x3c build/default/production/_ext/1529399856/osal_freertos.o
                0x9d01edc4                OSAL_MUTEX_Create

.text._UDPTxPktValid
                0x9d01ee00       0x3c
 .text._UDPTxPktValid
                0x9d01ee00       0x3c build/default/production/_ext/1033058136/udp.o

.text.DRV_MIIM_Status
                0x9d01ee3c       0x3c
 .text.DRV_MIIM_Status
                0x9d01ee3c       0x3c build/default/production/_ext/438849557/drv_miim.o
                0x9d01ee3c                DRV_MIIM_Status

.text.Helper_SingleListHeadRemove
                0x9d01ee78       0x3c
 .text.Helper_SingleListHeadRemove
                0x9d01ee78       0x3c build/default/production/_ext/438849557/drv_miim.o
                0x9d01ee78                Helper_SingleListHeadRemove

.text.DRV_MIIM_Close
                0x9d01eeb4       0x3c
 .text.DRV_MIIM_Close
                0x9d01eeb4       0x3c build/default/production/_ext/438849557/drv_miim.o
                0x9d01eeb4                DRV_MIIM_Close

.text._DRV_ETHPHY_NegCompletePhaseResultNoWait
                0x9d01eef0       0x3c
 .text._DRV_ETHPHY_NegCompletePhaseResultNoWait
                0x9d01eef0       0x3c build/default/production/_ext/444070925/drv_ethphy.o

.text._DRV_ETHPHY_LinkStatPhaseIdle
                0x9d01ef2c       0x3c
 .text._DRV_ETHPHY_LinkStatPhaseIdle
                0x9d01ef2c       0x3c build/default/production/_ext/444070925/drv_ethphy.o

.text._DRV_ETHPHY_NegResultPhaseIdle
                0x9d01ef68       0x3c
 .text._DRV_ETHPHY_NegResultPhaseIdle
                0x9d01ef68       0x3c build/default/production/_ext/444070925/drv_ethphy.o

.text._DRV_ETHPHY_NegCompletePhaseIdle
                0x9d01efa4       0x3c
 .text._DRV_ETHPHY_NegCompletePhaseIdle
                0x9d01efa4       0x3c build/default/production/_ext/444070925/drv_ethphy.o

.text._DRV_ETHPHY_NegRestartPhaseIdle
                0x9d01efe0       0x3c
 .text._DRV_ETHPHY_NegRestartPhaseIdle
                0x9d01efe0       0x3c build/default/production/_ext/444070925/drv_ethphy.o

.text.uxPortSetInterruptMaskFromISR
                0x9d01f01c       0x3c
 .text.uxPortSetInterruptMaskFromISR
                0x9d01f01c       0x3c build/default/production/_ext/951553248/port.o
                0x9d01f01c                uxPortSetInterruptMaskFromISR

.text.DRV_ETHMAC_LibDescriptorGetBuffer
                0x9d01f058       0x38
 .text.DRV_ETHMAC_LibDescriptorGetBuffer
                0x9d01f058       0x38 build/default/production/_ext/732082881/drv_ethmac_lib.o
                0x9d01f058                DRV_ETHMAC_LibDescriptorGetBuffer

.text.DRV_ETHMAC_LibRxPendingBuffersGet
                0x9d01f090       0x38
 .text.DRV_ETHMAC_LibRxPendingBuffersGet
                0x9d01f090       0x38 build/default/production/_ext/732082881/drv_ethmac_lib.o
                0x9d01f090                DRV_ETHMAC_LibRxPendingBuffersGet

.text.DRV_ETHMAC_LibRxScheduledBuffersGet
                0x9d01f0c8       0x38
 .text.DRV_ETHMAC_LibRxScheduledBuffersGet
                0x9d01f0c8       0x38 build/default/production/_ext/732082881/drv_ethmac_lib.o
                0x9d01f0c8                DRV_ETHMAC_LibRxScheduledBuffersGet

.text.DRV_ETHMAC_LibTxPendingBuffersGet
                0x9d01f100       0x38
 .text.DRV_ETHMAC_LibTxPendingBuffersGet
                0x9d01f100       0x38 build/default/production/_ext/732082881/drv_ethmac_lib.o
                0x9d01f100                DRV_ETHMAC_LibTxPendingBuffersGet

.text._TcpSocketChk
                0x9d01f138       0x38
 .text._TcpSocketChk
                0x9d01f138       0x38 build/default/production/_ext/1033058136/tcp.o

.text._ARPAllocateTxPacket
                0x9d01f170       0x38
 .text._ARPAllocateTxPacket
                0x9d01f170       0x38 build/default/production/_ext/1033058136/arp.o

.text.SYS_TIME_GetElapsedCount
                0x9d01f1a8       0x38
 .text.SYS_TIME_GetElapsedCount
                0x9d01f1a8       0x38 build/default/production/_ext/101884895/sys_time.o

.text.TCPIP_PKT_PayloadLen
                0x9d01f1e0       0x38
 .text.TCPIP_PKT_PayloadLen
                0x9d01f1e0       0x38 build/default/production/_ext/1033058136/tcpip_packet.o
                0x9d01f1e0                TCPIP_PKT_PayloadLen

.text._FieldSetIpv4Addr
                0x9d01f218       0x38
 .text._FieldSetIpv4Addr
                0x9d01f218       0x38 build/default/production/_ext/1033058136/tcpip_announce.o
                0x9d01f218                _FieldSetIpv4Addr

.text._UDPSocketDcpt
                0x9d01f250       0x38
 .text._UDPSocketDcpt
                0x9d01f250       0x38 build/default/production/_ext/1033058136/udp.o

.text.prvResetNextTaskUnblockTime
                0x9d01f288       0x38
 .text.prvResetNextTaskUnblockTime
                0x9d01f288       0x38 build/default/production/_ext/404212886/FreeRTOS_tasks.o

.text.vTaskPlaceOnEventList
                0x9d01f2c0       0x38
 .text.vTaskPlaceOnEventList
                0x9d01f2c0       0x38 build/default/production/_ext/404212886/FreeRTOS_tasks.o
                0x9d01f2c0                vTaskPlaceOnEventList

.text.DRV_ETH_MACSetAddress
                0x9d01f2f8       0x34
 .text.DRV_ETH_MACSetAddress
                0x9d01f2f8       0x34 build/default/production/_ext/732082881/drv_eth_pic32_lib.o
                0x9d01f2f8                DRV_ETH_MACSetAddress

.text.DRV_ETH_MACGetAddress
                0x9d01f32c       0x34
 .text.DRV_ETH_MACGetAddress
                0x9d01f32c       0x34 build/default/production/_ext/732082881/drv_eth_pic32_lib.o
                0x9d01f32c                DRV_ETH_MACGetAddress

.text.TCPIP_TCP_GetIsReady
                0x9d01f360       0x34
 .text.TCPIP_TCP_GetIsReady
                0x9d01f360       0x34 build/default/production/_ext/1033058136/tcp.o
                0x9d01f360                TCPIP_TCP_GetIsReady

.text.SYS_TIME_Counter64Update
                0x9d01f394       0x34
 .text.SYS_TIME_Counter64Update
                0x9d01f394       0x34 build/default/production/_ext/101884895/sys_time.o

.text.SYS_TIME_MSToCount
                0x9d01f3c8       0x34
 .text.SYS_TIME_MSToCount
                0x9d01f3c8       0x34 build/default/production/_ext/101884895/sys_time.o
                0x9d01f3c8                SYS_TIME_MSToCount

.text.CORETIMER_Stop
                0x9d01f3fc       0x34
 .text.CORETIMER_Stop
                0x9d01f3fc       0x34 build/default/production/_ext/1249264884/plib_coretimer.o
                0x9d01f3fc                CORETIMER_Stop

.text.TCPIP_DHCPS_GetDataFromUDPBuff
                0x9d01f430       0x34
 .text.TCPIP_DHCPS_GetDataFromUDPBuff
                0x9d01f430       0x34 build/default/production/_ext/1033058136/dhcps.o

.text.TCPIP_Helper_ProtectedSingleListLock
                0x9d01f464       0x34
 .text.TCPIP_Helper_ProtectedSingleListLock
                0x9d01f464       0x34 build/default/production/_ext/1033058136/tcpip_helpers.o
                0x9d01f464                TCPIP_Helper_ProtectedSingleListLock

.text.TCPIP_Helper_ProtectedSingleListUnlock
                0x9d01f498       0x34
 .text.TCPIP_Helper_ProtectedSingleListUnlock
                0x9d01f498       0x34 build/default/production/_ext/1033058136/tcpip_helpers.o
                0x9d01f498                TCPIP_Helper_ProtectedSingleListUnlock

.text.TCPIP_STACK_NetAddressBcast
                0x9d01f4cc       0x34
 .text.TCPIP_STACK_NetAddressBcast
                0x9d01f4cc       0x34 build/default/production/_ext/1033058136/tcpip_manager.o
                0x9d01f4cc                TCPIP_STACK_NetAddressBcast

.text.TCPIP_STACK_AddressServiceSelect
                0x9d01f500       0x34
 .text.TCPIP_STACK_AddressServiceSelect
                0x9d01f500       0x34 build/default/production/_ext/1033058136/tcpip_manager.o
                0x9d01f500                TCPIP_STACK_AddressServiceSelect

.text.TCPIP_STACK_NetAddress
                0x9d01f534       0x34
 .text.TCPIP_STACK_NetAddress
                0x9d01f534       0x34 build/default/production/_ext/1033058136/tcpip_manager.o
                0x9d01f534                TCPIP_STACK_NetAddress

.text._TCPIPStackHandleToNetLinked
                0x9d01f568       0x34
 .text._TCPIPStackHandleToNetLinked
                0x9d01f568       0x34 build/default/production/_ext/1033058136/tcpip_manager.o
                0x9d01f568                _TCPIPStackHandleToNetLinked

.text.TCPIP_STACK_NetIsReady
                0x9d01f59c       0x34
 .text.TCPIP_STACK_NetIsReady
                0x9d01f59c       0x34 build/default/production/_ext/1033058136/tcpip_manager.o
                0x9d01f59c                TCPIP_STACK_NetIsReady

.text.DRV_ETHPHY_PhyAddressGet
                0x9d01f5d0       0x34
 .text.DRV_ETHPHY_PhyAddressGet
                0x9d01f5d0       0x34 build/default/production/_ext/444070925/drv_ethphy.o
                0x9d01f5d0                DRV_ETHPHY_PhyAddressGet

.text.DRV_ETHPHY_ClientOperationAbort
                0x9d01f604       0x34
 .text.DRV_ETHPHY_ClientOperationAbort
                0x9d01f604       0x34 build/default/production/_ext/444070925/drv_ethphy.o
                0x9d01f604                DRV_ETHPHY_ClientOperationAbort

.text.CRYPT_MD5_Initialize
                0x9d01f638       0x34
 .text.CRYPT_MD5_Initialize
                0x9d01f638       0x34 build/default/production/_ext/1645245335/crypto.o
                0x9d01f638                CRYPT_MD5_Initialize

.text.vListInsertEnd
                0x9d01f66c       0x34
 .text.vListInsertEnd
                0x9d01f66c       0x34 build/default/production/_ext/404212886/list.o
                0x9d01f66c                vListInsertEnd

.text.prvIsQueueEmpty
                0x9d01f6a0       0x34
 .text.prvIsQueueEmpty
                0x9d01f6a0       0x34 build/default/production/_ext/404212886/queue.o

.text.xQueueCreateCountingSemaphore
                0x9d01f6d4       0x34
 .text.xQueueCreateCountingSemaphore
                0x9d01f6d4       0x34 build/default/production/_ext/404212886/queue.o
                0x9d01f6d4                xQueueCreateCountingSemaphore

.text._MacCallocCallback
                0x9d01f708       0x30
 .text._MacCallocCallback
                0x9d01f708       0x30 build/default/production/_ext/732082881/drv_ethmac.o

.text.DRV_ETHMAC_PIC32MACDeinitialize
                0x9d01f738       0x30
 .text.DRV_ETHMAC_PIC32MACDeinitialize
                0x9d01f738       0x30 build/default/production/_ext/732082881/drv_ethmac.o
                0x9d01f738                DRV_ETHMAC_PIC32MACDeinitialize

.text.DRV_ETHMAC_SingleListTailAdd
                0x9d01f768       0x30
 .text.DRV_ETHMAC_SingleListTailAdd
                0x9d01f768       0x30 build/default/production/_ext/732082881/drv_ethmac_lib.o
                0x9d01f768                DRV_ETHMAC_SingleListTailAdd

.text.DRV_ETH_RxSetBufferSize
                0x9d01f798       0x30
 .text.DRV_ETH_RxSetBufferSize
                0x9d01f798       0x30 build/default/production/_ext/732082881/drv_eth_pic32_lib.o
                0x9d01f798                DRV_ETH_RxSetBufferSize

.text.TCPIP_DHCPSSocketRxSignalHandler
                0x9d01f7c8       0x30
 .text.TCPIP_DHCPSSocketRxSignalHandler
                0x9d01f7c8       0x30 build/default/production/_ext/1033058136/dhcps.o

.text._TCPIP_HEAP_FreeSize
                0x9d01f7f8       0x30
 .text._TCPIP_HEAP_FreeSize
                0x9d01f7f8       0x30 build/default/production/_ext/1033058136/tcpip_heap_internal.o

.text.TCPIP_OAHASH_EntryRemove
                0x9d01f828       0x30
 .text.TCPIP_OAHASH_EntryRemove
                0x9d01f828       0x30 build/default/production/_ext/1033058136/oahash.o
                0x9d01f828                TCPIP_OAHASH_EntryRemove

.text.TCPIP_Helper_SingleListTailAdd
                0x9d01f858       0x30
 .text.TCPIP_Helper_SingleListTailAdd
                0x9d01f858       0x30 build/default/production/_ext/1033058136/tcpip_helpers.o
                0x9d01f858                TCPIP_Helper_SingleListTailAdd

.text.TCPIP_STACK_NetAddressGet
                0x9d01f888       0x30
 .text.TCPIP_STACK_NetAddressGet
                0x9d01f888       0x30 build/default/production/_ext/1033058136/tcpip_manager.o
                0x9d01f888                TCPIP_STACK_NetAddressGet

.text.TCPIP_STACK_NetworkIsLinked
                0x9d01f8b8       0x30
 .text.TCPIP_STACK_NetworkIsLinked
                0x9d01f8b8       0x30 build/default/production/_ext/1033058136/tcpip_manager.o
                0x9d01f8b8                TCPIP_STACK_NetworkIsLinked

.text.SYS_TMR_CallbackPeriodic
                0x9d01f8e8       0x30
 .text.SYS_TMR_CallbackPeriodic
                0x9d01f8e8       0x30 build/default/production/_ext/753841488/sys_time_h2_adapter.o
                0x9d01f8e8                SYS_TMR_CallbackPeriodic

.text.OSAL_SEM_Delete
                0x9d01f918       0x30
 .text.OSAL_SEM_Delete
                0x9d01f918       0x30 build/default/production/_ext/1529399856/osal_freertos.o
                0x9d01f918                OSAL_SEM_Delete

.text.OSAL_SEM_Pend
                0x9d01f948       0x30
 .text.OSAL_SEM_Pend
                0x9d01f948       0x30 build/default/production/_ext/1529399856/osal_freertos.o
                0x9d01f948                OSAL_SEM_Pend

.text.OSAL_SEM_Post
                0x9d01f978       0x30
 .text.OSAL_SEM_Post
                0x9d01f978       0x30 build/default/production/_ext/1529399856/osal_freertos.o
                0x9d01f978                OSAL_SEM_Post

.text.OSAL_MUTEX_Lock
                0x9d01f9a8       0x30
 .text.OSAL_MUTEX_Lock
                0x9d01f9a8       0x30 build/default/production/_ext/1529399856/osal_freertos.o
                0x9d01f9a8                OSAL_MUTEX_Lock

.text.OSAL_MUTEX_Unlock
                0x9d01f9d8       0x30
 .text.OSAL_MUTEX_Unlock
                0x9d01f9d8       0x30 build/default/production/_ext/1529399856/osal_freertos.o
                0x9d01f9d8                OSAL_MUTEX_Unlock

.rodata         0x9d01fa08       0x30
 .rodata        0x9d01fa08       0x30 build/default/production/_ext/1171490990/tasks.o

.text._TCPIP_AnnounceSocketRxSignalHandler
                0x9d01fa38       0x30
 .text._TCPIP_AnnounceSocketRxSignalHandler
                0x9d01fa38       0x30 build/default/production/_ext/1033058136/tcpip_announce.o

.text.Helper_SingleListTailAdd
                0x9d01fa68       0x30
 .text.Helper_SingleListTailAdd
                0x9d01fa68       0x30 build/default/production/_ext/438849557/drv_miim.o
                0x9d01fa68                Helper_SingleListTailAdd

.text.DRV_MIIM_Read
                0x9d01fa98       0x30
 .text.DRV_MIIM_Read
                0x9d01fa98       0x30 build/default/production/_ext/438849557/drv_miim.o
                0x9d01fa98                DRV_MIIM_Read

.text.DRV_MIIM_Write
                0x9d01fac8       0x30
 .text.DRV_MIIM_Write
                0x9d01fac8       0x30 build/default/production/_ext/438849557/drv_miim.o
                0x9d01fac8                DRV_MIIM_Write

.text.DRV_MIIM_Scan
                0x9d01faf8       0x30
 .text.DRV_MIIM_Scan
                0x9d01faf8       0x30 build/default/production/_ext/438849557/drv_miim.o
                0x9d01faf8                DRV_MIIM_Scan

.text.DRV_ETHPHY_HWConfigFlagsGet
                0x9d01fb28       0x30
 .text.DRV_ETHPHY_HWConfigFlagsGet
                0x9d01fb28       0x30 build/default/production/_ext/444070925/drv_ethphy.o
                0x9d01fb28                DRV_ETHPHY_HWConfigFlagsGet

.text.DRV_ETHPHY_VendorDataGet
                0x9d01fb58       0x30
 .text.DRV_ETHPHY_VendorDataGet
                0x9d01fb58       0x30 build/default/production/_ext/444070925/drv_ethphy.o
                0x9d01fb58                DRV_ETHPHY_VendorDataGet

.text.wc_InitMd5
                0x9d01fb88       0x30
 .text.wc_InitMd5
                0x9d01fb88       0x30 build/default/production/_ext/1664057780/md5.o
                0x9d01fb88                wc_InitMd5

.text.CRYPT_RNG_Initialize
                0x9d01fbb8       0x30
 .text.CRYPT_RNG_Initialize
                0x9d01fbb8       0x30 build/default/production/_ext/1645245335/crypto.o
                0x9d01fbb8                CRYPT_RNG_Initialize

.text.free      0x9d01fbe8       0x30
 .text.free     0x9d01fbe8       0x30 c:/program files/microchip/xc32/v2.50/bin/bin/../../lib/gcc/pic32mx/4.8.3/../../../../pic32mx/lib\libc.a(malloc.o)
                0x9d01fbe8                free

.text.TCPIP_TCP_WasDisconnected
                0x9d01fc18       0x2c
 .text.TCPIP_TCP_WasDisconnected
                0x9d01fc18       0x2c build/default/production/_ext/1033058136/tcp.o
                0x9d01fc18                TCPIP_TCP_WasDisconnected

.text.CORETIMER_Initialize
                0x9d01fc44       0x2c
 .text.CORETIMER_Initialize
                0x9d01fc44       0x2c build/default/production/_ext/1249264884/plib_coretimer.o
                0x9d01fc44                CORETIMER_Initialize

.text.TCPIP_IPV4_MaxDatagramDataSizeGet
                0x9d01fc70       0x2c
 .text.TCPIP_IPV4_MaxDatagramDataSizeGet
                0x9d01fc70       0x2c build/default/production/_ext/1033058136/ipv4.o
                0x9d01fc70                TCPIP_IPV4_MaxDatagramDataSizeGet

.text._DHCPSRemoveCacheEntries
                0x9d01fc9c       0x2c
 .text._DHCPSRemoveCacheEntries
                0x9d01fc9c       0x2c build/default/production/_ext/1033058136/dhcps.o

.text.TCPIP_OAHASH_EntryGet
                0x9d01fcc8       0x2c
 .text.TCPIP_OAHASH_EntryGet
                0x9d01fcc8       0x2c build/default/production/_ext/1033058136/oahash.o
                0x9d01fcc8                TCPIP_OAHASH_EntryGet

.text.TCPIP_STACK_NetNameGet
                0x9d01fcf4       0x2c
 .text.TCPIP_STACK_NetNameGet
                0x9d01fcf4       0x2c build/default/production/_ext/1033058136/tcpip_manager.o
                0x9d01fcf4                TCPIP_STACK_NetNameGet

.text.TCPIP_Notification_Deinitialize
                0x9d01fd20       0x2c
 .text.TCPIP_Notification_Deinitialize
                0x9d01fd20       0x2c build/default/production/_ext/1033058136/tcpip_notify.o
                0x9d01fd20                TCPIP_Notification_Deinitialize

.text._SYS_RANDOM_CryptoContext
                0x9d01fd4c       0x2c
 .text._SYS_RANDOM_CryptoContext
                0x9d01fd4c       0x2c build/default/production/_ext/753841488/sys_random_h2_adapter.o

.text._TCPIP_STACK_Task
                0x9d01fd78       0x2c
 .text._TCPIP_STACK_Task
                0x9d01fd78       0x2c build/default/production/_ext/1171490990/tasks.o
                0x9d01fd78                _TCPIP_STACK_Task

.text._DRV_MIIM_Task
                0x9d01fda4       0x2c
 .text._DRV_MIIM_Task
                0x9d01fda4       0x2c build/default/production/_ext/1171490990/tasks.o
                0x9d01fda4                _DRV_MIIM_Task

.text.wc_InitRng
                0x9d01fdd0       0x2c
 .text.wc_InitRng
                0x9d01fdd0       0x2c build/default/production/_ext/1664057780/random.o
                0x9d01fdd0                wc_InitRng

.text._stub_sbd_memlayout
                0x9d01fdfc       0x2c
 .text._stub_sbd_memlayout
                0x9d01fdfc       0x2c c:/program files/microchip/xc32/v2.50/bin/bin/../../lib/gcc/pic32mx/4.8.3/../../../../pic32mx/lib\libpic32.a(sbrk.o)
                0x9d01fdfc                _sbd_memlayout
                0x9d01fdfc                _stub_sbd_memlayout

.text.EVIC_SourceEnable
                0x9d01fe28       0x28
 .text.EVIC_SourceEnable
                0x9d01fe28       0x28 build/default/production/_ext/1865200349/plib_evic.o
                0x9d01fe28                EVIC_SourceEnable

.text.EVIC_SourceDisable
                0x9d01fe50       0x28
 .text.EVIC_SourceDisable
                0x9d01fe50       0x28 build/default/production/_ext/1865200349/plib_evic.o
                0x9d01fe50                EVIC_SourceDisable

.text.EVIC_SourceStatusClear
                0x9d01fe78       0x28
 .text.EVIC_SourceStatusClear
                0x9d01fe78       0x28 build/default/production/_ext/1865200349/plib_evic.o
                0x9d01fe78                EVIC_SourceStatusClear

.text.TCPIP_DHCPS_HashMACKeyCopy
                0x9d01fea0       0x28
 .text.TCPIP_DHCPS_HashMACKeyCopy
                0x9d01fea0       0x28 build/default/production/_ext/1033058136/dhcps.o
                0x9d01fea0                TCPIP_DHCPS_HashMACKeyCopy

.text._TCPIP_HEAP_Size
                0x9d01fec8       0x28
 .text._TCPIP_HEAP_Size
                0x9d01fec8       0x28 build/default/production/_ext/1033058136/tcpip_heap_internal.o

.text._TCPIP_HEAP_HighWatermark
                0x9d01fef0       0x28
 .text._TCPIP_HEAP_HighWatermark
                0x9d01fef0       0x28 build/default/production/_ext/1033058136/tcpip_heap_internal.o

.text._TCPIP_HEAP_LastError
                0x9d01ff18       0x28
 .text._TCPIP_HEAP_LastError
                0x9d01ff18       0x28 build/default/production/_ext/1033058136/tcpip_heap_internal.o

.text.TCPIP_STACK_NetUpMACAddressGet
                0x9d01ff40       0x28
 .text.TCPIP_STACK_NetUpMACAddressGet
                0x9d01ff40       0x28 build/default/production/_ext/1033058136/tcpip_manager.o
                0x9d01ff40                TCPIP_STACK_NetUpMACAddressGet

.text._TCPIPStackSignalHandlerDeregister
                0x9d01ff68       0x28
 .text._TCPIPStackSignalHandlerDeregister
                0x9d01ff68       0x28 build/default/production/_ext/1033058136/tcpip_manager.o
                0x9d01ff68                _TCPIPStackSignalHandlerDeregister

.text.SYS_INT_SourceRestore
                0x9d01ff90       0x28
 .text.SYS_INT_SourceRestore
                0x9d01ff90       0x28 build/default/production/_ext/1881668453/sys_int.o
                0x9d01ff90                SYS_INT_SourceRestore

.text._FieldSetTruncated
                0x9d01ffb8       0x28
 .text._FieldSetTruncated
                0x9d01ffb8       0x28 build/default/production/_ext/1033058136/tcpip_announce.o
                0x9d01ffb8                _FieldSetTruncated

.text.TCPIP_UDP_SocketNetGet
                0x9d01ffe0       0x28
 .text.TCPIP_UDP_SocketNetGet
                0x9d01ffe0       0x28 build/default/production/_ext/1033058136/udp.o
                0x9d01ffe0                TCPIP_UDP_SocketNetGet

.text.DRV_MIIM_ClientStatus
                0x9d020008       0x28
 .text.DRV_MIIM_ClientStatus
                0x9d020008       0x28 build/default/production/_ext/438849557/drv_miim.o
                0x9d020008                DRV_MIIM_ClientStatus

.text.CRYPT_WCCB_Initialize
                0x9d020030       0x28
 .text.CRYPT_WCCB_Initialize
                0x9d020030       0x28 build/default/production/_ext/172253694/crypt_wolfcryptcb.o
                0x9d020030                CRYPT_WCCB_Initialize

.text.pvTaskIncrementMutexHeldCount
                0x9d020058       0x28
 .text.pvTaskIncrementMutexHeldCount
                0x9d020058       0x28 build/default/production/_ext/404212886/FreeRTOS_tasks.o
                0x9d020058                pvTaskIncrementMutexHeldCount

.text._snprintf_cdnopsuxX
                0x9d020080       0x28
 .text._snprintf_cdnopsuxX
                0x9d020080       0x28 c:/program files/microchip/xc32/v2.50/bin/bin/../../lib/gcc/pic32mx/4.8.3/../../../../pic32mx/lib\libc.a(snprintf_cdnopsuxX.eo)
                0x9d020080                _snprintf_cdnopsuxX

.text.EVIC_SourceIsEnabled
                0x9d0200a8       0x24
 .text.EVIC_SourceIsEnabled
                0x9d0200a8       0x24 build/default/production/_ext/1865200349/plib_evic.o
                0x9d0200a8                EVIC_SourceIsEnabled

.text.EVIC_INT_Restore
                0x9d0200cc       0x24
 .text.EVIC_INT_Restore
                0x9d0200cc       0x24 build/default/production/_ext/1865200349/plib_evic.o
                0x9d0200cc                EVIC_INT_Restore

.text._general_exception_handler
                0x9d0200f0       0x24
 .text._general_exception_handler
                0x9d0200f0       0x24 build/default/production/_ext/1171490990/exceptions.o
                0x9d0200f0                _general_exception_handler

.text._bootstrap_exception_handler
                0x9d020114       0x24
 .text._bootstrap_exception_handler
                0x9d020114       0x24 build/default/production/_ext/1171490990/exceptions.o
                0x9d020114                _bootstrap_exception_handler

.text.DRV_ETHMAC_PIC32MACClose
                0x9d020138       0x24
 .text.DRV_ETHMAC_PIC32MACClose
                0x9d020138       0x24 build/default/production/_ext/732082881/drv_ethmac.o
                0x9d020138                DRV_ETHMAC_PIC32MACClose

.text._TCP_TxPktValid
                0x9d02015c       0x24
 .text._TCP_TxPktValid
                0x9d02015c       0x24 build/default/production/_ext/1033058136/tcp.o

.text.TCPIP_DHCPS_DataCopyToProcessBuffer
                0x9d020180       0x24
 .text.TCPIP_DHCPS_DataCopyToProcessBuffer
                0x9d020180       0x24 build/default/production/_ext/1033058136/dhcps.o

.text.TCPIP_DHCPS_HashMACKeyCompare
                0x9d0201a4       0x24
 .text.TCPIP_DHCPS_HashMACKeyCompare
                0x9d0201a4       0x24 build/default/production/_ext/1033058136/dhcps.o
                0x9d0201a4                TCPIP_DHCPS_HashMACKeyCompare

.text.TCPIP_DHCPS_IsEnabled
                0x9d0201c8       0x24
 .text.TCPIP_DHCPS_IsEnabled
                0x9d0201c8       0x24 build/default/production/_ext/1033058136/dhcps.o
                0x9d0201c8                TCPIP_DHCPS_IsEnabled

.rodata         0x9d0201ec       0x24
 .rodata        0x9d0201ec       0x24 build/default/production/_ext/1033058136/tcpip_heap_internal.o

.text.vApplicationStackOverflowHook
                0x9d020210       0x24
 .text.vApplicationStackOverflowHook
                0x9d020210       0x24 build/default/production/_ext/1171490990/freertos_hooks.o
                0x9d020210                vApplicationStackOverflowHook

.text.vApplicationMallocFailedHook
                0x9d020234       0x24
 .text.vApplicationMallocFailedHook
                0x9d020234       0x24 build/default/production/_ext/1171490990/freertos_hooks.o
                0x9d020234                vApplicationMallocFailedHook

.text.vListInitialise
                0x9d020258       0x24
 .text.vListInitialise
                0x9d020258       0x24 build/default/production/_ext/404212886/list.o
                0x9d020258                vListInitialise

.text.prvTaskExitError
                0x9d02027c       0x24
 .text.prvTaskExitError
                0x9d02027c       0x24 build/default/production/_ext/951553248/port.o

.text.toupper   0x9d0202a0       0x24
 .text.toupper  0x9d0202a0       0x24 c:/program files/microchip/xc32/v2.50/bin/bin/../../lib/gcc/pic32mx/4.8.3/../../../../pic32mx/lib\libc.a(ctypef.o)
                0x9d0202a0                toupper

.text.EVIC_INT_Disable
                0x9d0202c4       0x20
 .text.EVIC_INT_Disable
                0x9d0202c4       0x20 build/default/production/_ext/1865200349/plib_evic.o
                0x9d0202c4                EVIC_INT_Disable

.text.SPI4_Write
                0x9d0202e4       0x20
 .text.SPI4_Write
                0x9d0202e4       0x20 build/default/production/_ext/298189674/plib_spi4_master.o
                0x9d0202e4                SPI4_Write

.text.main      0x9d020304       0x20
 .text.main     0x9d020304       0x20 build/default/production/_ext/1360937237/main.o
                0x9d020304                main

.text.DRV_ETHMAC_PIC32MACStatus
                0x9d020324       0x20
 .text.DRV_ETHMAC_PIC32MACStatus
                0x9d020324       0x20 build/default/production/_ext/732082881/drv_ethmac.o
                0x9d020324                DRV_ETHMAC_PIC32MACStatus

.text.TCPIP_HEAP_MallocOutline
                0x9d020344       0x20
 .text.TCPIP_HEAP_MallocOutline
                0x9d020344       0x20 build/default/production/_ext/1033058136/tcpip_heap_alloc.o
                0x9d020344                TCPIP_HEAP_MallocOutline

.text.TCPIP_HEAP_CallocOutline
                0x9d020364       0x20
 .text.TCPIP_HEAP_CallocOutline
                0x9d020364       0x20 build/default/production/_ext/1033058136/tcpip_heap_alloc.o
                0x9d020364                TCPIP_HEAP_CallocOutline

.text.TCPIP_HEAP_FreeOutline
                0x9d020384       0x20
 .text.TCPIP_HEAP_FreeOutline
                0x9d020384       0x20 build/default/production/_ext/1033058136/tcpip_heap_alloc.o
                0x9d020384                TCPIP_HEAP_FreeOutline

.text.TCPIP_STACK_AddressServiceCanStart
                0x9d0203a4       0x20
 .text.TCPIP_STACK_AddressServiceCanStart
                0x9d0203a4       0x20 build/default/production/_ext/1033058136/tcpip_manager.o
                0x9d0203a4                TCPIP_STACK_AddressServiceCanStart

.text.sy_time_h2_adapter_callback
                0x9d0203c4       0x20
 .text.sy_time_h2_adapter_callback
                0x9d0203c4       0x20 build/default/production/_ext/753841488/sys_time_h2_adapter.o
                0x9d0203c4                sy_time_h2_adapter_callback

.text.CLK_Initialize
                0x9d0203e4       0x1c
 .text.CLK_Initialize
                0x9d0203e4       0x1c build/default/production/_ext/60165520/plib_clk.o
                0x9d0203e4                CLK_Initialize

.text.CORE_TIMER_Handler
                0x9d020400       0x1c
 .text.CORE_TIMER_Handler
                0x9d020400       0x1c build/default/production/_ext/1171490990/interrupts.o
                0x9d020400                CORE_TIMER_Handler

.text.TIMER_2_Handler
                0x9d02041c       0x1c
 .text.TIMER_2_Handler
                0x9d02041c       0x1c build/default/production/_ext/1171490990/interrupts.o
                0x9d02041c                TIMER_2_Handler

.text.SPI_1_Handler
                0x9d020438       0x1c
 .text.SPI_1_Handler
                0x9d020438       0x1c build/default/production/_ext/1171490990/interrupts.o
                0x9d020438                SPI_1_Handler

.text.SPI_4_Handler
                0x9d020454       0x1c
 .text.SPI_4_Handler
                0x9d020454       0x1c build/default/production/_ext/1171490990/interrupts.o
                0x9d020454                SPI_4_Handler

.text.ETH_Handler
                0x9d020470       0x1c
 .text.ETH_Handler
                0x9d020470       0x1c build/default/production/_ext/1171490990/interrupts.o
                0x9d020470                ETH_Handler

.text._DRV_ETHMAC_GetMCollisionCount
                0x9d02048c       0x1c
 .text._DRV_ETHMAC_GetMCollisionCount
                0x9d02048c       0x1c build/default/production/_ext/732082881/drv_ethmac.o

.text._DRV_ETHMAC_GetSCollisionCount
                0x9d0204a8       0x1c
 .text._DRV_ETHMAC_GetSCollisionCount
                0x9d0204a8       0x1c build/default/production/_ext/732082881/drv_ethmac.o

.text._DRV_ETHMAC_GetAlignError
                0x9d0204c4       0x1c
 .text._DRV_ETHMAC_GetAlignError
                0x9d0204c4       0x1c build/default/production/_ext/732082881/drv_ethmac.o

.text._DRV_ETHMAC_GetFrmFcsError
                0x9d0204e0       0x1c
 .text._DRV_ETHMAC_GetFrmFcsError
                0x9d0204e0       0x1c build/default/production/_ext/732082881/drv_ethmac.o

.text._DRV_ETHMAC_GetFrmRxOvflow
                0x9d0204fc       0x1c
 .text._DRV_ETHMAC_GetFrmRxOvflow
                0x9d0204fc       0x1c build/default/production/_ext/732082881/drv_ethmac.o

.text._DRV_ETHMAC_GetFrmPktCount
                0x9d020518       0x1c
 .text._DRV_ETHMAC_GetFrmPktCount
                0x9d020518       0x1c build/default/production/_ext/732082881/drv_ethmac.o

.text._DRV_ETHMAC_GetFrmRxOk
                0x9d020534       0x1c
 .text._DRV_ETHMAC_GetFrmRxOk
                0x9d020534       0x1c build/default/production/_ext/732082881/drv_ethmac.o

.text._DRV_ETHMAC_GetFrmTxOk
                0x9d020550       0x1c
 .text._DRV_ETHMAC_GetFrmTxOk
                0x9d020550       0x1c build/default/production/_ext/732082881/drv_ethmac.o

.text.ETHERNET_InterruptHandler
                0x9d02056c       0x1c
 .text.ETHERNET_InterruptHandler
                0x9d02056c       0x1c build/default/production/_ext/732082881/drv_ethmac.o
                0x9d02056c                ETHERNET_InterruptHandler

.text.DRV_ETH_NonBackToBackIPG1Set
                0x9d020588       0x1c
 .text.DRV_ETH_NonBackToBackIPG1Set
                0x9d020588       0x1c build/default/production/_ext/732082881/drv_eth_pic32_lib.o
                0x9d020588                DRV_ETH_NonBackToBackIPG1Set

.text.DRV_ETH_MIIMReadStart
                0x9d0205a4       0x1c
 .text.DRV_ETH_MIIMReadStart
                0x9d0205a4       0x1c build/default/production/_ext/732082881/drv_eth_pic32_lib.o
                0x9d0205a4                DRV_ETH_MIIMReadStart

.text.SYS_TIME_CounterGet
                0x9d0205c0       0x1c
 .text.SYS_TIME_CounterGet
                0x9d0205c0       0x1c build/default/production/_ext/101884895/sys_time.o
                0x9d0205c0                SYS_TIME_CounterGet

.text.CORETIMER_CompareSet
                0x9d0205dc       0x1c
 .text.CORETIMER_CompareSet
                0x9d0205dc       0x1c build/default/production/_ext/1249264884/plib_coretimer.o
                0x9d0205dc                CORETIMER_CompareSet

.text.TCPIP_Helper_ChecksumFold
                0x9d0205f8       0x1c
 .text.TCPIP_Helper_ChecksumFold
                0x9d0205f8       0x1c build/default/production/_ext/1033058136/tcpip_helpers.o
                0x9d0205f8                TCPIP_Helper_ChecksumFold

.text.TCPIP_STACK_GatewayAddressSet
                0x9d020614       0x1c
 .text.TCPIP_STACK_GatewayAddressSet
                0x9d020614       0x1c build/default/production/_ext/1033058136/tcpip_manager.o
                0x9d020614                TCPIP_STACK_GatewayAddressSet

.text.TCPIP_Notification_Initialize
                0x9d020630       0x1c
 .text.TCPIP_Notification_Initialize
                0x9d020630       0x1c build/default/production/_ext/1033058136/tcpip_notify.o
                0x9d020630                TCPIP_Notification_Initialize

.text.SYS_INT_Disable
                0x9d02064c       0x1c
 .text.SYS_INT_Disable
                0x9d02064c       0x1c build/default/production/_ext/1881668453/sys_int.o
                0x9d02064c                SYS_INT_Disable

.text.SYS_INT_Restore
                0x9d020668       0x1c
 .text.SYS_INT_Restore
                0x9d020668       0x1c build/default/production/_ext/1881668453/sys_int.o
                0x9d020668                SYS_INT_Restore

.rodata         0x9d020684       0x1c
 .rodata        0x9d020684       0x1c build/default/production/_ext/1033058136/tcpip_announce.o

.text.TCPIP_UDP_ServerOpen
                0x9d0206a0       0x1c
 .text.TCPIP_UDP_ServerOpen
                0x9d0206a0       0x1c build/default/production/_ext/1033058136/udp.o
                0x9d0206a0                TCPIP_UDP_ServerOpen

.text.TCPIP_UDP_TxPutIsReady
                0x9d0206bc       0x1c
 .text.TCPIP_UDP_TxPutIsReady
                0x9d0206bc       0x1c build/default/production/_ext/1033058136/udp.o
                0x9d0206bc                TCPIP_UDP_TxPutIsReady

.text.TCPIP_UDP_Get
                0x9d0206d8       0x1c
 .text.TCPIP_UDP_Get
                0x9d0206d8       0x1c build/default/production/_ext/1033058136/udp.o
                0x9d0206d8                TCPIP_UDP_Get

.text.DRV_ETHPHY_Deinitialize
                0x9d0206f4       0x1c
 .text.DRV_ETHPHY_Deinitialize
                0x9d0206f4       0x1c build/default/production/_ext/444070925/drv_ethphy.o
                0x9d0206f4                DRV_ETHPHY_Deinitialize

.text.DRV_ETHPHY_VendorDataSet
                0x9d020710       0x1c
 .text.DRV_ETHPHY_VendorDataSet
                0x9d020710       0x1c build/default/production/_ext/444070925/drv_ethphy.o
                0x9d020710                DRV_ETHPHY_VendorDataSet

.text._DRV_ETHPHY_NegRestartPhaseWrite
                0x9d02072c       0x1c
 .text._DRV_ETHPHY_NegRestartPhaseWrite
                0x9d02072c       0x1c build/default/production/_ext/444070925/drv_ethphy.o

.text.vQueueDelete
                0x9d020748       0x1c
 .text.vQueueDelete
                0x9d020748       0x1c build/default/production/_ext/404212886/queue.o
                0x9d020748                vQueueDelete

.text.srand     0x9d020764       0x1c
 .text.srand    0x9d020764       0x1c c:/program files/microchip/xc32/v2.50/bin/bin/../../lib/gcc/pic32mx/4.8.3/../../../../pic32mx/lib\libc.a(rand.o)
                0x9d020764                srand

.text.DRV_ETH_BackToBackIPGSet
                0x9d020780       0x18
 .text.DRV_ETH_BackToBackIPGSet
                0x9d020780       0x18 build/default/production/_ext/732082881/drv_eth_pic32_lib.o
                0x9d020780                DRV_ETH_BackToBackIPGSet

.text.DRV_ETH_NonBackToBackIPG2Set
                0x9d020798       0x18
 .text.DRV_ETH_NonBackToBackIPG2Set
                0x9d020798       0x18 build/default/production/_ext/732082881/drv_eth_pic32_lib.o
                0x9d020798                DRV_ETH_NonBackToBackIPG2Set

.text.TCPIP_ARP_HashKeyCompare
                0x9d0207b0       0x18
 .text.TCPIP_ARP_HashKeyCompare
                0x9d0207b0       0x18 build/default/production/_ext/1033058136/arp.o
                0x9d0207b0                TCPIP_ARP_HashKeyCompare

.text.CORETIMER_CounterGet
                0x9d0207c8       0x18
 .text.CORETIMER_CounterGet
                0x9d0207c8       0x18 build/default/production/_ext/1249264884/plib_coretimer.o
                0x9d0207c8                CORETIMER_CounterGet

.text.TCPIP_STACK_NetIndexGet
                0x9d0207e0       0x18
 .text.TCPIP_STACK_NetIndexGet
                0x9d0207e0       0x18 build/default/production/_ext/1033058136/tcpip_manager.o
                0x9d0207e0                TCPIP_STACK_NetIndexGet

.text.TCPIP_STACK_NetIxGet
                0x9d0207f8       0x18
 .text.TCPIP_STACK_NetIxGet
                0x9d0207f8       0x18 build/default/production/_ext/1033058136/tcpip_manager.o
                0x9d0207f8                TCPIP_STACK_NetIxGet

.text._APP_Tasks
                0x9d020810       0x18
 .text._APP_Tasks
                0x9d020810       0x18 build/default/production/_ext/1171490990/tasks.o
                0x9d020810                _APP_Tasks

.text.DRV_ETHPHY_Status
                0x9d020828       0x18
 .text.DRV_ETHPHY_Status
                0x9d020828       0x18 build/default/production/_ext/444070925/drv_ethphy.o
                0x9d020828                DRV_ETHPHY_Status

.text.DRV_ETHPHY_ClientStatus
                0x9d020840       0x18
 .text.DRV_ETHPHY_ClientStatus
                0x9d020840       0x18 build/default/production/_ext/444070925/drv_ethphy.o
                0x9d020840                DRV_ETHPHY_ClientStatus

.text.DRV_ETHPHY_ClientOperationResult
                0x9d020858       0x18
 .text.DRV_ETHPHY_ClientOperationResult
                0x9d020858       0x18 build/default/production/_ext/444070925/drv_ethphy.o
                0x9d020858                DRV_ETHPHY_ClientOperationResult

.text           0x9d020870       0x18
 .text          0x9d020870       0x18 c:/program files/microchip/xc32/v2.50/bin/bin/../../lib/gcc/pic32mx/4.8.3/../../../../pic32mx/lib\libpic32.a(default-nmi-handler.o)
                0x9d020870                _nmi_handler

.text.DRV_ETH_TxPacketDescAddrSet
                0x9d020888       0x14
 .text.DRV_ETH_TxPacketDescAddrSet
                0x9d020888       0x14 build/default/production/_ext/732082881/drv_eth_pic32_lib.o
                0x9d020888                DRV_ETH_TxPacketDescAddrSet

.text.DRV_ETH_RxPacketDescAddrSet
                0x9d02089c       0x14
 .text.DRV_ETH_RxPacketDescAddrSet
                0x9d02089c       0x14 build/default/production/_ext/732082881/drv_eth_pic32_lib.o
                0x9d02089c                DRV_ETH_RxPacketDescAddrSet

.rodata         0x9d0208b0       0x14
 .rodata        0x9d0208b0       0x14 build/default/production/_ext/444070925/drv_extphy_smsc8720.o
                0x9d0208b0                DRV_ETHPHY_OBJECT_SMSC_LAN8720

.text.vTaskSuspendAll
                0x9d0208c4       0x14
 .text.vTaskSuspendAll
                0x9d0208c4       0x14 build/default/production/_ext/404212886/FreeRTOS_tasks.o
                0x9d0208c4                vTaskSuspendAll

.text.vTaskInternalSetTimeOutState
                0x9d0208d8       0x14
 .text.vTaskInternalSetTimeOutState
                0x9d0208d8       0x14 build/default/production/_ext/404212886/FreeRTOS_tasks.o
                0x9d0208d8                vTaskInternalSetTimeOutState

.text.DRV_ETH_RxBufferCountDecrement
                0x9d0208ec       0x10
 .text.DRV_ETH_RxBufferCountDecrement
                0x9d0208ec       0x10 build/default/production/_ext/732082881/drv_eth_pic32_lib.o
                0x9d0208ec                DRV_ETH_RxBufferCountDecrement

.text.DRV_ETH_MIIResetEnable
                0x9d0208fc       0x10
 .text.DRV_ETH_MIIResetEnable
                0x9d0208fc       0x10 build/default/production/_ext/732082881/drv_eth_pic32_lib.o
                0x9d0208fc                DRV_ETH_MIIResetEnable

.text.DRV_ETH_MIIResetDisable
                0x9d02090c       0x10
 .text.DRV_ETH_MIIResetDisable
                0x9d02090c       0x10 build/default/production/_ext/732082881/drv_eth_pic32_lib.o
                0x9d02090c                DRV_ETH_MIIResetDisable

.text.DRV_ETH_Disable
                0x9d02091c       0x10
 .text.DRV_ETH_Disable
                0x9d02091c       0x10 build/default/production/_ext/732082881/drv_eth_pic32_lib.o
                0x9d02091c                DRV_ETH_Disable

.text.DRV_ETH_Enable
                0x9d02092c       0x10
 .text.DRV_ETH_Enable
                0x9d02092c       0x10 build/default/production/_ext/732082881/drv_eth_pic32_lib.o
                0x9d02092c                DRV_ETH_Enable

.text.DRV_ETH_TxRTSDisable
                0x9d02093c       0x10
 .text.DRV_ETH_TxRTSDisable
                0x9d02093c       0x10 build/default/production/_ext/732082881/drv_eth_pic32_lib.o
                0x9d02093c                DRV_ETH_TxRTSDisable

.text.DRV_ETH_TxRTSEnable
                0x9d02094c       0x10
 .text.DRV_ETH_TxRTSEnable
                0x9d02094c       0x10 build/default/production/_ext/732082881/drv_eth_pic32_lib.o
                0x9d02094c                DRV_ETH_TxRTSEnable

.text.DRV_ETH_RxDisable
                0x9d02095c       0x10
 .text.DRV_ETH_RxDisable
                0x9d02095c       0x10 build/default/production/_ext/732082881/drv_eth_pic32_lib.o
                0x9d02095c                DRV_ETH_RxDisable

.text.DRV_ETH_RxEnable
                0x9d02096c       0x10
 .text.DRV_ETH_RxEnable
                0x9d02096c       0x10 build/default/production/_ext/732082881/drv_eth_pic32_lib.o
                0x9d02096c                DRV_ETH_RxEnable

.text.DRV_ETH_CollisionWindowSet
                0x9d02097c       0x10
 .text.DRV_ETH_CollisionWindowSet
                0x9d02097c       0x10 build/default/production/_ext/732082881/drv_eth_pic32_lib.o
                0x9d02097c                DRV_ETH_CollisionWindowSet

.text.DRV_ETH_ReTxMaxSet
                0x9d02098c       0x10
 .text.DRV_ETH_ReTxMaxSet
                0x9d02098c       0x10 build/default/production/_ext/732082881/drv_eth_pic32_lib.o
                0x9d02098c                DRV_ETH_ReTxMaxSet

.text.DRV_ETH_RMIIResetEnable
                0x9d02099c       0x10
 .text.DRV_ETH_RMIIResetEnable
                0x9d02099c       0x10 build/default/production/_ext/732082881/drv_eth_pic32_lib.o
                0x9d02099c                DRV_ETH_RMIIResetEnable

.text.DRV_ETH_RMIIResetDisable
                0x9d0209ac       0x10
 .text.DRV_ETH_RMIIResetDisable
                0x9d0209ac       0x10 build/default/production/_ext/732082881/drv_eth_pic32_lib.o
                0x9d0209ac                DRV_ETH_RMIIResetDisable

.text.DRV_ETH_RMIISpeedSet
                0x9d0209bc       0x10
 .text.DRV_ETH_RMIISpeedSet
                0x9d0209bc       0x10 build/default/production/_ext/732082881/drv_eth_pic32_lib.o
                0x9d0209bc                DRV_ETH_RMIISpeedSet

.text.DRV_ETH_RxFiltersClr
                0x9d0209cc       0x10
 .text.DRV_ETH_RxFiltersClr
                0x9d0209cc       0x10 build/default/production/_ext/732082881/drv_eth_pic32_lib.o
                0x9d0209cc                DRV_ETH_RxFiltersClr

.text.DRV_ETH_RxFiltersSet
                0x9d0209dc       0x10
 .text.DRV_ETH_RxFiltersSet
                0x9d0209dc       0x10 build/default/production/_ext/732082881/drv_eth_pic32_lib.o
                0x9d0209dc                DRV_ETH_RxFiltersSet

.text.DRV_ETH_PauseTimerSet
                0x9d0209ec       0x10
 .text.DRV_ETH_PauseTimerSet
                0x9d0209ec       0x10 build/default/production/_ext/732082881/drv_eth_pic32_lib.o
                0x9d0209ec                DRV_ETH_PauseTimerSet

.text.DRV_ETH_TxPauseEnable
                0x9d0209fc       0x10
 .text.DRV_ETH_TxPauseEnable
                0x9d0209fc       0x10 build/default/production/_ext/732082881/drv_eth_pic32_lib.o
                0x9d0209fc                DRV_ETH_TxPauseEnable

.text.DRV_ETH_RxPauseEnable
                0x9d020a0c       0x10
 .text.DRV_ETH_RxPauseEnable
                0x9d020a0c       0x10 build/default/production/_ext/732082881/drv_eth_pic32_lib.o
                0x9d020a0c                DRV_ETH_RxPauseEnable

.text.DRV_ETH_AutoFlowControlEnable
                0x9d020a1c       0x10
 .text.DRV_ETH_AutoFlowControlEnable
                0x9d020a1c       0x10 build/default/production/_ext/732082881/drv_eth_pic32_lib.o
                0x9d020a1c                DRV_ETH_AutoFlowControlEnable

.text.DRV_ETH_RxFiltersHTSet
                0x9d020a2c       0x10
 .text.DRV_ETH_RxFiltersHTSet
                0x9d020a2c       0x10 build/default/production/_ext/732082881/drv_eth_pic32_lib.o
                0x9d020a2c                DRV_ETH_RxFiltersHTSet

.text.DRV_ETH_MIIMNoPreEnable
                0x9d020a3c       0x10
 .text.DRV_ETH_MIIMNoPreEnable
                0x9d020a3c       0x10 build/default/production/_ext/732082881/drv_eth_pic32_lib.o
                0x9d020a3c                DRV_ETH_MIIMNoPreEnable

.text.DRV_ETH_MIIMNoPreDisable
                0x9d020a4c       0x10
 .text.DRV_ETH_MIIMNoPreDisable
                0x9d020a4c       0x10 build/default/production/_ext/732082881/drv_eth_pic32_lib.o
                0x9d020a4c                DRV_ETH_MIIMNoPreDisable

.text.DRV_ETH_MIIMScanIncrEnable
                0x9d020a5c       0x10
 .text.DRV_ETH_MIIMScanIncrEnable
                0x9d020a5c       0x10 build/default/production/_ext/732082881/drv_eth_pic32_lib.o
                0x9d020a5c                DRV_ETH_MIIMScanIncrEnable

.text.DRV_ETH_MIIMScanIncrDisable
                0x9d020a6c       0x10
 .text.DRV_ETH_MIIMScanIncrDisable
                0x9d020a6c       0x10 build/default/production/_ext/732082881/drv_eth_pic32_lib.o
                0x9d020a6c                DRV_ETH_MIIMScanIncrDisable

.text.DRV_ETH_PHYAddressSet
                0x9d020a7c       0x10
 .text.DRV_ETH_PHYAddressSet
                0x9d020a7c       0x10 build/default/production/_ext/732082881/drv_eth_pic32_lib.o
                0x9d020a7c                DRV_ETH_PHYAddressSet

.text.DRV_ETH_RegisterAddressSet
                0x9d020a8c       0x10
 .text.DRV_ETH_RegisterAddressSet
                0x9d020a8c       0x10 build/default/production/_ext/732082881/drv_eth_pic32_lib.o
                0x9d020a8c                DRV_ETH_RegisterAddressSet

.text.DRV_ETH_ClearDataValid
                0x9d020a9c       0x10
 .text.DRV_ETH_ClearDataValid
                0x9d020a9c       0x10 build/default/production/_ext/732082881/drv_eth_pic32_lib.o
                0x9d020a9c                DRV_ETH_ClearDataValid

.text.DRV_ETH_MIIMScanModeEnable
                0x9d020aac       0x10
 .text.DRV_ETH_MIIMScanModeEnable
                0x9d020aac       0x10 build/default/production/_ext/732082881/drv_eth_pic32_lib.o
                0x9d020aac                DRV_ETH_MIIMScanModeEnable

.text.DRV_ETH_MIIMScanModeDisable
                0x9d020abc       0x10
 .text.DRV_ETH_MIIMScanModeDisable
                0x9d020abc       0x10 build/default/production/_ext/732082881/drv_eth_pic32_lib.o
                0x9d020abc                DRV_ETH_MIIMScanModeDisable

.text.DRV_ETH_MIIMWriteDataSet
                0x9d020acc       0x10
 .text.DRV_ETH_MIIMWriteDataSet
                0x9d020acc       0x10 build/default/production/_ext/732082881/drv_eth_pic32_lib.o
                0x9d020acc                DRV_ETH_MIIMWriteDataSet

.text.DRV_ETH_MIIMWriteStart
                0x9d020adc       0x10
 .text.DRV_ETH_MIIMWriteStart
                0x9d020adc       0x10 build/default/production/_ext/732082881/drv_eth_pic32_lib.o
                0x9d020adc                DRV_ETH_MIIMWriteStart

.text.DRV_ETH_MIIMResetEnable
                0x9d020aec       0x10
 .text.DRV_ETH_MIIMResetEnable
                0x9d020aec       0x10 build/default/production/_ext/732082881/drv_eth_pic32_lib.o
                0x9d020aec                DRV_ETH_MIIMResetEnable

.text.DRV_ETH_MIIMResetDisable
                0x9d020afc       0x10
 .text.DRV_ETH_MIIMResetDisable
                0x9d020afc       0x10 build/default/production/_ext/732082881/drv_eth_pic32_lib.o
                0x9d020afc                DRV_ETH_MIIMResetDisable

.text.DRV_ETH_MIIMClockSet
                0x9d020b0c       0x10
 .text.DRV_ETH_MIIMClockSet
                0x9d020b0c       0x10 build/default/production/_ext/732082881/drv_eth_pic32_lib.o
                0x9d020b0c                DRV_ETH_MIIMClockSet

.text.TCPIP_ARP_HashKeyCopy
                0x9d020b1c       0x10
 .text.TCPIP_ARP_HashKeyCopy
                0x9d020b1c       0x10 build/default/production/_ext/1033058136/arp.o
                0x9d020b1c                TCPIP_ARP_HashKeyCopy

.text.TCPIP_Helper_SingleListInitialize
                0x9d020b2c       0x10
 .text.TCPIP_Helper_SingleListInitialize
                0x9d020b2c       0x10 build/default/production/_ext/1033058136/tcpip_helpers.o
                0x9d020b2c                TCPIP_Helper_SingleListInitialize

.text._FieldSetUserStart
                0x9d020b3c       0x10
 .text._FieldSetUserStart
                0x9d020b3c       0x10 build/default/production/_ext/1033058136/tcpip_announce.o
                0x9d020b3c                _FieldSetUserStart

.text.DRV_EXTPHY_MIIConfigure
                0x9d020b4c       0x10
 .text.DRV_EXTPHY_MIIConfigure
                0x9d020b4c       0x10 build/default/production/_ext/444070925/drv_extphy_smsc8720.o

.text.vTaskMissedYield
                0x9d020b5c       0x10
 .text.vTaskMissedYield
                0x9d020b5c       0x10 build/default/production/_ext/404212886/FreeRTOS_tasks.o
                0x9d020b5c                vTaskMissedYield

.text.DRV_ETHMAC_PIC32MACEventPendingGet
                0x9d020b6c        0xc
 .text.DRV_ETHMAC_PIC32MACEventPendingGet
                0x9d020b6c        0xc build/default/production/_ext/732082881/drv_ethmac.o
                0x9d020b6c                DRV_ETHMAC_PIC32MACEventPendingGet

.text.DRV_ETH_EthernetIsBusy
                0x9d020b78        0xc
 .text.DRV_ETH_EthernetIsBusy
                0x9d020b78        0xc build/default/production/_ext/732082881/drv_eth_pic32_lib.o
                0x9d020b78                DRV_ETH_EthernetIsBusy

.text.DRV_ETH_TransmitIsBusy
                0x9d020b84        0xc
 .text.DRV_ETH_TransmitIsBusy
                0x9d020b84        0xc build/default/production/_ext/732082881/drv_eth_pic32_lib.o
                0x9d020b84                DRV_ETH_TransmitIsBusy

.text.DRV_ETH_ReceiveIsBusy
                0x9d020b90        0xc
 .text.DRV_ETH_ReceiveIsBusy
                0x9d020b90        0xc build/default/production/_ext/732082881/drv_eth_pic32_lib.o
                0x9d020b90                DRV_ETH_ReceiveIsBusy

.text.DRV_ETH_EventsClr
                0x9d020b9c        0xc
 .text.DRV_ETH_EventsClr
                0x9d020b9c        0xc build/default/production/_ext/732082881/drv_eth_pic32_lib.o
                0x9d020b9c                DRV_ETH_EventsClr

.text.DRV_ETH_EventsEnableSet
                0x9d020ba8        0xc
 .text.DRV_ETH_EventsEnableSet
                0x9d020ba8        0xc build/default/production/_ext/732082881/drv_eth_pic32_lib.o
                0x9d020ba8                DRV_ETH_EventsEnableSet

.text.DRV_ETH_EventsEnableClr
                0x9d020bb4        0xc
 .text.DRV_ETH_EventsEnableClr
                0x9d020bb4        0xc build/default/production/_ext/732082881/drv_eth_pic32_lib.o
                0x9d020bb4                DRV_ETH_EventsEnableClr

.text.DRV_ETH_EventsClear
                0x9d020bc0        0xc
 .text.DRV_ETH_EventsClear
                0x9d020bc0        0xc build/default/production/_ext/732082881/drv_eth_pic32_lib.o
                0x9d020bc0                DRV_ETH_EventsClear

.text.DRV_ETH_IsEnabled
                0x9d020bcc        0xc
 .text.DRV_ETH_IsEnabled
                0x9d020bcc        0xc build/default/production/_ext/732082881/drv_eth_pic32_lib.o
                0x9d020bcc                DRV_ETH_IsEnabled

.text.DRV_ETH_MIIMIsBusy
                0x9d020bd8        0xc
 .text.DRV_ETH_MIIMIsBusy
                0x9d020bd8        0xc build/default/production/_ext/732082881/drv_eth_pic32_lib.o
                0x9d020bd8                DRV_ETH_MIIMIsBusy

.text.DRV_ETH_DataNotValid
                0x9d020be4        0xc
 .text.DRV_ETH_DataNotValid
                0x9d020be4        0xc build/default/production/_ext/732082881/drv_eth_pic32_lib.o
                0x9d020be4                DRV_ETH_DataNotValid

.text.SYS_TIME_FrequencyGet
                0x9d020bf0        0xc
 .text.SYS_TIME_FrequencyGet
                0x9d020bf0        0xc build/default/production/_ext/101884895/sys_time.o
                0x9d020bf0                SYS_TIME_FrequencyGet

.text.CORETIMER_CallbackSet
                0x9d020bfc        0xc
 .text.CORETIMER_CallbackSet
                0x9d020bfc        0xc build/default/production/_ext/1249264884/plib_coretimer.o
                0x9d020bfc                CORETIMER_CallbackSet

.text.CORETIMER_FrequencyGet
                0x9d020c08        0xc
 .text.CORETIMER_FrequencyGet
                0x9d020c08        0xc build/default/production/_ext/1249264884/plib_coretimer.o
                0x9d020c08                CORETIMER_FrequencyGet

.text.TCPIP_STACK_NumberOfNetworksGet
                0x9d020c14        0xc
 .text.TCPIP_STACK_NumberOfNetworksGet
                0x9d020c14        0xc build/default/production/_ext/1033058136/tcpip_manager.o
                0x9d020c14                TCPIP_STACK_NumberOfNetworksGet

.text.TCPIP_STACK_NetBIOSName
                0x9d020c20        0xc
 .text.TCPIP_STACK_NetBIOSName
                0x9d020c20        0xc build/default/production/_ext/1033058136/tcpip_manager.o
                0x9d020c20                TCPIP_STACK_NetBIOSName

.text.DRV_EXTPHY_SMIClockGet
                0x9d020c2c        0xc
 .text.DRV_EXTPHY_SMIClockGet
                0x9d020c2c        0xc build/default/production/_ext/444070925/drv_extphy_smsc8720.o

.text._mon_putc
                0x9d020c38        0x8
 .text._mon_putc
                0x9d020c38        0x8 build/default/production/_ext/163028504/xc32_monitor.o
                0x9d020c38                _mon_putc

.text.DRV_ETHMAC_PIC32MACReinitialize
                0x9d020c40        0x8
 .text.DRV_ETHMAC_PIC32MACReinitialize
                0x9d020c40        0x8 build/default/production/_ext/732082881/drv_ethmac.o
                0x9d020c40                DRV_ETHMAC_PIC32MACReinitialize

.text.DRV_ETHMAC_PIC32MACPowerMode
                0x9d020c48        0x8
 .text.DRV_ETHMAC_PIC32MACPowerMode
                0x9d020c48        0x8 build/default/production/_ext/732082881/drv_ethmac.o
                0x9d020c48                DRV_ETHMAC_PIC32MACPowerMode

.text.DRV_ETH_MaxFrameLengthSet
                0x9d020c50        0x8
 .text.DRV_ETH_MaxFrameLengthSet
                0x9d020c50        0x8 build/default/production/_ext/732082881/drv_eth_pic32_lib.o
                0x9d020c50                DRV_ETH_MaxFrameLengthSet

.text.DRV_ETH_RxPacketCountGet
                0x9d020c58        0x8
 .text.DRV_ETH_RxPacketCountGet
                0x9d020c58        0x8 build/default/production/_ext/732082881/drv_eth_pic32_lib.o
                0x9d020c58                DRV_ETH_RxPacketCountGet

.text.DRV_ETH_TxPacketDescAddrGet
                0x9d020c60        0x8
 .text.DRV_ETH_TxPacketDescAddrGet
                0x9d020c60        0x8 build/default/production/_ext/732082881/drv_eth_pic32_lib.o
                0x9d020c60                DRV_ETH_TxPacketDescAddrGet

.text.DRV_ETH_RxPacketDescAddrGet
                0x9d020c68        0x8
 .text.DRV_ETH_RxPacketDescAddrGet
                0x9d020c68        0x8 build/default/production/_ext/732082881/drv_eth_pic32_lib.o
                0x9d020c68                DRV_ETH_RxPacketDescAddrGet

.text.DRV_ETH_RxFullWmarkSet
                0x9d020c70        0x8
 .text.DRV_ETH_RxFullWmarkSet
                0x9d020c70        0x8 build/default/production/_ext/732082881/drv_eth_pic32_lib.o
                0x9d020c70                DRV_ETH_RxFullWmarkSet

.text.DRV_ETH_RxEmptyWmarkSet
                0x9d020c78        0x8
 .text.DRV_ETH_RxEmptyWmarkSet
                0x9d020c78        0x8 build/default/production/_ext/732082881/drv_eth_pic32_lib.o
                0x9d020c78                DRV_ETH_RxEmptyWmarkSet

.text.DRV_ETH_FramesTxdOkCountGet
                0x9d020c80        0x8
 .text.DRV_ETH_FramesTxdOkCountGet
                0x9d020c80        0x8 build/default/production/_ext/732082881/drv_eth_pic32_lib.o
                0x9d020c80                DRV_ETH_FramesTxdOkCountGet

.text.DRV_ETH_FramesRxdOkCountGet
                0x9d020c88        0x8
 .text.DRV_ETH_FramesRxdOkCountGet
                0x9d020c88        0x8 build/default/production/_ext/732082881/drv_eth_pic32_lib.o
                0x9d020c88                DRV_ETH_FramesRxdOkCountGet

.text.DRV_ETH_RxOverflowCountGet
                0x9d020c90        0x8
 .text.DRV_ETH_RxOverflowCountGet
                0x9d020c90        0x8 build/default/production/_ext/732082881/drv_eth_pic32_lib.o
                0x9d020c90                DRV_ETH_RxOverflowCountGet

.text.DRV_ETH_FCSErrorCountGet
                0x9d020c98        0x8
 .text.DRV_ETH_FCSErrorCountGet
                0x9d020c98        0x8 build/default/production/_ext/732082881/drv_eth_pic32_lib.o
                0x9d020c98                DRV_ETH_FCSErrorCountGet

.text.DRV_ETH_AlignErrorCountGet
                0x9d020ca0        0x8
 .text.DRV_ETH_AlignErrorCountGet
                0x9d020ca0        0x8 build/default/production/_ext/732082881/drv_eth_pic32_lib.o
                0x9d020ca0                DRV_ETH_AlignErrorCountGet

.text.DRV_ETH_SingleCollisionCountGet
                0x9d020ca8        0x8
 .text.DRV_ETH_SingleCollisionCountGet
                0x9d020ca8        0x8 build/default/production/_ext/732082881/drv_eth_pic32_lib.o
                0x9d020ca8                DRV_ETH_SingleCollisionCountGet

.text.DRV_ETH_MultipleCollisionCountGet
                0x9d020cb0        0x8
 .text.DRV_ETH_MultipleCollisionCountGet
                0x9d020cb0        0x8 build/default/production/_ext/732082881/drv_eth_pic32_lib.o
                0x9d020cb0                DRV_ETH_MultipleCollisionCountGet

.text.DRV_ETH_EventsGet
                0x9d020cb8        0x8
 .text.DRV_ETH_EventsGet
                0x9d020cb8        0x8 build/default/production/_ext/732082881/drv_eth_pic32_lib.o
                0x9d020cb8                DRV_ETH_EventsGet

.text.DRV_ETH_MIIMReadDataGet
                0x9d020cc0        0x8
 .text.DRV_ETH_MIIMReadDataGet
                0x9d020cc0        0x8 build/default/production/_ext/732082881/drv_eth_pic32_lib.o
                0x9d020cc0                DRV_ETH_MIIMReadDataGet

.text.TCPIP_IPV4_IsFragmentationEnabled
                0x9d020cc8        0x8
 .text.TCPIP_IPV4_IsFragmentationEnabled
                0x9d020cc8        0x8 build/default/production/_ext/1033058136/ipv4.o
                0x9d020cc8                TCPIP_IPV4_IsFragmentationEnabled

.rodata         0x9d020cd0        0x8
 .rodata        0x9d020cd0        0x8 build/default/production/_ext/1033058136/dhcps.o

.text._TCPIP_HEAP_BufferMapNonCached
                0x9d020cd8        0x8
 .text._TCPIP_HEAP_BufferMapNonCached
                0x9d020cd8        0x8 build/default/production/_ext/1033058136/tcpip_heap_alloc.o
                0x9d020cd8                _TCPIP_HEAP_BufferMapNonCached

.text.TCPIP_STACK_NetDefaultGet
                0x9d020ce0        0x8
 .text.TCPIP_STACK_NetDefaultGet
                0x9d020ce0        0x8 build/default/production/_ext/1033058136/tcpip_manager.o
                0x9d020ce0                TCPIP_STACK_NetDefaultGet

.text.TCPIP_PKT_Deinitialize
                0x9d020ce8        0x8
 .text.TCPIP_PKT_Deinitialize
                0x9d020ce8        0x8 build/default/production/_ext/1033058136/tcpip_packet.o
                0x9d020ce8                TCPIP_PKT_Deinitialize

.text.TCPIP_PKT_SegLoadOffset
                0x9d020cf0        0x8
 .text.TCPIP_PKT_SegLoadOffset
                0x9d020cf0        0x8 build/default/production/_ext/1033058136/tcpip_packet.o
                0x9d020cf0                TCPIP_PKT_SegLoadOffset

.text.APP_Initialize
                0x9d020cf8        0x8
 .text.APP_Initialize
                0x9d020cf8        0x8 build/default/production/_ext/1360937237/app.o
                0x9d020cf8                APP_Initialize

.text._FieldSetNone
                0x9d020d00        0x8
 .text._FieldSetNone
                0x9d020d00        0x8 build/default/production/_ext/1033058136/tcpip_announce.o
                0x9d020d00                _FieldSetNone

.text.DRV_MIIM_Reinitialize
                0x9d020d08        0x8
 .text.DRV_MIIM_Reinitialize
                0x9d020d08        0x8 build/default/production/_ext/438849557/drv_miim.o
                0x9d020d08                DRV_MIIM_Reinitialize

.text._DRV_ETHPHY_ClientOpNone
                0x9d020d10        0x8
 .text._DRV_ETHPHY_ClientOpNone
                0x9d020d10        0x8 build/default/production/_ext/444070925/drv_ethphy.o

.text.CRYPT_WCCB_Callback
                0x9d020d18        0x8
 .text.CRYPT_WCCB_Callback
                0x9d020d18        0x8 build/default/production/_ext/172253694/crypt_wolfcryptcb.o
                0x9d020d18                CRYPT_WCCB_Callback

.text.wc_Sha256Free
                0x9d020d20        0x8
 .text.wc_Sha256Free
                0x9d020d20        0x8 build/default/production/_ext/1664057780/sha256.o
                0x9d020d20                wc_Sha256Free

.text.vListInitialiseItem
                0x9d020d28        0x8
 .text.vListInitialiseItem
                0x9d020d28        0x8 build/default/production/_ext/404212886/list.o
                0x9d020d28                vListInitialiseItem

.rodata         0x9d020d30        0x8
 .rodata        0x9d020d30        0x8 build/default/production/_ext/404212886/FreeRTOS_tasks.o

.text.vPortFree
                0x9d020d38        0x8
 .text.vPortFree
                0x9d020d38        0x8 build/default/production/_ext/1665200909/heap_1.o
                0x9d020d38                vPortFree

.text._on_reset
                0x9d020d40        0x8
 .text._on_reset
                0x9d020d40        0x8 c:/program files/microchip/xc32/v2.50/bin/bin/../../lib/gcc/pic32mx/4.8.3/../../../../pic32mx/lib\libpic32.a(default-on-reset.o)
                0x9d020d40                _on_reset

.text._on_bootstrap
                0x9d020d48        0x8
 .text._on_bootstrap
                0x9d020d48        0x8 c:/program files/microchip/xc32/v2.50/bin/bin/../../lib/gcc/pic32mx/4.8.3/../../../../pic32mx/lib\libpic32.a(default-on-bootstrap.o)
                0x9d020d48                _on_bootstrap

.rodata         0x9d020d50        0x4
 .rodata        0x9d020d50        0x4 build/default/production/_ext/951553248/port.o
                0x9d020d50                xISRStackTop
